C000  4C F5 C5  JMP $C5F5                       A:00 X:00 Y:00 P:24 SP:FD CYC:  0 SL:241
C5F5  A2 00     LDX #$00                        A:00 X:00 Y:00 P:24 SP:FD CYC:  9 SL:241
C5F7  86 00     STX $00 = 00                    A:00 X:00 Y:00 P:26 SP:FD CYC: 15 SL:241
C5F9  86 10     STX $10 = 00                    A:00 X:00 Y:00 P:26 SP:FD CYC: 24 SL:241
C5FB  86 11     STX $11 = 00                    A:00 X:00 Y:00 P:26 SP:FD CYC: 33 SL:241
C5FD  20 2D C7  JSR $C72D                       A:00 X:00 Y:00 P:26 SP:FD CYC: 42 SL:241
C72D  EA        NOP                             A:00 X:00 Y:00 P:26 SP:FB CYC: 60 SL:241
C72E  38        SEC                             A:00 X:00 Y:00 P:26 SP:FB CYC: 66 SL:241
C72F  B0 04     BCS $C735                       A:00 X:00 Y:00 P:27 SP:FB CYC: 72 SL:241
C735  EA        NOP                             A:00 X:00 Y:00 P:27 SP:FB CYC: 81 SL:241
C736  18        CLC                             A:00 X:00 Y:00 P:27 SP:FB CYC: 87 SL:241
C737  B0 03     BCS $C73C                       A:00 X:00 Y:00 P:26 SP:FB CYC: 93 SL:241
C739  4C 40 C7  JMP $C740                       A:00 X:00 Y:00 P:26 SP:FB CYC: 99 SL:241
C740  EA        NOP                             A:00 X:00 Y:00 P:26 SP:FB CYC:108 SL:241
C741  38        SEC                             A:00 X:00 Y:00 P:26 SP:FB CYC:114 SL:241
C742  90 03     BCC $C747                       A:00 X:00 Y:00 P:27 SP:FB CYC:120 SL:241
C744  4C 4B C7  JMP $C74B                       A:00 X:00 Y:00 P:27 SP:FB CYC:126 SL:241
C74B  EA        NOP                             A:00 X:00 Y:00 P:27 SP:FB CYC:135 SL:241
C74C  18        CLC                             A:00 X:00 Y:00 P:27 SP:FB CYC:141 SL:241
C74D  90 04     BCC $C753                       A:00 X:00 Y:00 P:26 SP:FB CYC:147 SL:241
C753  EA        NOP                             A:00 X:00 Y:00 P:26 SP:FB CYC:156 SL:241
C754  A9 00     LDA #$00                        A:00 X:00 Y:00 P:26 SP:FB CYC:162 SL:241
C756  F0 04     BEQ $C75C                       A:00 X:00 Y:00 P:26 SP:FB CYC:168 SL:241
C75C  EA        NOP                             A:00 X:00 Y:00 P:26 SP:FB CYC:177 SL:241
C75D  A9 40     LDA #$40                        A:00 X:00 Y:00 P:26 SP:FB CYC:183 SL:241
C75F  F0 03     BEQ $C764                       A:40 X:00 Y:00 P:24 SP:FB CYC:189 SL:241
C761  4C 68 C7  JMP $C768                       A:40 X:00 Y:00 P:24 SP:FB CYC:195 SL:241
C768  EA        NOP                             A:40 X:00 Y:00 P:24 SP:FB CYC:204 SL:241
C769  A9 40     LDA #$40                        A:40 X:00 Y:00 P:24 SP:FB CYC:210 SL:241
C76B  D0 04     BNE $C771                       A:40 X:00 Y:00 P:24 SP:FB CYC:216 SL:241
C771  EA        NOP                             A:40 X:00 Y:00 P:24 SP:FB CYC:225 SL:241
C772  A9 00     LDA #$00                        A:40 X:00 Y:00 P:24 SP:FB CYC:231 SL:241
C774  D0 03     BNE $C779                       A:00 X:00 Y:00 P:26 SP:FB CYC:237 SL:241
C776  4C 7D C7  JMP $C77D                       A:00 X:00 Y:00 P:26 SP:FB CYC:243 SL:241
C77D  EA        NOP                             A:00 X:00 Y:00 P:26 SP:FB CYC:252 SL:241
C77E  A9 FF     LDA #$FF                        A:00 X:00 Y:00 P:26 SP:FB CYC:258 SL:241
C780  85 01     STA $01 = 00                    A:FF X:00 Y:00 P:A4 SP:FB CYC:264 SL:241
C782  24 01     BIT $01 = FF                    A:FF X:00 Y:00 P:A4 SP:FB CYC:273 SL:241
C784  70 04     BVS $C78A                       A:FF X:00 Y:00 P:E4 SP:FB CYC:282 SL:241
C78A  EA        NOP                             A:FF X:00 Y:00 P:E4 SP:FB CYC:291 SL:241
C78B  24 01     BIT $01 = FF                    A:FF X:00 Y:00 P:E4 SP:FB CYC:297 SL:241
C78D  50 03     BVC $C792                       A:FF X:00 Y:00 P:E4 SP:FB CYC:306 SL:241
C78F  4C 96 C7  JMP $C796                       A:FF X:00 Y:00 P:E4 SP:FB CYC:312 SL:241
C796  EA        NOP                             A:FF X:00 Y:00 P:E4 SP:FB CYC:321 SL:241
C797  A9 00     LDA #$00                        A:FF X:00 Y:00 P:E4 SP:FB CYC:327 SL:241
C799  85 01     STA $01 = FF                    A:00 X:00 Y:00 P:66 SP:FB CYC:333 SL:241
C79B  24 01     BIT $01 = 00                    A:00 X:00 Y:00 P:66 SP:FB CYC:  1 SL:242
C79D  50 04     BVC $C7A3                       A:00 X:00 Y:00 P:26 SP:FB CYC: 10 SL:242
C7A3  EA        NOP                             A:00 X:00 Y:00 P:26 SP:FB CYC: 19 SL:242
C7A4  24 01     BIT $01 = 00                    A:00 X:00 Y:00 P:26 SP:FB CYC: 25 SL:242
C7A6  70 03     BVS $C7AB                       A:00 X:00 Y:00 P:26 SP:FB CYC: 34 SL:242
C7A8  4C AF C7  JMP $C7AF                       A:00 X:00 Y:00 P:26 SP:FB CYC: 40 SL:242
C7AF  EA        NOP                             A:00 X:00 Y:00 P:26 SP:FB CYC: 49 SL:242
C7B0  A9 00     LDA #$00                        A:00 X:00 Y:00 P:26 SP:FB CYC: 55 SL:242
C7B2  10 04     BPL $C7B8                       A:00 X:00 Y:00 P:26 SP:FB CYC: 61 SL:242
C7B8  EA        NOP                             A:00 X:00 Y:00 P:26 SP:FB CYC: 70 SL:242
C7B9  A9 80     LDA #$80                        A:00 X:00 Y:00 P:26 SP:FB CYC: 76 SL:242
C7BB  10 03     BPL $C7C0                       A:80 X:00 Y:00 P:A4 SP:FB CYC: 82 SL:242
C7BD  4C D9 C7  JMP $C7D9                       A:80 X:00 Y:00 P:A4 SP:FB CYC: 88 SL:242
C7D9  EA        NOP                             A:80 X:00 Y:00 P:A4 SP:FB CYC: 97 SL:242
C7DA  60        RTS                             A:80 X:00 Y:00 P:A4 SP:FB CYC:103 SL:242
C600  20 DB C7  JSR $C7DB                       A:80 X:00 Y:00 P:A4 SP:FD CYC:121 SL:242
C7DB  EA        NOP                             A:80 X:00 Y:00 P:A4 SP:FB CYC:139 SL:242
C7DC  A9 FF     LDA #$FF                        A:80 X:00 Y:00 P:A4 SP:FB CYC:145 SL:242
C7DE  85 01     STA $01 = 00                    A:FF X:00 Y:00 P:A4 SP:FB CYC:151 SL:242
C7E0  24 01     BIT $01 = FF                    A:FF X:00 Y:00 P:A4 SP:FB CYC:160 SL:242
C7E2  A9 00     LDA #$00                        A:FF X:00 Y:00 P:E4 SP:FB CYC:169 SL:242
C7E4  38        SEC                             A:00 X:00 Y:00 P:66 SP:FB CYC:175 SL:242
C7E5  78        SEI                             A:00 X:00 Y:00 P:67 SP:FB CYC:181 SL:242
C7E6  F8        SED                             A:00 X:00 Y:00 P:67 SP:FB CYC:187 SL:242
C7E7  08        PHP                             A:00 X:00 Y:00 P:6F SP:FB CYC:193 SL:242
C7E8  68        PLA                             A:00 X:00 Y:00 P:6F SP:FA CYC:202 SL:242
C7E9  29 EF     AND #$EF                        A:7F X:00 Y:00 P:6D SP:FB CYC:214 SL:242
C7EB  C9 6F     CMP #$6F                        A:6F X:00 Y:00 P:6D SP:FB CYC:220 SL:242
C7ED  F0 04     BEQ $C7F3                       A:6F X:00 Y:00 P:6F SP:FB CYC:226 SL:242
C7F3  EA        NOP                             A:6F X:00 Y:00 P:6F SP:FB CYC:235 SL:242
C7F4  A9 40     LDA #$40                        A:6F X:00 Y:00 P:6F SP:FB CYC:241 SL:242
C7F6  85 01     STA $01 = FF                    A:40 X:00 Y:00 P:6D SP:FB CYC:247 SL:242
C7F8  24 01     BIT $01 = 40                    A:40 X:00 Y:00 P:6D SP:FB CYC:256 SL:242
C7FA  D8        CLD                             A:40 X:00 Y:00 P:6D SP:FB CYC:265 SL:242
C7FB  A9 10     LDA #$10                        A:40 X:00 Y:00 P:65 SP:FB CYC:271 SL:242
C7FD  18        CLC                             A:10 X:00 Y:00 P:65 SP:FB CYC:277 SL:242
C7FE  08        PHP                             A:10 X:00 Y:00 P:64 SP:FB CYC:283 SL:242
C7FF  68        PLA                             A:10 X:00 Y:00 P:64 SP:FA CYC:292 SL:242
C800  29 EF     AND #$EF                        A:74 X:00 Y:00 P:64 SP:FB CYC:304 SL:242
C802  C9 64     CMP #$64                        A:64 X:00 Y:00 P:64 SP:FB CYC:310 SL:242
C804  F0 04     BEQ $C80A                       A:64 X:00 Y:00 P:67 SP:FB CYC:316 SL:242
C80A  EA        NOP                             A:64 X:00 Y:00 P:67 SP:FB CYC:325 SL:242
C80B  A9 80     LDA #$80                        A:64 X:00 Y:00 P:67 SP:FB CYC:331 SL:242
C80D  85 01     STA $01 = 40                    A:80 X:00 Y:00 P:E5 SP:FB CYC:337 SL:242
C80F  24 01     BIT $01 = 80                    A:80 X:00 Y:00 P:E5 SP:FB CYC:  5 SL:243
C811  F8        SED                             A:80 X:00 Y:00 P:A5 SP:FB CYC: 14 SL:243
C812  A9 00     LDA #$00                        A:80 X:00 Y:00 P:AD SP:FB CYC: 20 SL:243
C814  38        SEC                             A:00 X:00 Y:00 P:2F SP:FB CYC: 26 SL:243
C815  08        PHP                             A:00 X:00 Y:00 P:2F SP:FB CYC: 32 SL:243
C816  68        PLA                             A:00 X:00 Y:00 P:2F SP:FA CYC: 41 SL:243
C817  29 EF     AND #$EF                        A:3F X:00 Y:00 P:2D SP:FB CYC: 53 SL:243
C819  C9 2F     CMP #$2F                        A:2F X:00 Y:00 P:2D SP:FB CYC: 59 SL:243
C81B  F0 04     BEQ $C821                       A:2F X:00 Y:00 P:2F SP:FB CYC: 65 SL:243
C821  EA        NOP                             A:2F X:00 Y:00 P:2F SP:FB CYC: 74 SL:243
C822  A9 FF     LDA #$FF                        A:2F X:00 Y:00 P:2F SP:FB CYC: 80 SL:243
C824  48        PHA                             A:FF X:00 Y:00 P:AD SP:FB CYC: 86 SL:243
C825  28        PLP                             A:FF X:00 Y:00 P:AD SP:FA CYC: 95 SL:243
C826  D0 09     BNE $C831                       A:FF X:00 Y:00 P:EF SP:FB CYC:107 SL:243
C828  10 07     BPL $C831                       A:FF X:00 Y:00 P:EF SP:FB CYC:113 SL:243
C82A  50 05     BVC $C831                       A:FF X:00 Y:00 P:EF SP:FB CYC:119 SL:243
C82C  90 03     BCC $C831                       A:FF X:00 Y:00 P:EF SP:FB CYC:125 SL:243
C82E  4C 35 C8  JMP $C835                       A:FF X:00 Y:00 P:EF SP:FB CYC:131 SL:243
C835  EA        NOP                             A:FF X:00 Y:00 P:EF SP:FB CYC:140 SL:243
C836  A9 04     LDA #$04                        A:FF X:00 Y:00 P:EF SP:FB CYC:146 SL:243
C838  48        PHA                             A:04 X:00 Y:00 P:6D SP:FB CYC:152 SL:243
C839  28        PLP                             A:04 X:00 Y:00 P:6D SP:FA CYC:161 SL:243
C83A  F0 09     BEQ $C845                       A:04 X:00 Y:00 P:24 SP:FB CYC:173 SL:243
C83C  30 07     BMI $C845                       A:04 X:00 Y:00 P:24 SP:FB CYC:179 SL:243
C83E  70 05     BVS $C845                       A:04 X:00 Y:00 P:24 SP:FB CYC:185 SL:243
C840  B0 03     BCS $C845                       A:04 X:00 Y:00 P:24 SP:FB CYC:191 SL:243
C842  4C 49 C8  JMP $C849                       A:04 X:00 Y:00 P:24 SP:FB CYC:197 SL:243
C849  EA        NOP                             A:04 X:00 Y:00 P:24 SP:FB CYC:206 SL:243
C84A  F8        SED                             A:04 X:00 Y:00 P:24 SP:FB CYC:212 SL:243
C84B  A9 FF     LDA #$FF                        A:04 X:00 Y:00 P:2C SP:FB CYC:218 SL:243
C84D  85 01     STA $01 = 80                    A:FF X:00 Y:00 P:AC SP:FB CYC:224 SL:243
C84F  24 01     BIT $01 = FF                    A:FF X:00 Y:00 P:AC SP:FB CYC:233 SL:243
C851  18        CLC                             A:FF X:00 Y:00 P:EC SP:FB CYC:242 SL:243
C852  A9 00     LDA #$00                        A:FF X:00 Y:00 P:EC SP:FB CYC:248 SL:243
C854  48        PHA                             A:00 X:00 Y:00 P:6E SP:FB CYC:254 SL:243
C855  A9 FF     LDA #$FF                        A:00 X:00 Y:00 P:6E SP:FA CYC:263 SL:243
C857  68        PLA                             A:FF X:00 Y:00 P:EC SP:FA CYC:269 SL:243
C858  D0 09     BNE $C863                       A:00 X:00 Y:00 P:6E SP:FB CYC:281 SL:243
C85A  30 07     BMI $C863                       A:00 X:00 Y:00 P:6E SP:FB CYC:287 SL:243
C85C  50 05     BVC $C863                       A:00 X:00 Y:00 P:6E SP:FB CYC:293 SL:243
C85E  B0 03     BCS $C863                       A:00 X:00 Y:00 P:6E SP:FB CYC:299 SL:243
C860  4C 67 C8  JMP $C867                       A:00 X:00 Y:00 P:6E SP:FB CYC:305 SL:243
C867  EA        NOP                             A:00 X:00 Y:00 P:6E SP:FB CYC:314 SL:243
C868  A9 00     LDA #$00                        A:00 X:00 Y:00 P:6E SP:FB CYC:320 SL:243
C86A  85 01     STA $01 = FF                    A:00 X:00 Y:00 P:6E SP:FB CYC:326 SL:243
C86C  24 01     BIT $01 = 00                    A:00 X:00 Y:00 P:6E SP:FB CYC:335 SL:243
C86E  38        SEC                             A:00 X:00 Y:00 P:2E SP:FB CYC:  3 SL:244
C86F  A9 FF     LDA #$FF                        A:00 X:00 Y:00 P:2F SP:FB CYC:  9 SL:244
C871  48        PHA                             A:FF X:00 Y:00 P:AD SP:FB CYC: 15 SL:244
C872  A9 00     LDA #$00                        A:FF X:00 Y:00 P:AD SP:FA CYC: 24 SL:244
C874  68        PLA                             A:00 X:00 Y:00 P:2F SP:FA CYC: 30 SL:244
C875  F0 09     BEQ $C880                       A:FF X:00 Y:00 P:AD SP:FB CYC: 42 SL:244
C877  10 07     BPL $C880                       A:FF X:00 Y:00 P:AD SP:FB CYC: 48 SL:244
C879  70 05     BVS $C880                       A:FF X:00 Y:00 P:AD SP:FB CYC: 54 SL:244
C87B  90 03     BCC $C880                       A:FF X:00 Y:00 P:AD SP:FB CYC: 60 SL:244
C87D  4C 84 C8  JMP $C884                       A:FF X:00 Y:00 P:AD SP:FB CYC: 66 SL:244
C884  60        RTS                             A:FF X:00 Y:00 P:AD SP:FB CYC: 75 SL:244
C603  20 85 C8  JSR $C885                       A:FF X:00 Y:00 P:AD SP:FD CYC: 93 SL:244
C885  EA        NOP                             A:FF X:00 Y:00 P:AD SP:FB CYC:111 SL:244
C886  18        CLC                             A:FF X:00 Y:00 P:AD SP:FB CYC:117 SL:244
C887  A9 FF     LDA #$FF                        A:FF X:00 Y:00 P:AC SP:FB CYC:123 SL:244
C889  85 01     STA $01 = 00                    A:FF X:00 Y:00 P:AC SP:FB CYC:129 SL:244
C88B  24 01     BIT $01 = FF                    A:FF X:00 Y:00 P:AC SP:FB CYC:138 SL:244
C88D  A9 55     LDA #$55                        A:FF X:00 Y:00 P:EC SP:FB CYC:147 SL:244
C88F  09 AA     ORA #$AA                        A:55 X:00 Y:00 P:6C SP:FB CYC:153 SL:244
C891  B0 0B     BCS $C89E                       A:FF X:00 Y:00 P:EC SP:FB CYC:159 SL:244
C893  10 09     BPL $C89E                       A:FF X:00 Y:00 P:EC SP:FB CYC:165 SL:244
C895  C9 FF     CMP #$FF                        A:FF X:00 Y:00 P:EC SP:FB CYC:171 SL:244
C897  D0 05     BNE $C89E                       A:FF X:00 Y:00 P:6F SP:FB CYC:177 SL:244
C899  50 03     BVC $C89E                       A:FF X:00 Y:00 P:6F SP:FB CYC:183 SL:244
C89B  4C A2 C8  JMP $C8A2                       A:FF X:00 Y:00 P:6F SP:FB CYC:189 SL:244
C8A2  EA        NOP                             A:FF X:00 Y:00 P:6F SP:FB CYC:198 SL:244
C8A3  38        SEC                             A:FF X:00 Y:00 P:6F SP:FB CYC:204 SL:244
C8A4  B8        CLV                             A:FF X:00 Y:00 P:6F SP:FB CYC:210 SL:244
C8A5  A9 00     LDA #$00                        A:FF X:00 Y:00 P:2F SP:FB CYC:216 SL:244
C8A7  09 00     ORA #$00                        A:00 X:00 Y:00 P:2F SP:FB CYC:222 SL:244
C8A9  D0 09     BNE $C8B4                       A:00 X:00 Y:00 P:2F SP:FB CYC:228 SL:244
C8AB  70 07     BVS $C8B4                       A:00 X:00 Y:00 P:2F SP:FB CYC:234 SL:244
C8AD  90 05     BCC $C8B4                       A:00 X:00 Y:00 P:2F SP:FB CYC:240 SL:244
C8AF  30 03     BMI $C8B4                       A:00 X:00 Y:00 P:2F SP:FB CYC:246 SL:244
C8B1  4C B8 C8  JMP $C8B8                       A:00 X:00 Y:00 P:2F SP:FB CYC:252 SL:244
C8B8  EA        NOP                             A:00 X:00 Y:00 P:2F SP:FB CYC:261 SL:244
C8B9  18        CLC                             A:00 X:00 Y:00 P:2F SP:FB CYC:267 SL:244
C8BA  24 01     BIT $01 = FF                    A:00 X:00 Y:00 P:2E SP:FB CYC:273 SL:244
C8BC  A9 55     LDA #$55                        A:00 X:00 Y:00 P:EE SP:FB CYC:282 SL:244
C8BE  29 AA     AND #$AA                        A:55 X:00 Y:00 P:6C SP:FB CYC:288 SL:244
C8C0  D0 09     BNE $C8CB                       A:00 X:00 Y:00 P:6E SP:FB CYC:294 SL:244
C8C2  50 07     BVC $C8CB                       A:00 X:00 Y:00 P:6E SP:FB CYC:300 SL:244
C8C4  B0 05     BCS $C8CB                       A:00 X:00 Y:00 P:6E SP:FB CYC:306 SL:244
C8C6  30 03     BMI $C8CB                       A:00 X:00 Y:00 P:6E SP:FB CYC:312 SL:244
C8C8  4C CF C8  JMP $C8CF                       A:00 X:00 Y:00 P:6E SP:FB CYC:318 SL:244
C8CF  EA        NOP                             A:00 X:00 Y:00 P:6E SP:FB CYC:327 SL:244
C8D0  38        SEC                             A:00 X:00 Y:00 P:6E SP:FB CYC:333 SL:244
C8D1  B8        CLV                             A:00 X:00 Y:00 P:6F SP:FB CYC:339 SL:244
C8D2  A9 F8     LDA #$F8                        A:00 X:00 Y:00 P:2F SP:FB CYC:  4 SL:245
C8D4  29 EF     AND #$EF                        A:F8 X:00 Y:00 P:AD SP:FB CYC: 10 SL:245
C8D6  90 0B     BCC $C8E3                       A:E8 X:00 Y:00 P:AD SP:FB CYC: 16 SL:245
C8D8  10 09     BPL $C8E3                       A:E8 X:00 Y:00 P:AD SP:FB CYC: 22 SL:245
C8DA  C9 E8     CMP #$E8                        A:E8 X:00 Y:00 P:AD SP:FB CYC: 28 SL:245
C8DC  D0 05     BNE $C8E3                       A:E8 X:00 Y:00 P:2F SP:FB CYC: 34 SL:245
C8DE  70 03     BVS $C8E3                       A:E8 X:00 Y:00 P:2F SP:FB CYC: 40 SL:245
C8E0  4C E7 C8  JMP $C8E7                       A:E8 X:00 Y:00 P:2F SP:FB CYC: 46 SL:245
C8E7  EA        NOP                             A:E8 X:00 Y:00 P:2F SP:FB CYC: 55 SL:245
C8E8  18        CLC                             A:E8 X:00 Y:00 P:2F SP:FB CYC: 61 SL:245
C8E9  24 01     BIT $01 = FF                    A:E8 X:00 Y:00 P:2E SP:FB CYC: 67 SL:245
C8EB  A9 5F     LDA #$5F                        A:E8 X:00 Y:00 P:EC SP:FB CYC: 76 SL:245
C8ED  49 AA     EOR #$AA                        A:5F X:00 Y:00 P:6C SP:FB CYC: 82 SL:245
C8EF  B0 0B     BCS $C8FC                       A:F5 X:00 Y:00 P:EC SP:FB CYC: 88 SL:245
C8F1  10 09     BPL $C8FC                       A:F5 X:00 Y:00 P:EC SP:FB CYC: 94 SL:245
C8F3  C9 F5     CMP #$F5                        A:F5 X:00 Y:00 P:EC SP:FB CYC:100 SL:245
C8F5  D0 05     BNE $C8FC                       A:F5 X:00 Y:00 P:6F SP:FB CYC:106 SL:245
C8F7  50 03     BVC $C8FC                       A:F5 X:00 Y:00 P:6F SP:FB CYC:112 SL:245
C8F9  4C 00 C9  JMP $C900                       A:F5 X:00 Y:00 P:6F SP:FB CYC:118 SL:245
C900  EA        NOP                             A:F5 X:00 Y:00 P:6F SP:FB CYC:127 SL:245
C901  38        SEC                             A:F5 X:00 Y:00 P:6F SP:FB CYC:133 SL:245
C902  B8        CLV                             A:F5 X:00 Y:00 P:6F SP:FB CYC:139 SL:245
C903  A9 70     LDA #$70                        A:F5 X:00 Y:00 P:2F SP:FB CYC:145 SL:245
C905  49 70     EOR #$70                        A:70 X:00 Y:00 P:2D SP:FB CYC:151 SL:245
C907  D0 09     BNE $C912                       A:00 X:00 Y:00 P:2F SP:FB CYC:157 SL:245
C909  70 07     BVS $C912                       A:00 X:00 Y:00 P:2F SP:FB CYC:163 SL:245
C90B  90 05     BCC $C912                       A:00 X:00 Y:00 P:2F SP:FB CYC:169 SL:245
C90D  30 03     BMI $C912                       A:00 X:00 Y:00 P:2F SP:FB CYC:175 SL:245
C90F  4C 16 C9  JMP $C916                       A:00 X:00 Y:00 P:2F SP:FB CYC:181 SL:245
C916  EA        NOP                             A:00 X:00 Y:00 P:2F SP:FB CYC:190 SL:245
C917  18        CLC                             A:00 X:00 Y:00 P:2F SP:FB CYC:196 SL:245
C918  24 01     BIT $01 = FF                    A:00 X:00 Y:00 P:2E SP:FB CYC:202 SL:245
C91A  A9 00     LDA #$00                        A:00 X:00 Y:00 P:EE SP:FB CYC:211 SL:245
C91C  69 69     ADC #$69                        A:00 X:00 Y:00 P:6E SP:FB CYC:217 SL:245
C91E  30 0B     BMI $C92B                       A:69 X:00 Y:00 P:2C SP:FB CYC:223 SL:245
C920  B0 09     BCS $C92B                       A:69 X:00 Y:00 P:2C SP:FB CYC:229 SL:245
C922  C9 69     CMP #$69                        A:69 X:00 Y:00 P:2C SP:FB CYC:235 SL:245
C924  D0 05     BNE $C92B                       A:69 X:00 Y:00 P:2F SP:FB CYC:241 SL:245
C926  70 03     BVS $C92B                       A:69 X:00 Y:00 P:2F SP:FB CYC:247 SL:245
C928  4C 2F C9  JMP $C92F                       A:69 X:00 Y:00 P:2F SP:FB CYC:253 SL:245
C92F  EA        NOP                             A:69 X:00 Y:00 P:2F SP:FB CYC:262 SL:245
C930  38        SEC                             A:69 X:00 Y:00 P:2F SP:FB CYC:268 SL:245
C931  F8        SED                             A:69 X:00 Y:00 P:2F SP:FB CYC:274 SL:245
C932  24 01     BIT $01 = FF                    A:69 X:00 Y:00 P:2F SP:FB CYC:280 SL:245
C934  A9 01     LDA #$01                        A:69 X:00 Y:00 P:ED SP:FB CYC:289 SL:245
C936  69 69     ADC #$69                        A:01 X:00 Y:00 P:6D SP:FB CYC:295 SL:245
C938  30 0B     BMI $C945                       A:6B X:00 Y:00 P:2C SP:FB CYC:301 SL:245
C93A  B0 09     BCS $C945                       A:6B X:00 Y:00 P:2C SP:FB CYC:307 SL:245
C93C  C9 6B     CMP #$6B                        A:6B X:00 Y:00 P:2C SP:FB CYC:313 SL:245
C93E  D0 05     BNE $C945                       A:6B X:00 Y:00 P:2F SP:FB CYC:319 SL:245
C940  70 03     BVS $C945                       A:6B X:00 Y:00 P:2F SP:FB CYC:325 SL:245
C942  4C 49 C9  JMP $C949                       A:6B X:00 Y:00 P:2F SP:FB CYC:331 SL:245
C949  EA        NOP                             A:6B X:00 Y:00 P:2F SP:FB CYC:340 SL:245
C94A  D8        CLD                             A:6B X:00 Y:00 P:2F SP:FB CYC:  5 SL:246
C94B  38        SEC                             A:6B X:00 Y:00 P:27 SP:FB CYC: 11 SL:246
C94C  B8        CLV                             A:6B X:00 Y:00 P:27 SP:FB CYC: 17 SL:246
C94D  A9 7F     LDA #$7F                        A:6B X:00 Y:00 P:27 SP:FB CYC: 23 SL:246
C94F  69 7F     ADC #$7F                        A:7F X:00 Y:00 P:25 SP:FB CYC: 29 SL:246
C951  10 0B     BPL $C95E                       A:FF X:00 Y:00 P:E4 SP:FB CYC: 35 SL:246
C953  B0 09     BCS $C95E                       A:FF X:00 Y:00 P:E4 SP:FB CYC: 41 SL:246
C955  C9 FF     CMP #$FF                        A:FF X:00 Y:00 P:E4 SP:FB CYC: 47 SL:246
C957  D0 05     BNE $C95E                       A:FF X:00 Y:00 P:67 SP:FB CYC: 53 SL:246
C959  50 03     BVC $C95E                       A:FF X:00 Y:00 P:67 SP:FB CYC: 59 SL:246
C95B  4C 62 C9  JMP $C962                       A:FF X:00 Y:00 P:67 SP:FB CYC: 65 SL:246
C962  EA        NOP                             A:FF X:00 Y:00 P:67 SP:FB CYC: 74 SL:246
C963  18        CLC                             A:FF X:00 Y:00 P:67 SP:FB CYC: 80 SL:246
C964  24 01     BIT $01 = FF                    A:FF X:00 Y:00 P:66 SP:FB CYC: 86 SL:246
C966  A9 7F     LDA #$7F                        A:FF X:00 Y:00 P:E4 SP:FB CYC: 95 SL:246
C968  69 80     ADC #$80                        A:7F X:00 Y:00 P:64 SP:FB CYC:101 SL:246
C96A  10 0B     BPL $C977                       A:FF X:00 Y:00 P:A4 SP:FB CYC:107 SL:246
C96C  B0 09     BCS $C977                       A:FF X:00 Y:00 P:A4 SP:FB CYC:113 SL:246
C96E  C9 FF     CMP #$FF                        A:FF X:00 Y:00 P:A4 SP:FB CYC:119 SL:246
C970  D0 05     BNE $C977                       A:FF X:00 Y:00 P:27 SP:FB CYC:125 SL:246
C972  70 03     BVS $C977                       A:FF X:00 Y:00 P:27 SP:FB CYC:131 SL:246
C974  4C 7B C9  JMP $C97B                       A:FF X:00 Y:00 P:27 SP:FB CYC:137 SL:246
C97B  EA        NOP                             A:FF X:00 Y:00 P:27 SP:FB CYC:146 SL:246
C97C  38        SEC                             A:FF X:00 Y:00 P:27 SP:FB CYC:152 SL:246
C97D  B8        CLV                             A:FF X:00 Y:00 P:27 SP:FB CYC:158 SL:246
C97E  A9 7F     LDA #$7F                        A:FF X:00 Y:00 P:27 SP:FB CYC:164 SL:246
C980  69 80     ADC #$80                        A:7F X:00 Y:00 P:25 SP:FB CYC:170 SL:246
C982  D0 09     BNE $C98D                       A:00 X:00 Y:00 P:27 SP:FB CYC:176 SL:246
C984  30 07     BMI $C98D                       A:00 X:00 Y:00 P:27 SP:FB CYC:182 SL:246
C986  70 05     BVS $C98D                       A:00 X:00 Y:00 P:27 SP:FB CYC:188 SL:246
C988  90 03     BCC $C98D                       A:00 X:00 Y:00 P:27 SP:FB CYC:194 SL:246
C98A  4C 91 C9  JMP $C991                       A:00 X:00 Y:00 P:27 SP:FB CYC:200 SL:246
C991  EA        NOP                             A:00 X:00 Y:00 P:27 SP:FB CYC:209 SL:246
C992  38        SEC                             A:00 X:00 Y:00 P:27 SP:FB CYC:215 SL:246
C993  B8        CLV                             A:00 X:00 Y:00 P:27 SP:FB CYC:221 SL:246
C994  A9 9F     LDA #$9F                        A:00 X:00 Y:00 P:27 SP:FB CYC:227 SL:246
C996  F0 09     BEQ $C9A1                       A:9F X:00 Y:00 P:A5 SP:FB CYC:233 SL:246
C998  10 07     BPL $C9A1                       A:9F X:00 Y:00 P:A5 SP:FB CYC:239 SL:246
C99A  70 05     BVS $C9A1                       A:9F X:00 Y:00 P:A5 SP:FB CYC:245 SL:246
C99C  90 03     BCC $C9A1                       A:9F X:00 Y:00 P:A5 SP:FB CYC:251 SL:246
C99E  4C A5 C9  JMP $C9A5                       A:9F X:00 Y:00 P:A5 SP:FB CYC:257 SL:246
C9A5  EA        NOP                             A:9F X:00 Y:00 P:A5 SP:FB CYC:266 SL:246
C9A6  18        CLC                             A:9F X:00 Y:00 P:A5 SP:FB CYC:272 SL:246
C9A7  24 01     BIT $01 = FF                    A:9F X:00 Y:00 P:A4 SP:FB CYC:278 SL:246
C9A9  A9 00     LDA #$00                        A:9F X:00 Y:00 P:E4 SP:FB CYC:287 SL:246
C9AB  D0 09     BNE $C9B6                       A:00 X:00 Y:00 P:66 SP:FB CYC:293 SL:246
C9AD  30 07     BMI $C9B6                       A:00 X:00 Y:00 P:66 SP:FB CYC:299 SL:246
C9AF  50 05     BVC $C9B6                       A:00 X:00 Y:00 P:66 SP:FB CYC:305 SL:246
C9B1  B0 03     BCS $C9B6                       A:00 X:00 Y:00 P:66 SP:FB CYC:311 SL:246
C9B3  4C BA C9  JMP $C9BA                       A:00 X:00 Y:00 P:66 SP:FB CYC:317 SL:246
C9BA  EA        NOP                             A:00 X:00 Y:00 P:66 SP:FB CYC:326 SL:246
C9BB  24 01     BIT $01 = FF                    A:00 X:00 Y:00 P:66 SP:FB CYC:332 SL:246
C9BD  A9 40     LDA #$40                        A:00 X:00 Y:00 P:E6 SP:FB CYC:  0 SL:247
C9BF  C9 40     CMP #$40                        A:40 X:00 Y:00 P:64 SP:FB CYC:  6 SL:247
C9C1  30 09     BMI $C9CC                       A:40 X:00 Y:00 P:67 SP:FB CYC: 12 SL:247
C9C3  90 07     BCC $C9CC                       A:40 X:00 Y:00 P:67 SP:FB CYC: 18 SL:247
C9C5  D0 05     BNE $C9CC                       A:40 X:00 Y:00 P:67 SP:FB CYC: 24 SL:247
C9C7  50 03     BVC $C9CC                       A:40 X:00 Y:00 P:67 SP:FB CYC: 30 SL:247
C9C9  4C D0 C9  JMP $C9D0                       A:40 X:00 Y:00 P:67 SP:FB CYC: 36 SL:247
C9D0  EA        NOP                             A:40 X:00 Y:00 P:67 SP:FB CYC: 45 SL:247
C9D1  B8        CLV                             A:40 X:00 Y:00 P:67 SP:FB CYC: 51 SL:247
C9D2  C9 3F     CMP #$3F                        A:40 X:00 Y:00 P:27 SP:FB CYC: 57 SL:247
C9D4  F0 09     BEQ $C9DF                       A:40 X:00 Y:00 P:25 SP:FB CYC: 63 SL:247
C9D6  30 07     BMI $C9DF                       A:40 X:00 Y:00 P:25 SP:FB CYC: 69 SL:247
C9D8  90 05     BCC $C9DF                       A:40 X:00 Y:00 P:25 SP:FB CYC: 75 SL:247
C9DA  70 03     BVS $C9DF                       A:40 X:00 Y:00 P:25 SP:FB CYC: 81 SL:247
C9DC  4C E3 C9  JMP $C9E3                       A:40 X:00 Y:00 P:25 SP:FB CYC: 87 SL:247
C9E3  EA        NOP                             A:40 X:00 Y:00 P:25 SP:FB CYC: 96 SL:247
C9E4  C9 41     CMP #$41                        A:40 X:00 Y:00 P:25 SP:FB CYC:102 SL:247
C9E6  F0 07     BEQ $C9EF                       A:40 X:00 Y:00 P:A4 SP:FB CYC:108 SL:247
C9E8  10 05     BPL $C9EF                       A:40 X:00 Y:00 P:A4 SP:FB CYC:114 SL:247
C9EA  10 03     BPL $C9EF                       A:40 X:00 Y:00 P:A4 SP:FB CYC:120 SL:247
C9EC  4C F3 C9  JMP $C9F3                       A:40 X:00 Y:00 P:A4 SP:FB CYC:126 SL:247
C9F3  EA        NOP                             A:40 X:00 Y:00 P:A4 SP:FB CYC:135 SL:247
C9F4  A9 80     LDA #$80                        A:40 X:00 Y:00 P:A4 SP:FB CYC:141 SL:247
C9F6  C9 00     CMP #$00                        A:80 X:00 Y:00 P:A4 SP:FB CYC:147 SL:247
C9F8  F0 07     BEQ $CA01                       A:80 X:00 Y:00 P:A5 SP:FB CYC:153 SL:247
C9FA  10 05     BPL $CA01                       A:80 X:00 Y:00 P:A5 SP:FB CYC:159 SL:247
C9FC  90 03     BCC $CA01                       A:80 X:00 Y:00 P:A5 SP:FB CYC:165 SL:247
C9FE  4C 05 CA  JMP $CA05                       A:80 X:00 Y:00 P:A5 SP:FB CYC:171 SL:247
CA05  EA        NOP                             A:80 X:00 Y:00 P:A5 SP:FB CYC:180 SL:247
CA06  C9 80     CMP #$80                        A:80 X:00 Y:00 P:A5 SP:FB CYC:186 SL:247
CA08  D0 07     BNE $CA11                       A:80 X:00 Y:00 P:27 SP:FB CYC:192 SL:247
CA0A  30 05     BMI $CA11                       A:80 X:00 Y:00 P:27 SP:FB CYC:198 SL:247
CA0C  90 03     BCC $CA11                       A:80 X:00 Y:00 P:27 SP:FB CYC:204 SL:247
CA0E  4C 15 CA  JMP $CA15                       A:80 X:00 Y:00 P:27 SP:FB CYC:210 SL:247
CA15  EA        NOP                             A:80 X:00 Y:00 P:27 SP:FB CYC:219 SL:247
CA16  C9 81     CMP #$81                        A:80 X:00 Y:00 P:27 SP:FB CYC:225 SL:247
CA18  B0 07     BCS $CA21                       A:80 X:00 Y:00 P:A4 SP:FB CYC:231 SL:247
CA1A  F0 05     BEQ $CA21                       A:80 X:00 Y:00 P:A4 SP:FB CYC:237 SL:247
CA1C  10 03     BPL $CA21                       A:80 X:00 Y:00 P:A4 SP:FB CYC:243 SL:247
CA1E  4C 25 CA  JMP $CA25                       A:80 X:00 Y:00 P:A4 SP:FB CYC:249 SL:247
CA25  EA        NOP                             A:80 X:00 Y:00 P:A4 SP:FB CYC:258 SL:247
CA26  C9 7F     CMP #$7F                        A:80 X:00 Y:00 P:A4 SP:FB CYC:264 SL:247
CA28  90 07     BCC $CA31                       A:80 X:00 Y:00 P:25 SP:FB CYC:270 SL:247
CA2A  F0 05     BEQ $CA31                       A:80 X:00 Y:00 P:25 SP:FB CYC:276 SL:247
CA2C  30 03     BMI $CA31                       A:80 X:00 Y:00 P:25 SP:FB CYC:282 SL:247
CA2E  4C 35 CA  JMP $CA35                       A:80 X:00 Y:00 P:25 SP:FB CYC:288 SL:247
CA35  EA        NOP                             A:80 X:00 Y:00 P:25 SP:FB CYC:297 SL:247
CA36  24 01     BIT $01 = FF                    A:80 X:00 Y:00 P:25 SP:FB CYC:303 SL:247
CA38  A0 40     LDY #$40                        A:80 X:00 Y:00 P:E5 SP:FB CYC:312 SL:247
CA3A  C0 40     CPY #$40                        A:80 X:00 Y:40 P:65 SP:FB CYC:318 SL:247
CA3C  D0 09     BNE $CA47                       A:80 X:00 Y:40 P:67 SP:FB CYC:324 SL:247
CA3E  30 07     BMI $CA47                       A:80 X:00 Y:40 P:67 SP:FB CYC:330 SL:247
CA40  90 05     BCC $CA47                       A:80 X:00 Y:40 P:67 SP:FB CYC:336 SL:247
CA42  50 03     BVC $CA47                       A:80 X:00 Y:40 P:67 SP:FB CYC:  1 SL:248
CA44  4C 4B CA  JMP $CA4B                       A:80 X:00 Y:40 P:67 SP:FB CYC:  7 SL:248
CA4B  EA        NOP                             A:80 X:00 Y:40 P:67 SP:FB CYC: 16 SL:248
CA4C  B8        CLV                             A:80 X:00 Y:40 P:67 SP:FB CYC: 22 SL:248
CA4D  C0 3F     CPY #$3F                        A:80 X:00 Y:40 P:27 SP:FB CYC: 28 SL:248
CA4F  F0 09     BEQ $CA5A                       A:80 X:00 Y:40 P:25 SP:FB CYC: 34 SL:248
CA51  30 07     BMI $CA5A                       A:80 X:00 Y:40 P:25 SP:FB CYC: 40 SL:248
CA53  90 05     BCC $CA5A                       A:80 X:00 Y:40 P:25 SP:FB CYC: 46 SL:248
CA55  70 03     BVS $CA5A                       A:80 X:00 Y:40 P:25 SP:FB CYC: 52 SL:248
CA57  4C 5E CA  JMP $CA5E                       A:80 X:00 Y:40 P:25 SP:FB CYC: 58 SL:248
CA5E  EA        NOP                             A:80 X:00 Y:40 P:25 SP:FB CYC: 67 SL:248
CA5F  C0 41     CPY #$41                        A:80 X:00 Y:40 P:25 SP:FB CYC: 73 SL:248
CA61  F0 07     BEQ $CA6A                       A:80 X:00 Y:40 P:A4 SP:FB CYC: 79 SL:248
CA63  10 05     BPL $CA6A                       A:80 X:00 Y:40 P:A4 SP:FB CYC: 85 SL:248
CA65  10 03     BPL $CA6A                       A:80 X:00 Y:40 P:A4 SP:FB CYC: 91 SL:248
CA67  4C 6E CA  JMP $CA6E                       A:80 X:00 Y:40 P:A4 SP:FB CYC: 97 SL:248
CA6E  EA        NOP                             A:80 X:00 Y:40 P:A4 SP:FB CYC:106 SL:248
CA6F  A0 80     LDY #$80                        A:80 X:00 Y:40 P:A4 SP:FB CYC:112 SL:248
CA71  C0 00     CPY #$00                        A:80 X:00 Y:80 P:A4 SP:FB CYC:118 SL:248
CA73  F0 07     BEQ $CA7C                       A:80 X:00 Y:80 P:A5 SP:FB CYC:124 SL:248
CA75  10 05     BPL $CA7C                       A:80 X:00 Y:80 P:A5 SP:FB CYC:130 SL:248
CA77  90 03     BCC $CA7C                       A:80 X:00 Y:80 P:A5 SP:FB CYC:136 SL:248
CA79  4C 80 CA  JMP $CA80                       A:80 X:00 Y:80 P:A5 SP:FB CYC:142 SL:248
CA80  EA        NOP                             A:80 X:00 Y:80 P:A5 SP:FB CYC:151 SL:248
CA81  C0 80     CPY #$80                        A:80 X:00 Y:80 P:A5 SP:FB CYC:157 SL:248
CA83  D0 07     BNE $CA8C                       A:80 X:00 Y:80 P:27 SP:FB CYC:163 SL:248
CA85  30 05     BMI $CA8C                       A:80 X:00 Y:80 P:27 SP:FB CYC:169 SL:248
CA87  90 03     BCC $CA8C                       A:80 X:00 Y:80 P:27 SP:FB CYC:175 SL:248
CA89  4C 90 CA  JMP $CA90                       A:80 X:00 Y:80 P:27 SP:FB CYC:181 SL:248
CA90  EA        NOP                             A:80 X:00 Y:80 P:27 SP:FB CYC:190 SL:248
CA91  C0 81     CPY #$81                        A:80 X:00 Y:80 P:27 SP:FB CYC:196 SL:248
CA93  B0 07     BCS $CA9C                       A:80 X:00 Y:80 P:A4 SP:FB CYC:202 SL:248
CA95  F0 05     BEQ $CA9C                       A:80 X:00 Y:80 P:A4 SP:FB CYC:208 SL:248
CA97  10 03     BPL $CA9C                       A:80 X:00 Y:80 P:A4 SP:FB CYC:214 SL:248
CA99  4C A0 CA  JMP $CAA0                       A:80 X:00 Y:80 P:A4 SP:FB CYC:220 SL:248
CAA0  EA        NOP                             A:80 X:00 Y:80 P:A4 SP:FB CYC:229 SL:248
CAA1  C0 7F     CPY #$7F                        A:80 X:00 Y:80 P:A4 SP:FB CYC:235 SL:248
CAA3  90 07     BCC $CAAC                       A:80 X:00 Y:80 P:25 SP:FB CYC:241 SL:248
CAA5  F0 05     BEQ $CAAC                       A:80 X:00 Y:80 P:25 SP:FB CYC:247 SL:248
CAA7  30 03     BMI $CAAC                       A:80 X:00 Y:80 P:25 SP:FB CYC:253 SL:248
CAA9  4C B0 CA  JMP $CAB0                       A:80 X:00 Y:80 P:25 SP:FB CYC:259 SL:248
CAB0  EA        NOP                             A:80 X:00 Y:80 P:25 SP:FB CYC:268 SL:248
CAB1  24 01     BIT $01 = FF                    A:80 X:00 Y:80 P:25 SP:FB CYC:274 SL:248
CAB3  A2 40     LDX #$40                        A:80 X:00 Y:80 P:E5 SP:FB CYC:283 SL:248
CAB5  E0 40     CPX #$40                        A:80 X:40 Y:80 P:65 SP:FB CYC:289 SL:248
CAB7  D0 09     BNE $CAC2                       A:80 X:40 Y:80 P:67 SP:FB CYC:295 SL:248
CAB9  30 07     BMI $CAC2                       A:80 X:40 Y:80 P:67 SP:FB CYC:301 SL:248
CABB  90 05     BCC $CAC2                       A:80 X:40 Y:80 P:67 SP:FB CYC:307 SL:248
CABD  50 03     BVC $CAC2                       A:80 X:40 Y:80 P:67 SP:FB CYC:313 SL:248
CABF  4C C6 CA  JMP $CAC6                       A:80 X:40 Y:80 P:67 SP:FB CYC:319 SL:248
CAC6  EA        NOP                             A:80 X:40 Y:80 P:67 SP:FB CYC:328 SL:248
CAC7  B8        CLV                             A:80 X:40 Y:80 P:67 SP:FB CYC:334 SL:248
CAC8  E0 3F     CPX #$3F                        A:80 X:40 Y:80 P:27 SP:FB CYC:340 SL:248
CACA  F0 09     BEQ $CAD5                       A:80 X:40 Y:80 P:25 SP:FB CYC:  5 SL:249
CACC  30 07     BMI $CAD5                       A:80 X:40 Y:80 P:25 SP:FB CYC: 11 SL:249
CACE  90 05     BCC $CAD5                       A:80 X:40 Y:80 P:25 SP:FB CYC: 17 SL:249
CAD0  70 03     BVS $CAD5                       A:80 X:40 Y:80 P:25 SP:FB CYC: 23 SL:249
CAD2  4C D9 CA  JMP $CAD9                       A:80 X:40 Y:80 P:25 SP:FB CYC: 29 SL:249
CAD9  EA        NOP                             A:80 X:40 Y:80 P:25 SP:FB CYC: 38 SL:249
CADA  E0 41     CPX #$41                        A:80 X:40 Y:80 P:25 SP:FB CYC: 44 SL:249
CADC  F0 07     BEQ $CAE5                       A:80 X:40 Y:80 P:A4 SP:FB CYC: 50 SL:249
CADE  10 05     BPL $CAE5                       A:80 X:40 Y:80 P:A4 SP:FB CYC: 56 SL:249
CAE0  10 03     BPL $CAE5                       A:80 X:40 Y:80 P:A4 SP:FB CYC: 62 SL:249
CAE2  4C E9 CA  JMP $CAE9                       A:80 X:40 Y:80 P:A4 SP:FB CYC: 68 SL:249
CAE9  EA        NOP                             A:80 X:40 Y:80 P:A4 SP:FB CYC: 77 SL:249
CAEA  A2 80     LDX #$80                        A:80 X:40 Y:80 P:A4 SP:FB CYC: 83 SL:249
CAEC  E0 00     CPX #$00                        A:80 X:80 Y:80 P:A4 SP:FB CYC: 89 SL:249
CAEE  F0 07     BEQ $CAF7                       A:80 X:80 Y:80 P:A5 SP:FB CYC: 95 SL:249
CAF0  10 05     BPL $CAF7                       A:80 X:80 Y:80 P:A5 SP:FB CYC:101 SL:249
CAF2  90 03     BCC $CAF7                       A:80 X:80 Y:80 P:A5 SP:FB CYC:107 SL:249
CAF4  4C FB CA  JMP $CAFB                       A:80 X:80 Y:80 P:A5 SP:FB CYC:113 SL:249
CAFB  EA        NOP                             A:80 X:80 Y:80 P:A5 SP:FB CYC:122 SL:249
CAFC  E0 80     CPX #$80                        A:80 X:80 Y:80 P:A5 SP:FB CYC:128 SL:249
CAFE  D0 07     BNE $CB07                       A:80 X:80 Y:80 P:27 SP:FB CYC:134 SL:249
CB00  30 05     BMI $CB07                       A:80 X:80 Y:80 P:27 SP:FB CYC:140 SL:249
CB02  90 03     BCC $CB07                       A:80 X:80 Y:80 P:27 SP:FB CYC:146 SL:249
CB04  4C 0B CB  JMP $CB0B                       A:80 X:80 Y:80 P:27 SP:FB CYC:152 SL:249
CB0B  EA        NOP                             A:80 X:80 Y:80 P:27 SP:FB CYC:161 SL:249
CB0C  E0 81     CPX #$81                        A:80 X:80 Y:80 P:27 SP:FB CYC:167 SL:249
CB0E  B0 07     BCS $CB17                       A:80 X:80 Y:80 P:A4 SP:FB CYC:173 SL:249
CB10  F0 05     BEQ $CB17                       A:80 X:80 Y:80 P:A4 SP:FB CYC:179 SL:249
CB12  10 03     BPL $CB17                       A:80 X:80 Y:80 P:A4 SP:FB CYC:185 SL:249
CB14  4C 1B CB  JMP $CB1B                       A:80 X:80 Y:80 P:A4 SP:FB CYC:191 SL:249
CB1B  EA        NOP                             A:80 X:80 Y:80 P:A4 SP:FB CYC:200 SL:249
CB1C  E0 7F     CPX #$7F                        A:80 X:80 Y:80 P:A4 SP:FB CYC:206 SL:249
CB1E  90 07     BCC $CB27                       A:80 X:80 Y:80 P:25 SP:FB CYC:212 SL:249
CB20  F0 05     BEQ $CB27                       A:80 X:80 Y:80 P:25 SP:FB CYC:218 SL:249
CB22  30 03     BMI $CB27                       A:80 X:80 Y:80 P:25 SP:FB CYC:224 SL:249
CB24  4C 2B CB  JMP $CB2B                       A:80 X:80 Y:80 P:25 SP:FB CYC:230 SL:249
CB2B  EA        NOP                             A:80 X:80 Y:80 P:25 SP:FB CYC:239 SL:249
CB2C  38        SEC                             A:80 X:80 Y:80 P:25 SP:FB CYC:245 SL:249
CB2D  B8        CLV                             A:80 X:80 Y:80 P:25 SP:FB CYC:251 SL:249
CB2E  A2 9F     LDX #$9F                        A:80 X:80 Y:80 P:25 SP:FB CYC:257 SL:249
CB30  F0 09     BEQ $CB3B                       A:80 X:9F Y:80 P:A5 SP:FB CYC:263 SL:249
CB32  10 07     BPL $CB3B                       A:80 X:9F Y:80 P:A5 SP:FB CYC:269 SL:249
CB34  70 05     BVS $CB3B                       A:80 X:9F Y:80 P:A5 SP:FB CYC:275 SL:249
CB36  90 03     BCC $CB3B                       A:80 X:9F Y:80 P:A5 SP:FB CYC:281 SL:249
CB38  4C 3F CB  JMP $CB3F                       A:80 X:9F Y:80 P:A5 SP:FB CYC:287 SL:249
CB3F  EA        NOP                             A:80 X:9F Y:80 P:A5 SP:FB CYC:296 SL:249
CB40  18        CLC                             A:80 X:9F Y:80 P:A5 SP:FB CYC:302 SL:249
CB41  24 01     BIT $01 = FF                    A:80 X:9F Y:80 P:A4 SP:FB CYC:308 SL:249
CB43  A2 00     LDX #$00                        A:80 X:9F Y:80 P:E4 SP:FB CYC:317 SL:249
CB45  D0 09     BNE $CB50                       A:80 X:00 Y:80 P:66 SP:FB CYC:323 SL:249
CB47  30 07     BMI $CB50                       A:80 X:00 Y:80 P:66 SP:FB CYC:329 SL:249
CB49  50 05     BVC $CB50                       A:80 X:00 Y:80 P:66 SP:FB CYC:335 SL:249
CB4B  B0 03     BCS $CB50                       A:80 X:00 Y:80 P:66 SP:FB CYC:  0 SL:250
CB4D  4C 54 CB  JMP $CB54                       A:80 X:00 Y:80 P:66 SP:FB CYC:  6 SL:250
CB54  EA        NOP                             A:80 X:00 Y:80 P:66 SP:FB CYC: 15 SL:250
CB55  38        SEC                             A:80 X:00 Y:80 P:66 SP:FB CYC: 21 SL:250
CB56  B8        CLV                             A:80 X:00 Y:80 P:67 SP:FB CYC: 27 SL:250
CB57  A0 9F     LDY #$9F                        A:80 X:00 Y:80 P:27 SP:FB CYC: 33 SL:250
CB59  F0 09     BEQ $CB64                       A:80 X:00 Y:9F P:A5 SP:FB CYC: 39 SL:250
CB5B  10 07     BPL $CB64                       A:80 X:00 Y:9F P:A5 SP:FB CYC: 45 SL:250
CB5D  70 05     BVS $CB64                       A:80 X:00 Y:9F P:A5 SP:FB CYC: 51 SL:250
CB5F  90 03     BCC $CB64                       A:80 X:00 Y:9F P:A5 SP:FB CYC: 57 SL:250
CB61  4C 68 CB  JMP $CB68                       A:80 X:00 Y:9F P:A5 SP:FB CYC: 63 SL:250
CB68  EA        NOP                             A:80 X:00 Y:9F P:A5 SP:FB CYC: 72 SL:250
CB69  18        CLC                             A:80 X:00 Y:9F P:A5 SP:FB CYC: 78 SL:250
CB6A  24 01     BIT $01 = FF                    A:80 X:00 Y:9F P:A4 SP:FB CYC: 84 SL:250
CB6C  A0 00     LDY #$00                        A:80 X:00 Y:9F P:E4 SP:FB CYC: 93 SL:250
CB6E  D0 09     BNE $CB79                       A:80 X:00 Y:00 P:66 SP:FB CYC: 99 SL:250
CB70  30 07     BMI $CB79                       A:80 X:00 Y:00 P:66 SP:FB CYC:105 SL:250
CB72  50 05     BVC $CB79                       A:80 X:00 Y:00 P:66 SP:FB CYC:111 SL:250
CB74  B0 03     BCS $CB79                       A:80 X:00 Y:00 P:66 SP:FB CYC:117 SL:250
CB76  4C 7D CB  JMP $CB7D                       A:80 X:00 Y:00 P:66 SP:FB CYC:123 SL:250
CB7D  EA        NOP                             A:80 X:00 Y:00 P:66 SP:FB CYC:132 SL:250
CB7E  A9 55     LDA #$55                        A:80 X:00 Y:00 P:66 SP:FB CYC:138 SL:250
CB80  A2 AA     LDX #$AA                        A:55 X:00 Y:00 P:64 SP:FB CYC:144 SL:250
CB82  A0 33     LDY #$33                        A:55 X:AA Y:00 P:E4 SP:FB CYC:150 SL:250
CB84  C9 55     CMP #$55                        A:55 X:AA Y:33 P:64 SP:FB CYC:156 SL:250
CB86  D0 23     BNE $CBAB                       A:55 X:AA Y:33 P:67 SP:FB CYC:162 SL:250
CB88  E0 AA     CPX #$AA                        A:55 X:AA Y:33 P:67 SP:FB CYC:168 SL:250
CB8A  D0 1F     BNE $CBAB                       A:55 X:AA Y:33 P:67 SP:FB CYC:174 SL:250
CB8C  C0 33     CPY #$33                        A:55 X:AA Y:33 P:67 SP:FB CYC:180 SL:250
CB8E  D0 1B     BNE $CBAB                       A:55 X:AA Y:33 P:67 SP:FB CYC:186 SL:250
CB90  C9 55     CMP #$55                        A:55 X:AA Y:33 P:67 SP:FB CYC:192 SL:250
CB92  D0 17     BNE $CBAB                       A:55 X:AA Y:33 P:67 SP:FB CYC:198 SL:250
CB94  E0 AA     CPX #$AA                        A:55 X:AA Y:33 P:67 SP:FB CYC:204 SL:250
CB96  D0 13     BNE $CBAB                       A:55 X:AA Y:33 P:67 SP:FB CYC:210 SL:250
CB98  C0 33     CPY #$33                        A:55 X:AA Y:33 P:67 SP:FB CYC:216 SL:250
CB9A  D0 0F     BNE $CBAB                       A:55 X:AA Y:33 P:67 SP:FB CYC:222 SL:250
CB9C  C9 56     CMP #$56                        A:55 X:AA Y:33 P:67 SP:FB CYC:228 SL:250
CB9E  F0 0B     BEQ $CBAB                       A:55 X:AA Y:33 P:E4 SP:FB CYC:234 SL:250
CBA0  E0 AB     CPX #$AB                        A:55 X:AA Y:33 P:E4 SP:FB CYC:240 SL:250
CBA2  F0 07     BEQ $CBAB                       A:55 X:AA Y:33 P:E4 SP:FB CYC:246 SL:250
CBA4  C0 34     CPY #$34                        A:55 X:AA Y:33 P:E4 SP:FB CYC:252 SL:250
CBA6  F0 03     BEQ $CBAB                       A:55 X:AA Y:33 P:E4 SP:FB CYC:258 SL:250
CBA8  4C AF CB  JMP $CBAF                       A:55 X:AA Y:33 P:E4 SP:FB CYC:264 SL:250
CBAF  A0 71     LDY #$71                        A:55 X:AA Y:33 P:E4 SP:FB CYC:273 SL:250
CBB1  20 31 F9  JSR $F931                       A:55 X:AA Y:71 P:64 SP:FB CYC:279 SL:250
F931  24 01     BIT $01 = FF                    A:55 X:AA Y:71 P:64 SP:F9 CYC:297 SL:250
F933  A9 40     LDA #$40                        A:55 X:AA Y:71 P:E4 SP:F9 CYC:306 SL:250
F935  38        SEC                             A:40 X:AA Y:71 P:64 SP:F9 CYC:312 SL:250
F936  60        RTS                             A:40 X:AA Y:71 P:65 SP:F9 CYC:318 SL:250
CBB4  E9 40     SBC #$40                        A:40 X:AA Y:71 P:65 SP:FB CYC:336 SL:250
CBB6  20 37 F9  JSR $F937                       A:00 X:AA Y:71 P:27 SP:FB CYC:  1 SL:251
F937  30 0B     BMI $F944                       A:00 X:AA Y:71 P:27 SP:F9 CYC: 19 SL:251
F939  90 09     BCC $F944                       A:00 X:AA Y:71 P:27 SP:F9 CYC: 25 SL:251
F93B  D0 07     BNE $F944                       A:00 X:AA Y:71 P:27 SP:F9 CYC: 31 SL:251
F93D  70 05     BVS $F944                       A:00 X:AA Y:71 P:27 SP:F9 CYC: 37 SL:251
F93F  C9 00     CMP #$00                        A:00 X:AA Y:71 P:27 SP:F9 CYC: 43 SL:251
F941  D0 01     BNE $F944                       A:00 X:AA Y:71 P:27 SP:F9 CYC: 49 SL:251
F943  60        RTS                             A:00 X:AA Y:71 P:27 SP:F9 CYC: 55 SL:251
CBB9  C8        INY                             A:00 X:AA Y:71 P:27 SP:FB CYC: 73 SL:251
CBBA  20 47 F9  JSR $F947                       A:00 X:AA Y:72 P:25 SP:FB CYC: 79 SL:251
F947  B8        CLV                             A:00 X:AA Y:72 P:25 SP:F9 CYC: 97 SL:251
F948  38        SEC                             A:00 X:AA Y:72 P:25 SP:F9 CYC:103 SL:251
F949  A9 40     LDA #$40                        A:00 X:AA Y:72 P:25 SP:F9 CYC:109 SL:251
F94B  60        RTS                             A:40 X:AA Y:72 P:25 SP:F9 CYC:115 SL:251
CBBD  E9 3F     SBC #$3F                        A:40 X:AA Y:72 P:25 SP:FB CYC:133 SL:251
CBBF  20 4C F9  JSR $F94C                       A:01 X:AA Y:72 P:25 SP:FB CYC:139 SL:251
F94C  F0 0B     BEQ $F959                       A:01 X:AA Y:72 P:25 SP:F9 CYC:157 SL:251
F94E  30 09     BMI $F959                       A:01 X:AA Y:72 P:25 SP:F9 CYC:163 SL:251
F950  90 07     BCC $F959                       A:01 X:AA Y:72 P:25 SP:F9 CYC:169 SL:251
F952  70 05     BVS $F959                       A:01 X:AA Y:72 P:25 SP:F9 CYC:175 SL:251
F954  C9 01     CMP #$01                        A:01 X:AA Y:72 P:25 SP:F9 CYC:181 SL:251
F956  D0 01     BNE $F959                       A:01 X:AA Y:72 P:27 SP:F9 CYC:187 SL:251
F958  60        RTS                             A:01 X:AA Y:72 P:27 SP:F9 CYC:193 SL:251
CBC2  C8        INY                             A:01 X:AA Y:72 P:27 SP:FB CYC:211 SL:251
CBC3  20 5C F9  JSR $F95C                       A:01 X:AA Y:73 P:25 SP:FB CYC:217 SL:251
F95C  A9 40     LDA #$40                        A:01 X:AA Y:73 P:25 SP:F9 CYC:235 SL:251
F95E  38        SEC                             A:40 X:AA Y:73 P:25 SP:F9 CYC:241 SL:251
F95F  24 01     BIT $01 = FF                    A:40 X:AA Y:73 P:25 SP:F9 CYC:247 SL:251
F961  60        RTS                             A:40 X:AA Y:73 P:E5 SP:F9 CYC:256 SL:251
CBC6  E9 41     SBC #$41                        A:40 X:AA Y:73 P:E5 SP:FB CYC:274 SL:251
CBC8  20 62 F9  JSR $F962                       A:FF X:AA Y:73 P:A4 SP:FB CYC:280 SL:251
F962  B0 0B     BCS $F96F                       A:FF X:AA Y:73 P:A4 SP:F9 CYC:298 SL:251
F964  F0 09     BEQ $F96F                       A:FF X:AA Y:73 P:A4 SP:F9 CYC:304 SL:251
F966  10 07     BPL $F96F                       A:FF X:AA Y:73 P:A4 SP:F9 CYC:310 SL:251
F968  70 05     BVS $F96F                       A:FF X:AA Y:73 P:A4 SP:F9 CYC:316 SL:251
F96A  C9 FF     CMP #$FF                        A:FF X:AA Y:73 P:A4 SP:F9 CYC:322 SL:251
F96C  D0 01     BNE $F96F                       A:FF X:AA Y:73 P:27 SP:F9 CYC:328 SL:251
F96E  60        RTS                             A:FF X:AA Y:73 P:27 SP:F9 CYC:334 SL:251
CBCB  C8        INY                             A:FF X:AA Y:73 P:27 SP:FB CYC: 11 SL:252
CBCC  20 72 F9  JSR $F972                       A:FF X:AA Y:74 P:25 SP:FB CYC: 17 SL:252
F972  18        CLC                             A:FF X:AA Y:74 P:25 SP:F9 CYC: 35 SL:252
F973  A9 80     LDA #$80                        A:FF X:AA Y:74 P:24 SP:F9 CYC: 41 SL:252
F975  60        RTS                             A:80 X:AA Y:74 P:A4 SP:F9 CYC: 47 SL:252
CBCF  E9 00     SBC #$00                        A:80 X:AA Y:74 P:A4 SP:FB CYC: 65 SL:252
CBD1  20 76 F9  JSR $F976                       A:7F X:AA Y:74 P:65 SP:FB CYC: 71 SL:252
F976  90 05     BCC $F97D                       A:7F X:AA Y:74 P:65 SP:F9 CYC: 89 SL:252
F978  C9 7F     CMP #$7F                        A:7F X:AA Y:74 P:65 SP:F9 CYC: 95 SL:252
F97A  D0 01     BNE $F97D                       A:7F X:AA Y:74 P:67 SP:F9 CYC:101 SL:252
F97C  60        RTS                             A:7F X:AA Y:74 P:67 SP:F9 CYC:107 SL:252
CBD4  C8        INY                             A:7F X:AA Y:74 P:67 SP:FB CYC:125 SL:252
CBD5  20 80 F9  JSR $F980                       A:7F X:AA Y:75 P:65 SP:FB CYC:131 SL:252
F980  38        SEC                             A:7F X:AA Y:75 P:65 SP:F9 CYC:149 SL:252
F981  A9 81     LDA #$81                        A:7F X:AA Y:75 P:65 SP:F9 CYC:155 SL:252
F983  60        RTS                             A:81 X:AA Y:75 P:E5 SP:F9 CYC:161 SL:252
CBD8  E9 7F     SBC #$7F                        A:81 X:AA Y:75 P:E5 SP:FB CYC:179 SL:252
CBDA  20 84 F9  JSR $F984                       A:02 X:AA Y:75 P:65 SP:FB CYC:185 SL:252
F984  50 07     BVC $F98D                       A:02 X:AA Y:75 P:65 SP:F9 CYC:203 SL:252
F986  90 05     BCC $F98D                       A:02 X:AA Y:75 P:65 SP:F9 CYC:209 SL:252
F988  C9 02     CMP #$02                        A:02 X:AA Y:75 P:65 SP:F9 CYC:215 SL:252
F98A  D0 01     BNE $F98D                       A:02 X:AA Y:75 P:67 SP:F9 CYC:221 SL:252
F98C  60        RTS                             A:02 X:AA Y:75 P:67 SP:F9 CYC:227 SL:252
CBDD  60        RTS                             A:02 X:AA Y:75 P:67 SP:FB CYC:245 SL:252
C606  20 DE CB  JSR $CBDE                       A:02 X:AA Y:75 P:67 SP:FD CYC:263 SL:252
CBDE  EA        NOP                             A:02 X:AA Y:75 P:67 SP:FB CYC:281 SL:252
CBDF  A9 FF     LDA #$FF                        A:02 X:AA Y:75 P:67 SP:FB CYC:287 SL:252
CBE1  85 01     STA $01 = FF                    A:FF X:AA Y:75 P:E5 SP:FB CYC:293 SL:252
CBE3  A9 44     LDA #$44                        A:FF X:AA Y:75 P:E5 SP:FB CYC:302 SL:252
CBE5  A2 55     LDX #$55                        A:44 X:AA Y:75 P:65 SP:FB CYC:308 SL:252
CBE7  A0 66     LDY #$66                        A:44 X:55 Y:75 P:65 SP:FB CYC:314 SL:252
CBE9  E8        INX                             A:44 X:55 Y:66 P:65 SP:FB CYC:320 SL:252
CBEA  88        DEY                             A:44 X:56 Y:66 P:65 SP:FB CYC:326 SL:252
CBEB  E0 56     CPX #$56                        A:44 X:56 Y:65 P:65 SP:FB CYC:332 SL:252
CBED  D0 21     BNE $CC10                       A:44 X:56 Y:65 P:67 SP:FB CYC:338 SL:252
CBEF  C0 65     CPY #$65                        A:44 X:56 Y:65 P:67 SP:FB CYC:  3 SL:253
CBF1  D0 1D     BNE $CC10                       A:44 X:56 Y:65 P:67 SP:FB CYC:  9 SL:253
CBF3  E8        INX                             A:44 X:56 Y:65 P:67 SP:FB CYC: 15 SL:253
CBF4  E8        INX                             A:44 X:57 Y:65 P:65 SP:FB CYC: 21 SL:253
CBF5  88        DEY                             A:44 X:58 Y:65 P:65 SP:FB CYC: 27 SL:253
CBF6  88        DEY                             A:44 X:58 Y:64 P:65 SP:FB CYC: 33 SL:253
CBF7  E0 58     CPX #$58                        A:44 X:58 Y:63 P:65 SP:FB CYC: 39 SL:253
CBF9  D0 15     BNE $CC10                       A:44 X:58 Y:63 P:67 SP:FB CYC: 45 SL:253
CBFB  C0 63     CPY #$63                        A:44 X:58 Y:63 P:67 SP:FB CYC: 51 SL:253
CBFD  D0 11     BNE $CC10                       A:44 X:58 Y:63 P:67 SP:FB CYC: 57 SL:253
CBFF  CA        DEX                             A:44 X:58 Y:63 P:67 SP:FB CYC: 63 SL:253
CC00  C8        INY                             A:44 X:57 Y:63 P:65 SP:FB CYC: 69 SL:253
CC01  E0 57     CPX #$57                        A:44 X:57 Y:64 P:65 SP:FB CYC: 75 SL:253
CC03  D0 0B     BNE $CC10                       A:44 X:57 Y:64 P:67 SP:FB CYC: 81 SL:253
CC05  C0 64     CPY #$64                        A:44 X:57 Y:64 P:67 SP:FB CYC: 87 SL:253
CC07  D0 07     BNE $CC10                       A:44 X:57 Y:64 P:67 SP:FB CYC: 93 SL:253
CC09  C9 44     CMP #$44                        A:44 X:57 Y:64 P:67 SP:FB CYC: 99 SL:253
CC0B  D0 03     BNE $CC10                       A:44 X:57 Y:64 P:67 SP:FB CYC:105 SL:253
CC0D  4C 14 CC  JMP $CC14                       A:44 X:57 Y:64 P:67 SP:FB CYC:111 SL:253
CC14  EA        NOP                             A:44 X:57 Y:64 P:67 SP:FB CYC:120 SL:253
CC15  38        SEC                             A:44 X:57 Y:64 P:67 SP:FB CYC:126 SL:253
CC16  A2 69     LDX #$69                        A:44 X:57 Y:64 P:67 SP:FB CYC:132 SL:253
CC18  A9 96     LDA #$96                        A:44 X:69 Y:64 P:65 SP:FB CYC:138 SL:253
CC1A  24 01     BIT $01 = FF                    A:96 X:69 Y:64 P:E5 SP:FB CYC:144 SL:253
CC1C  A0 FF     LDY #$FF                        A:96 X:69 Y:64 P:E5 SP:FB CYC:153 SL:253
CC1E  C8        INY                             A:96 X:69 Y:FF P:E5 SP:FB CYC:159 SL:253
CC1F  D0 3D     BNE $CC5E                       A:96 X:69 Y:00 P:67 SP:FB CYC:165 SL:253
CC21  30 3B     BMI $CC5E                       A:96 X:69 Y:00 P:67 SP:FB CYC:171 SL:253
CC23  90 39     BCC $CC5E                       A:96 X:69 Y:00 P:67 SP:FB CYC:177 SL:253
CC25  50 37     BVC $CC5E                       A:96 X:69 Y:00 P:67 SP:FB CYC:183 SL:253
CC27  C0 00     CPY #$00                        A:96 X:69 Y:00 P:67 SP:FB CYC:189 SL:253
CC29  D0 33     BNE $CC5E                       A:96 X:69 Y:00 P:67 SP:FB CYC:195 SL:253
CC2B  C8        INY                             A:96 X:69 Y:00 P:67 SP:FB CYC:201 SL:253
CC2C  F0 30     BEQ $CC5E                       A:96 X:69 Y:01 P:65 SP:FB CYC:207 SL:253
CC2E  30 2E     BMI $CC5E                       A:96 X:69 Y:01 P:65 SP:FB CYC:213 SL:253
CC30  90 2C     BCC $CC5E                       A:96 X:69 Y:01 P:65 SP:FB CYC:219 SL:253
CC32  50 2A     BVC $CC5E                       A:96 X:69 Y:01 P:65 SP:FB CYC:225 SL:253
CC34  18        CLC                             A:96 X:69 Y:01 P:65 SP:FB CYC:231 SL:253
CC35  B8        CLV                             A:96 X:69 Y:01 P:64 SP:FB CYC:237 SL:253
CC36  A0 00     LDY #$00                        A:96 X:69 Y:01 P:24 SP:FB CYC:243 SL:253
CC38  88        DEY                             A:96 X:69 Y:00 P:26 SP:FB CYC:249 SL:253
CC39  F0 23     BEQ $CC5E                       A:96 X:69 Y:FF P:A4 SP:FB CYC:255 SL:253
CC3B  10 21     BPL $CC5E                       A:96 X:69 Y:FF P:A4 SP:FB CYC:261 SL:253
CC3D  B0 1F     BCS $CC5E                       A:96 X:69 Y:FF P:A4 SP:FB CYC:267 SL:253
CC3F  70 1D     BVS $CC5E                       A:96 X:69 Y:FF P:A4 SP:FB CYC:273 SL:253
CC41  C0 FF     CPY #$FF                        A:96 X:69 Y:FF P:A4 SP:FB CYC:279 SL:253
CC43  D0 19     BNE $CC5E                       A:96 X:69 Y:FF P:27 SP:FB CYC:285 SL:253
CC45  18        CLC                             A:96 X:69 Y:FF P:27 SP:FB CYC:291 SL:253
CC46  88        DEY                             A:96 X:69 Y:FF P:26 SP:FB CYC:297 SL:253
CC47  F0 15     BEQ $CC5E                       A:96 X:69 Y:FE P:A4 SP:FB CYC:303 SL:253
CC49  10 13     BPL $CC5E                       A:96 X:69 Y:FE P:A4 SP:FB CYC:309 SL:253
CC4B  B0 11     BCS $CC5E                       A:96 X:69 Y:FE P:A4 SP:FB CYC:315 SL:253
CC4D  70 0F     BVS $CC5E                       A:96 X:69 Y:FE P:A4 SP:FB CYC:321 SL:253
CC4F  C0 FE     CPY #$FE                        A:96 X:69 Y:FE P:A4 SP:FB CYC:327 SL:253
CC51  D0 0B     BNE $CC5E                       A:96 X:69 Y:FE P:27 SP:FB CYC:333 SL:253
CC53  C9 96     CMP #$96                        A:96 X:69 Y:FE P:27 SP:FB CYC:339 SL:253
CC55  D0 07     BNE $CC5E                       A:96 X:69 Y:FE P:27 SP:FB CYC:  4 SL:254
CC57  E0 69     CPX #$69                        A:96 X:69 Y:FE P:27 SP:FB CYC: 10 SL:254
CC59  D0 03     BNE $CC5E                       A:96 X:69 Y:FE P:27 SP:FB CYC: 16 SL:254
CC5B  4C 62 CC  JMP $CC62                       A:96 X:69 Y:FE P:27 SP:FB CYC: 22 SL:254
CC62  EA        NOP                             A:96 X:69 Y:FE P:27 SP:FB CYC: 31 SL:254
CC63  38        SEC                             A:96 X:69 Y:FE P:27 SP:FB CYC: 37 SL:254
CC64  A0 69     LDY #$69                        A:96 X:69 Y:FE P:27 SP:FB CYC: 43 SL:254
CC66  A9 96     LDA #$96                        A:96 X:69 Y:69 P:25 SP:FB CYC: 49 SL:254
CC68  24 01     BIT $01 = FF                    A:96 X:69 Y:69 P:A5 SP:FB CYC: 55 SL:254
CC6A  A2 FF     LDX #$FF                        A:96 X:69 Y:69 P:E5 SP:FB CYC: 64 SL:254
CC6C  E8        INX                             A:96 X:FF Y:69 P:E5 SP:FB CYC: 70 SL:254
CC6D  D0 3D     BNE $CCAC                       A:96 X:00 Y:69 P:67 SP:FB CYC: 76 SL:254
CC6F  30 3B     BMI $CCAC                       A:96 X:00 Y:69 P:67 SP:FB CYC: 82 SL:254
CC71  90 39     BCC $CCAC                       A:96 X:00 Y:69 P:67 SP:FB CYC: 88 SL:254
CC73  50 37     BVC $CCAC                       A:96 X:00 Y:69 P:67 SP:FB CYC: 94 SL:254
CC75  E0 00     CPX #$00                        A:96 X:00 Y:69 P:67 SP:FB CYC:100 SL:254
CC77  D0 33     BNE $CCAC                       A:96 X:00 Y:69 P:67 SP:FB CYC:106 SL:254
CC79  E8        INX                             A:96 X:00 Y:69 P:67 SP:FB CYC:112 SL:254
CC7A  F0 30     BEQ $CCAC                       A:96 X:01 Y:69 P:65 SP:FB CYC:118 SL:254
CC7C  30 2E     BMI $CCAC                       A:96 X:01 Y:69 P:65 SP:FB CYC:124 SL:254
CC7E  90 2C     BCC $CCAC                       A:96 X:01 Y:69 P:65 SP:FB CYC:130 SL:254
CC80  50 2A     BVC $CCAC                       A:96 X:01 Y:69 P:65 SP:FB CYC:136 SL:254
CC82  18        CLC                             A:96 X:01 Y:69 P:65 SP:FB CYC:142 SL:254
CC83  B8        CLV                             A:96 X:01 Y:69 P:64 SP:FB CYC:148 SL:254
CC84  A2 00     LDX #$00                        A:96 X:01 Y:69 P:24 SP:FB CYC:154 SL:254
CC86  CA        DEX                             A:96 X:00 Y:69 P:26 SP:FB CYC:160 SL:254
CC87  F0 23     BEQ $CCAC                       A:96 X:FF Y:69 P:A4 SP:FB CYC:166 SL:254
CC89  10 21     BPL $CCAC                       A:96 X:FF Y:69 P:A4 SP:FB CYC:172 SL:254
CC8B  B0 1F     BCS $CCAC                       A:96 X:FF Y:69 P:A4 SP:FB CYC:178 SL:254
CC8D  70 1D     BVS $CCAC                       A:96 X:FF Y:69 P:A4 SP:FB CYC:184 SL:254
CC8F  E0 FF     CPX #$FF                        A:96 X:FF Y:69 P:A4 SP:FB CYC:190 SL:254
CC91  D0 19     BNE $CCAC                       A:96 X:FF Y:69 P:27 SP:FB CYC:196 SL:254
CC93  18        CLC                             A:96 X:FF Y:69 P:27 SP:FB CYC:202 SL:254
CC94  CA        DEX                             A:96 X:FF Y:69 P:26 SP:FB CYC:208 SL:254
CC95  F0 15     BEQ $CCAC                       A:96 X:FE Y:69 P:A4 SP:FB CYC:214 SL:254
CC97  10 13     BPL $CCAC                       A:96 X:FE Y:69 P:A4 SP:FB CYC:220 SL:254
CC99  B0 11     BCS $CCAC                       A:96 X:FE Y:69 P:A4 SP:FB CYC:226 SL:254
CC9B  70 0F     BVS $CCAC                       A:96 X:FE Y:69 P:A4 SP:FB CYC:232 SL:254
CC9D  E0 FE     CPX #$FE                        A:96 X:FE Y:69 P:A4 SP:FB CYC:238 SL:254
CC9F  D0 0B     BNE $CCAC                       A:96 X:FE Y:69 P:27 SP:FB CYC:244 SL:254
CCA1  C9 96     CMP #$96                        A:96 X:FE Y:69 P:27 SP:FB CYC:250 SL:254
CCA3  D0 07     BNE $CCAC                       A:96 X:FE Y:69 P:27 SP:FB CYC:256 SL:254
CCA5  C0 69     CPY #$69                        A:96 X:FE Y:69 P:27 SP:FB CYC:262 SL:254
CCA7  D0 03     BNE $CCAC                       A:96 X:FE Y:69 P:27 SP:FB CYC:268 SL:254
CCA9  4C B0 CC  JMP $CCB0                       A:96 X:FE Y:69 P:27 SP:FB CYC:274 SL:254
CCB0  EA        NOP                             A:96 X:FE Y:69 P:27 SP:FB CYC:283 SL:254
CCB1  A9 85     LDA #$85                        A:96 X:FE Y:69 P:27 SP:FB CYC:289 SL:254
CCB3  A2 34     LDX #$34                        A:85 X:FE Y:69 P:A5 SP:FB CYC:295 SL:254
CCB5  A0 99     LDY #$99                        A:85 X:34 Y:69 P:25 SP:FB CYC:301 SL:254
CCB7  18        CLC                             A:85 X:34 Y:99 P:A5 SP:FB CYC:307 SL:254
CCB8  24 01     BIT $01 = FF                    A:85 X:34 Y:99 P:A4 SP:FB CYC:313 SL:254
CCBA  A8        TAY                             A:85 X:34 Y:99 P:E4 SP:FB CYC:322 SL:254
CCBB  F0 2E     BEQ $CCEB                       A:85 X:34 Y:85 P:E4 SP:FB CYC:328 SL:254
CCBD  B0 2C     BCS $CCEB                       A:85 X:34 Y:85 P:E4 SP:FB CYC:334 SL:254
CCBF  50 2A     BVC $CCEB                       A:85 X:34 Y:85 P:E4 SP:FB CYC:340 SL:254
CCC1  10 28     BPL $CCEB                       A:85 X:34 Y:85 P:E4 SP:FB CYC:  5 SL:255
CCC3  C9 85     CMP #$85                        A:85 X:34 Y:85 P:E4 SP:FB CYC: 11 SL:255
CCC5  D0 24     BNE $CCEB                       A:85 X:34 Y:85 P:67 SP:FB CYC: 17 SL:255
CCC7  E0 34     CPX #$34                        A:85 X:34 Y:85 P:67 SP:FB CYC: 23 SL:255
CCC9  D0 20     BNE $CCEB                       A:85 X:34 Y:85 P:67 SP:FB CYC: 29 SL:255
CCCB  C0 85     CPY #$85                        A:85 X:34 Y:85 P:67 SP:FB CYC: 35 SL:255
CCCD  D0 1C     BNE $CCEB                       A:85 X:34 Y:85 P:67 SP:FB CYC: 41 SL:255
CCCF  A9 00     LDA #$00                        A:85 X:34 Y:85 P:67 SP:FB CYC: 47 SL:255
CCD1  38        SEC                             A:00 X:34 Y:85 P:67 SP:FB CYC: 53 SL:255
CCD2  B8        CLV                             A:00 X:34 Y:85 P:67 SP:FB CYC: 59 SL:255
CCD3  A8        TAY                             A:00 X:34 Y:85 P:27 SP:FB CYC: 65 SL:255
CCD4  D0 15     BNE $CCEB                       A:00 X:34 Y:00 P:27 SP:FB CYC: 71 SL:255
CCD6  90 13     BCC $CCEB                       A:00 X:34 Y:00 P:27 SP:FB CYC: 77 SL:255
CCD8  70 11     BVS $CCEB                       A:00 X:34 Y:00 P:27 SP:FB CYC: 83 SL:255
CCDA  30 0F     BMI $CCEB                       A:00 X:34 Y:00 P:27 SP:FB CYC: 89 SL:255
CCDC  C9 00     CMP #$00                        A:00 X:34 Y:00 P:27 SP:FB CYC: 95 SL:255
CCDE  D0 0B     BNE $CCEB                       A:00 X:34 Y:00 P:27 SP:FB CYC:101 SL:255
CCE0  E0 34     CPX #$34                        A:00 X:34 Y:00 P:27 SP:FB CYC:107 SL:255
CCE2  D0 07     BNE $CCEB                       A:00 X:34 Y:00 P:27 SP:FB CYC:113 SL:255
CCE4  C0 00     CPY #$00                        A:00 X:34 Y:00 P:27 SP:FB CYC:119 SL:255
CCE6  D0 03     BNE $CCEB                       A:00 X:34 Y:00 P:27 SP:FB CYC:125 SL:255
CCE8  4C EF CC  JMP $CCEF                       A:00 X:34 Y:00 P:27 SP:FB CYC:131 SL:255
CCEF  EA        NOP                             A:00 X:34 Y:00 P:27 SP:FB CYC:140 SL:255
CCF0  A9 85     LDA #$85                        A:00 X:34 Y:00 P:27 SP:FB CYC:146 SL:255
CCF2  A2 34     LDX #$34                        A:85 X:34 Y:00 P:A5 SP:FB CYC:152 SL:255
CCF4  A0 99     LDY #$99                        A:85 X:34 Y:00 P:25 SP:FB CYC:158 SL:255
CCF6  18        CLC                             A:85 X:34 Y:99 P:A5 SP:FB CYC:164 SL:255
CCF7  24 01     BIT $01 = FF                    A:85 X:34 Y:99 P:A4 SP:FB CYC:170 SL:255
CCF9  AA        TAX                             A:85 X:34 Y:99 P:E4 SP:FB CYC:179 SL:255
CCFA  F0 2E     BEQ $CD2A                       A:85 X:85 Y:99 P:E4 SP:FB CYC:185 SL:255
CCFC  B0 2C     BCS $CD2A                       A:85 X:85 Y:99 P:E4 SP:FB CYC:191 SL:255
CCFE  50 2A     BVC $CD2A                       A:85 X:85 Y:99 P:E4 SP:FB CYC:197 SL:255
CD00  10 28     BPL $CD2A                       A:85 X:85 Y:99 P:E4 SP:FB CYC:203 SL:255
CD02  C9 85     CMP #$85                        A:85 X:85 Y:99 P:E4 SP:FB CYC:209 SL:255
CD04  D0 24     BNE $CD2A                       A:85 X:85 Y:99 P:67 SP:FB CYC:215 SL:255
CD06  E0 85     CPX #$85                        A:85 X:85 Y:99 P:67 SP:FB CYC:221 SL:255
CD08  D0 20     BNE $CD2A                       A:85 X:85 Y:99 P:67 SP:FB CYC:227 SL:255
CD0A  C0 99     CPY #$99                        A:85 X:85 Y:99 P:67 SP:FB CYC:233 SL:255
CD0C  D0 1C     BNE $CD2A                       A:85 X:85 Y:99 P:67 SP:FB CYC:239 SL:255
CD0E  A9 00     LDA #$00                        A:85 X:85 Y:99 P:67 SP:FB CYC:245 SL:255
CD10  38        SEC                             A:00 X:85 Y:99 P:67 SP:FB CYC:251 SL:255
CD11  B8        CLV                             A:00 X:85 Y:99 P:67 SP:FB CYC:257 SL:255
CD12  AA        TAX                             A:00 X:85 Y:99 P:27 SP:FB CYC:263 SL:255
CD13  D0 15     BNE $CD2A                       A:00 X:00 Y:99 P:27 SP:FB CYC:269 SL:255
CD15  90 13     BCC $CD2A                       A:00 X:00 Y:99 P:27 SP:FB CYC:275 SL:255
CD17  70 11     BVS $CD2A                       A:00 X:00 Y:99 P:27 SP:FB CYC:281 SL:255
CD19  30 0F     BMI $CD2A                       A:00 X:00 Y:99 P:27 SP:FB CYC:287 SL:255
CD1B  C9 00     CMP #$00                        A:00 X:00 Y:99 P:27 SP:FB CYC:293 SL:255
CD1D  D0 0B     BNE $CD2A                       A:00 X:00 Y:99 P:27 SP:FB CYC:299 SL:255
CD1F  E0 00     CPX #$00                        A:00 X:00 Y:99 P:27 SP:FB CYC:305 SL:255
CD21  D0 07     BNE $CD2A                       A:00 X:00 Y:99 P:27 SP:FB CYC:311 SL:255
CD23  C0 99     CPY #$99                        A:00 X:00 Y:99 P:27 SP:FB CYC:317 SL:255
CD25  D0 03     BNE $CD2A                       A:00 X:00 Y:99 P:27 SP:FB CYC:323 SL:255
CD27  4C 2E CD  JMP $CD2E                       A:00 X:00 Y:99 P:27 SP:FB CYC:329 SL:255
CD2E  EA        NOP                             A:00 X:00 Y:99 P:27 SP:FB CYC:338 SL:255
CD2F  A9 85     LDA #$85                        A:00 X:00 Y:99 P:27 SP:FB CYC:  3 SL:256
CD31  A2 34     LDX #$34                        A:85 X:00 Y:99 P:A5 SP:FB CYC:  9 SL:256
CD33  A0 99     LDY #$99                        A:85 X:34 Y:99 P:25 SP:FB CYC: 15 SL:256
CD35  18        CLC                             A:85 X:34 Y:99 P:A5 SP:FB CYC: 21 SL:256
CD36  24 01     BIT $01 = FF                    A:85 X:34 Y:99 P:A4 SP:FB CYC: 27 SL:256
CD38  98        TYA                             A:85 X:34 Y:99 P:E4 SP:FB CYC: 36 SL:256
CD39  F0 2E     BEQ $CD69                       A:99 X:34 Y:99 P:E4 SP:FB CYC: 42 SL:256
CD3B  B0 2C     BCS $CD69                       A:99 X:34 Y:99 P:E4 SP:FB CYC: 48 SL:256
CD3D  50 2A     BVC $CD69                       A:99 X:34 Y:99 P:E4 SP:FB CYC: 54 SL:256
CD3F  10 28     BPL $CD69                       A:99 X:34 Y:99 P:E4 SP:FB CYC: 60 SL:256
CD41  C9 99     CMP #$99                        A:99 X:34 Y:99 P:E4 SP:FB CYC: 66 SL:256
CD43  D0 24     BNE $CD69                       A:99 X:34 Y:99 P:67 SP:FB CYC: 72 SL:256
CD45  E0 34     CPX #$34                        A:99 X:34 Y:99 P:67 SP:FB CYC: 78 SL:256
CD47  D0 20     BNE $CD69                       A:99 X:34 Y:99 P:67 SP:FB CYC: 84 SL:256
CD49  C0 99     CPY #$99                        A:99 X:34 Y:99 P:67 SP:FB CYC: 90 SL:256
CD4B  D0 1C     BNE $CD69                       A:99 X:34 Y:99 P:67 SP:FB CYC: 96 SL:256
CD4D  A0 00     LDY #$00                        A:99 X:34 Y:99 P:67 SP:FB CYC:102 SL:256
CD4F  38        SEC                             A:99 X:34 Y:00 P:67 SP:FB CYC:108 SL:256
CD50  B8        CLV                             A:99 X:34 Y:00 P:67 SP:FB CYC:114 SL:256
CD51  98        TYA                             A:99 X:34 Y:00 P:27 SP:FB CYC:120 SL:256
CD52  D0 15     BNE $CD69                       A:00 X:34 Y:00 P:27 SP:FB CYC:126 SL:256
CD54  90 13     BCC $CD69                       A:00 X:34 Y:00 P:27 SP:FB CYC:132 SL:256
CD56  70 11     BVS $CD69                       A:00 X:34 Y:00 P:27 SP:FB CYC:138 SL:256
CD58  30 0F     BMI $CD69                       A:00 X:34 Y:00 P:27 SP:FB CYC:144 SL:256
CD5A  C9 00     CMP #$00                        A:00 X:34 Y:00 P:27 SP:FB CYC:150 SL:256
CD5C  D0 0B     BNE $CD69                       A:00 X:34 Y:00 P:27 SP:FB CYC:156 SL:256
CD5E  E0 34     CPX #$34                        A:00 X:34 Y:00 P:27 SP:FB CYC:162 SL:256
CD60  D0 07     BNE $CD69                       A:00 X:34 Y:00 P:27 SP:FB CYC:168 SL:256
CD62  C0 00     CPY #$00                        A:00 X:34 Y:00 P:27 SP:FB CYC:174 SL:256
CD64  D0 03     BNE $CD69                       A:00 X:34 Y:00 P:27 SP:FB CYC:180 SL:256
CD66  4C 6D CD  JMP $CD6D                       A:00 X:34 Y:00 P:27 SP:FB CYC:186 SL:256
CD6D  EA        NOP                             A:00 X:34 Y:00 P:27 SP:FB CYC:195 SL:256
CD6E  A9 85     LDA #$85                        A:00 X:34 Y:00 P:27 SP:FB CYC:201 SL:256
CD70  A2 34     LDX #$34                        A:85 X:34 Y:00 P:A5 SP:FB CYC:207 SL:256
CD72  A0 99     LDY #$99                        A:85 X:34 Y:00 P:25 SP:FB CYC:213 SL:256
CD74  18        CLC                             A:85 X:34 Y:99 P:A5 SP:FB CYC:219 SL:256
CD75  24 01     BIT $01 = FF                    A:85 X:34 Y:99 P:A4 SP:FB CYC:225 SL:256
CD77  8A        TXA                             A:85 X:34 Y:99 P:E4 SP:FB CYC:234 SL:256
CD78  F0 2E     BEQ $CDA8                       A:34 X:34 Y:99 P:64 SP:FB CYC:240 SL:256
CD7A  B0 2C     BCS $CDA8                       A:34 X:34 Y:99 P:64 SP:FB CYC:246 SL:256
CD7C  50 2A     BVC $CDA8                       A:34 X:34 Y:99 P:64 SP:FB CYC:252 SL:256
CD7E  30 28     BMI $CDA8                       A:34 X:34 Y:99 P:64 SP:FB CYC:258 SL:256
CD80  C9 34     CMP #$34                        A:34 X:34 Y:99 P:64 SP:FB CYC:264 SL:256
CD82  D0 24     BNE $CDA8                       A:34 X:34 Y:99 P:67 SP:FB CYC:270 SL:256
CD84  E0 34     CPX #$34                        A:34 X:34 Y:99 P:67 SP:FB CYC:276 SL:256
CD86  D0 20     BNE $CDA8                       A:34 X:34 Y:99 P:67 SP:FB CYC:282 SL:256
CD88  C0 99     CPY #$99                        A:34 X:34 Y:99 P:67 SP:FB CYC:288 SL:256
CD8A  D0 1C     BNE $CDA8                       A:34 X:34 Y:99 P:67 SP:FB CYC:294 SL:256
CD8C  A2 00     LDX #$00                        A:34 X:34 Y:99 P:67 SP:FB CYC:300 SL:256
CD8E  38        SEC                             A:34 X:00 Y:99 P:67 SP:FB CYC:306 SL:256
CD8F  B8        CLV                             A:34 X:00 Y:99 P:67 SP:FB CYC:312 SL:256
CD90  8A        TXA                             A:34 X:00 Y:99 P:27 SP:FB CYC:318 SL:256
CD91  D0 15     BNE $CDA8                       A:00 X:00 Y:99 P:27 SP:FB CYC:324 SL:256
CD93  90 13     BCC $CDA8                       A:00 X:00 Y:99 P:27 SP:FB CYC:330 SL:256
CD95  70 11     BVS $CDA8                       A:00 X:00 Y:99 P:27 SP:FB CYC:336 SL:256
CD97  30 0F     BMI $CDA8                       A:00 X:00 Y:99 P:27 SP:FB CYC:  1 SL:257
CD99  C9 00     CMP #$00                        A:00 X:00 Y:99 P:27 SP:FB CYC:  7 SL:257
CD9B  D0 0B     BNE $CDA8                       A:00 X:00 Y:99 P:27 SP:FB CYC: 13 SL:257
CD9D  E0 00     CPX #$00                        A:00 X:00 Y:99 P:27 SP:FB CYC: 19 SL:257
CD9F  D0 07     BNE $CDA8                       A:00 X:00 Y:99 P:27 SP:FB CYC: 25 SL:257
CDA1  C0 99     CPY #$99                        A:00 X:00 Y:99 P:27 SP:FB CYC: 31 SL:257
CDA3  D0 03     BNE $CDA8                       A:00 X:00 Y:99 P:27 SP:FB CYC: 37 SL:257
CDA5  4C AC CD  JMP $CDAC                       A:00 X:00 Y:99 P:27 SP:FB CYC: 43 SL:257
CDAC  EA        NOP                             A:00 X:00 Y:99 P:27 SP:FB CYC: 52 SL:257
CDAD  BA        TSX                             A:00 X:00 Y:99 P:27 SP:FB CYC: 58 SL:257
CDAE  8E FF 07  STX $07FF = 00                  A:00 X:FB Y:99 P:A5 SP:FB CYC: 64 SL:257
CDB1  A0 33     LDY #$33                        A:00 X:FB Y:99 P:A5 SP:FB CYC: 76 SL:257
CDB3  A2 69     LDX #$69                        A:00 X:FB Y:33 P:25 SP:FB CYC: 82 SL:257
CDB5  A9 84     LDA #$84                        A:00 X:69 Y:33 P:25 SP:FB CYC: 88 SL:257
CDB7  18        CLC                             A:84 X:69 Y:33 P:A5 SP:FB CYC: 94 SL:257
CDB8  24 01     BIT $01 = FF                    A:84 X:69 Y:33 P:A4 SP:FB CYC:100 SL:257
CDBA  9A        TXS                             A:84 X:69 Y:33 P:E4 SP:FB CYC:109 SL:257
CDBB  F0 32     BEQ $CDEF                       A:84 X:69 Y:33 P:E4 SP:69 CYC:115 SL:257
CDBD  10 30     BPL $CDEF                       A:84 X:69 Y:33 P:E4 SP:69 CYC:121 SL:257
CDBF  B0 2E     BCS $CDEF                       A:84 X:69 Y:33 P:E4 SP:69 CYC:127 SL:257
CDC1  50 2C     BVC $CDEF                       A:84 X:69 Y:33 P:E4 SP:69 CYC:133 SL:257
CDC3  C9 84     CMP #$84                        A:84 X:69 Y:33 P:E4 SP:69 CYC:139 SL:257
CDC5  D0 28     BNE $CDEF                       A:84 X:69 Y:33 P:67 SP:69 CYC:145 SL:257
CDC7  E0 69     CPX #$69                        A:84 X:69 Y:33 P:67 SP:69 CYC:151 SL:257
CDC9  D0 24     BNE $CDEF                       A:84 X:69 Y:33 P:67 SP:69 CYC:157 SL:257
CDCB  C0 33     CPY #$33                        A:84 X:69 Y:33 P:67 SP:69 CYC:163 SL:257
CDCD  D0 20     BNE $CDEF                       A:84 X:69 Y:33 P:67 SP:69 CYC:169 SL:257
CDCF  A0 01     LDY #$01                        A:84 X:69 Y:33 P:67 SP:69 CYC:175 SL:257
CDD1  A9 04     LDA #$04                        A:84 X:69 Y:01 P:65 SP:69 CYC:181 SL:257
CDD3  38        SEC                             A:04 X:69 Y:01 P:65 SP:69 CYC:187 SL:257
CDD4  B8        CLV                             A:04 X:69 Y:01 P:65 SP:69 CYC:193 SL:257
CDD5  A2 00     LDX #$00                        A:04 X:69 Y:01 P:25 SP:69 CYC:199 SL:257
CDD7  BA        TSX                             A:04 X:00 Y:01 P:27 SP:69 CYC:205 SL:257
CDD8  F0 15     BEQ $CDEF                       A:04 X:69 Y:01 P:25 SP:69 CYC:211 SL:257
CDDA  30 13     BMI $CDEF                       A:04 X:69 Y:01 P:25 SP:69 CYC:217 SL:257
CDDC  90 11     BCC $CDEF                       A:04 X:69 Y:01 P:25 SP:69 CYC:223 SL:257
CDDE  70 0F     BVS $CDEF                       A:04 X:69 Y:01 P:25 SP:69 CYC:229 SL:257
CDE0  E0 69     CPX #$69                        A:04 X:69 Y:01 P:25 SP:69 CYC:235 SL:257
CDE2  D0 0B     BNE $CDEF                       A:04 X:69 Y:01 P:27 SP:69 CYC:241 SL:257
CDE4  C9 04     CMP #$04                        A:04 X:69 Y:01 P:27 SP:69 CYC:247 SL:257
CDE6  D0 07     BNE $CDEF                       A:04 X:69 Y:01 P:27 SP:69 CYC:253 SL:257
CDE8  C0 01     CPY #$01                        A:04 X:69 Y:01 P:27 SP:69 CYC:259 SL:257
CDEA  D0 03     BNE $CDEF                       A:04 X:69 Y:01 P:27 SP:69 CYC:265 SL:257
CDEC  4C F3 CD  JMP $CDF3                       A:04 X:69 Y:01 P:27 SP:69 CYC:271 SL:257
CDF3  AE FF 07  LDX $07FF = FB                  A:04 X:69 Y:01 P:27 SP:69 CYC:280 SL:257
CDF6  9A        TXS                             A:04 X:FB Y:01 P:A5 SP:69 CYC:292 SL:257
CDF7  60        RTS                             A:04 X:FB Y:01 P:A5 SP:FB CYC:298 SL:257
C609  20 F8 CD  JSR $CDF8                       A:04 X:FB Y:01 P:A5 SP:FD CYC:316 SL:257
CDF8  A9 FF     LDA #$FF                        A:04 X:FB Y:01 P:A5 SP:FB CYC:334 SL:257
CDFA  85 01     STA $01 = FF                    A:FF X:FB Y:01 P:A5 SP:FB CYC:340 SL:257
CDFC  BA        TSX                             A:FF X:FB Y:01 P:A5 SP:FB CYC:  8 SL:258
CDFD  8E FF 07  STX $07FF = FB                  A:FF X:FB Y:01 P:A5 SP:FB CYC: 14 SL:258
CE00  EA        NOP                             A:FF X:FB Y:01 P:A5 SP:FB CYC: 26 SL:258
CE01  A2 80     LDX #$80                        A:FF X:FB Y:01 P:A5 SP:FB CYC: 32 SL:258
CE03  9A        TXS                             A:FF X:80 Y:01 P:A5 SP:FB CYC: 38 SL:258
CE04  A9 33     LDA #$33                        A:FF X:80 Y:01 P:A5 SP:80 CYC: 44 SL:258
CE06  48        PHA                             A:33 X:80 Y:01 P:25 SP:80 CYC: 50 SL:258
CE07  A9 69     LDA #$69                        A:33 X:80 Y:01 P:25 SP:7F CYC: 59 SL:258
CE09  48        PHA                             A:69 X:80 Y:01 P:25 SP:7F CYC: 65 SL:258
CE0A  BA        TSX                             A:69 X:80 Y:01 P:25 SP:7E CYC: 74 SL:258
CE0B  E0 7E     CPX #$7E                        A:69 X:7E Y:01 P:25 SP:7E CYC: 80 SL:258
CE0D  D0 20     BNE $CE2F                       A:69 X:7E Y:01 P:27 SP:7E CYC: 86 SL:258
CE0F  68        PLA                             A:69 X:7E Y:01 P:27 SP:7E CYC: 92 SL:258
CE10  C9 69     CMP #$69                        A:69 X:7E Y:01 P:25 SP:7F CYC:104 SL:258
CE12  D0 1B     BNE $CE2F                       A:69 X:7E Y:01 P:27 SP:7F CYC:110 SL:258
CE14  68        PLA                             A:69 X:7E Y:01 P:27 SP:7F CYC:116 SL:258
CE15  C9 33     CMP #$33                        A:33 X:7E Y:01 P:25 SP:80 CYC:128 SL:258
CE17  D0 16     BNE $CE2F                       A:33 X:7E Y:01 P:27 SP:80 CYC:134 SL:258
CE19  BA        TSX                             A:33 X:7E Y:01 P:27 SP:80 CYC:140 SL:258
CE1A  E0 80     CPX #$80                        A:33 X:80 Y:01 P:A5 SP:80 CYC:146 SL:258
CE1C  D0 11     BNE $CE2F                       A:33 X:80 Y:01 P:27 SP:80 CYC:152 SL:258
CE1E  AD 80 01  LDA $0180 = 33                  A:33 X:80 Y:01 P:27 SP:80 CYC:158 SL:258
CE21  C9 33     CMP #$33                        A:33 X:80 Y:01 P:25 SP:80 CYC:170 SL:258
CE23  D0 0A     BNE $CE2F                       A:33 X:80 Y:01 P:27 SP:80 CYC:176 SL:258
CE25  AD 7F 01  LDA $017F = 69                  A:33 X:80 Y:01 P:27 SP:80 CYC:182 SL:258
CE28  C9 69     CMP #$69                        A:69 X:80 Y:01 P:25 SP:80 CYC:194 SL:258
CE2A  D0 03     BNE $CE2F                       A:69 X:80 Y:01 P:27 SP:80 CYC:200 SL:258
CE2C  4C 33 CE  JMP $CE33                       A:69 X:80 Y:01 P:27 SP:80 CYC:206 SL:258
CE33  EA        NOP                             A:69 X:80 Y:01 P:27 SP:80 CYC:215 SL:258
CE34  A2 80     LDX #$80                        A:69 X:80 Y:01 P:27 SP:80 CYC:221 SL:258
CE36  9A        TXS                             A:69 X:80 Y:01 P:A5 SP:80 CYC:227 SL:258
CE37  20 3D CE  JSR $CE3D                       A:69 X:80 Y:01 P:A5 SP:80 CYC:233 SL:258
CE3D  BA        TSX                             A:69 X:80 Y:01 P:A5 SP:7E CYC:251 SL:258
CE3E  E0 7E     CPX #$7E                        A:69 X:7E Y:01 P:25 SP:7E CYC:257 SL:258
CE40  D0 19     BNE $CE5B                       A:69 X:7E Y:01 P:27 SP:7E CYC:263 SL:258
CE42  68        PLA                             A:69 X:7E Y:01 P:27 SP:7E CYC:269 SL:258
CE43  68        PLA                             A:39 X:7E Y:01 P:25 SP:7F CYC:281 SL:258
CE44  BA        TSX                             A:CE X:7E Y:01 P:A5 SP:80 CYC:293 SL:258
CE45  E0 80     CPX #$80                        A:CE X:80 Y:01 P:A5 SP:80 CYC:299 SL:258
CE47  D0 12     BNE $CE5B                       A:CE X:80 Y:01 P:27 SP:80 CYC:305 SL:258
CE49  A9 00     LDA #$00                        A:CE X:80 Y:01 P:27 SP:80 CYC:311 SL:258
CE4B  20 4E CE  JSR $CE4E                       A:00 X:80 Y:01 P:27 SP:80 CYC:317 SL:258
CE4E  68        PLA                             A:00 X:80 Y:01 P:27 SP:7E CYC:335 SL:258
CE4F  C9 4D     CMP #$4D                        A:4D X:80 Y:01 P:25 SP:7F CYC:  6 SL:259
CE51  D0 08     BNE $CE5B                       A:4D X:80 Y:01 P:27 SP:7F CYC: 12 SL:259
CE53  68        PLA                             A:4D X:80 Y:01 P:27 SP:7F CYC: 18 SL:259
CE54  C9 CE     CMP #$CE                        A:CE X:80 Y:01 P:A5 SP:80 CYC: 30 SL:259
CE56  D0 03     BNE $CE5B                       A:CE X:80 Y:01 P:27 SP:80 CYC: 36 SL:259
CE58  4C 5F CE  JMP $CE5F                       A:CE X:80 Y:01 P:27 SP:80 CYC: 42 SL:259
CE5F  EA        NOP                             A:CE X:80 Y:01 P:27 SP:80 CYC: 51 SL:259
CE60  A9 CE     LDA #$CE                        A:CE X:80 Y:01 P:27 SP:80 CYC: 57 SL:259
CE62  48        PHA                             A:CE X:80 Y:01 P:A5 SP:80 CYC: 63 SL:259
CE63  A9 66     LDA #$66                        A:CE X:80 Y:01 P:A5 SP:7F CYC: 72 SL:259
CE65  48        PHA                             A:66 X:80 Y:01 P:25 SP:7F CYC: 78 SL:259
CE66  60        RTS                             A:66 X:80 Y:01 P:25 SP:7E CYC: 87 SL:259
CE67  A2 77     LDX #$77                        A:66 X:80 Y:01 P:25 SP:80 CYC:105 SL:259
CE69  A0 69     LDY #$69                        A:66 X:77 Y:01 P:25 SP:80 CYC:111 SL:259
CE6B  18        CLC                             A:66 X:77 Y:69 P:25 SP:80 CYC:117 SL:259
CE6C  24 01     BIT $01 = FF                    A:66 X:77 Y:69 P:24 SP:80 CYC:123 SL:259
CE6E  A9 83     LDA #$83                        A:66 X:77 Y:69 P:E4 SP:80 CYC:132 SL:259
CE70  20 66 CE  JSR $CE66                       A:83 X:77 Y:69 P:E4 SP:80 CYC:138 SL:259
CE66  60        RTS                             A:83 X:77 Y:69 P:E4 SP:7E CYC:156 SL:259
CE73  F0 24     BEQ $CE99                       A:83 X:77 Y:69 P:E4 SP:80 CYC:174 SL:259
CE75  10 22     BPL $CE99                       A:83 X:77 Y:69 P:E4 SP:80 CYC:180 SL:259
CE77  B0 20     BCS $CE99                       A:83 X:77 Y:69 P:E4 SP:80 CYC:186 SL:259
CE79  50 1E     BVC $CE99                       A:83 X:77 Y:69 P:E4 SP:80 CYC:192 SL:259
CE7B  C9 83     CMP #$83                        A:83 X:77 Y:69 P:E4 SP:80 CYC:198 SL:259
CE7D  D0 1A     BNE $CE99                       A:83 X:77 Y:69 P:67 SP:80 CYC:204 SL:259
CE7F  C0 69     CPY #$69                        A:83 X:77 Y:69 P:67 SP:80 CYC:210 SL:259
CE81  D0 16     BNE $CE99                       A:83 X:77 Y:69 P:67 SP:80 CYC:216 SL:259
CE83  E0 77     CPX #$77                        A:83 X:77 Y:69 P:67 SP:80 CYC:222 SL:259
CE85  D0 12     BNE $CE99                       A:83 X:77 Y:69 P:67 SP:80 CYC:228 SL:259
CE87  38        SEC                             A:83 X:77 Y:69 P:67 SP:80 CYC:234 SL:259
CE88  B8        CLV                             A:83 X:77 Y:69 P:67 SP:80 CYC:240 SL:259
CE89  A9 00     LDA #$00                        A:83 X:77 Y:69 P:27 SP:80 CYC:246 SL:259
CE8B  20 66 CE  JSR $CE66                       A:00 X:77 Y:69 P:27 SP:80 CYC:252 SL:259
CE66  60        RTS                             A:00 X:77 Y:69 P:27 SP:7E CYC:270 SL:259
CE8E  D0 09     BNE $CE99                       A:00 X:77 Y:69 P:27 SP:80 CYC:288 SL:259
CE90  30 07     BMI $CE99                       A:00 X:77 Y:69 P:27 SP:80 CYC:294 SL:259
CE92  90 05     BCC $CE99                       A:00 X:77 Y:69 P:27 SP:80 CYC:300 SL:259
CE94  70 03     BVS $CE99                       A:00 X:77 Y:69 P:27 SP:80 CYC:306 SL:259
CE96  4C 9D CE  JMP $CE9D                       A:00 X:77 Y:69 P:27 SP:80 CYC:312 SL:259
CE9D  EA        NOP                             A:00 X:77 Y:69 P:27 SP:80 CYC:321 SL:259
CE9E  A9 CE     LDA #$CE                        A:00 X:77 Y:69 P:27 SP:80 CYC:327 SL:259
CEA0  48        PHA                             A:CE X:77 Y:69 P:A5 SP:80 CYC:333 SL:259
CEA1  A9 AE     LDA #$AE                        A:CE X:77 Y:69 P:A5 SP:7F CYC:  1 SL:260
CEA3  48        PHA                             A:AE X:77 Y:69 P:A5 SP:7F CYC:  7 SL:260
CEA4  A9 65     LDA #$65                        A:AE X:77 Y:69 P:A5 SP:7E CYC: 16 SL:260
CEA6  48        PHA                             A:65 X:77 Y:69 P:25 SP:7E CYC: 22 SL:260
CEA7  A9 55     LDA #$55                        A:65 X:77 Y:69 P:25 SP:7D CYC: 31 SL:260
CEA9  A0 88     LDY #$88                        A:55 X:77 Y:69 P:25 SP:7D CYC: 37 SL:260
CEAB  A2 99     LDX #$99                        A:55 X:77 Y:88 P:A5 SP:7D CYC: 43 SL:260
CEAD  40        RTI                             A:55 X:99 Y:88 P:A5 SP:7D CYC: 49 SL:260
CEAE  30 35     BMI $CEE5                       A:55 X:99 Y:88 P:65 SP:80 CYC: 67 SL:260
CEB0  50 33     BVC $CEE5                       A:55 X:99 Y:88 P:65 SP:80 CYC: 73 SL:260
CEB2  F0 31     BEQ $CEE5                       A:55 X:99 Y:88 P:65 SP:80 CYC: 79 SL:260
CEB4  90 2F     BCC $CEE5                       A:55 X:99 Y:88 P:65 SP:80 CYC: 85 SL:260
CEB6  C9 55     CMP #$55                        A:55 X:99 Y:88 P:65 SP:80 CYC: 91 SL:260
CEB8  D0 2B     BNE $CEE5                       A:55 X:99 Y:88 P:67 SP:80 CYC: 97 SL:260
CEBA  C0 88     CPY #$88                        A:55 X:99 Y:88 P:67 SP:80 CYC:103 SL:260
CEBC  D0 27     BNE $CEE5                       A:55 X:99 Y:88 P:67 SP:80 CYC:109 SL:260
CEBE  E0 99     CPX #$99                        A:55 X:99 Y:88 P:67 SP:80 CYC:115 SL:260
CEC0  D0 23     BNE $CEE5                       A:55 X:99 Y:88 P:67 SP:80 CYC:121 SL:260
CEC2  A9 CE     LDA #$CE                        A:55 X:99 Y:88 P:67 SP:80 CYC:127 SL:260
CEC4  48        PHA                             A:CE X:99 Y:88 P:E5 SP:80 CYC:133 SL:260
CEC5  A9 CE     LDA #$CE                        A:CE X:99 Y:88 P:E5 SP:7F CYC:142 SL:260
CEC7  48        PHA                             A:CE X:99 Y:88 P:E5 SP:7F CYC:148 SL:260
CEC8  A9 87     LDA #$87                        A:CE X:99 Y:88 P:E5 SP:7E CYC:157 SL:260
CECA  48        PHA                             A:87 X:99 Y:88 P:E5 SP:7E CYC:163 SL:260
CECB  A9 55     LDA #$55                        A:87 X:99 Y:88 P:E5 SP:7D CYC:172 SL:260
CECD  40        RTI                             A:55 X:99 Y:88 P:65 SP:7D CYC:178 SL:260
CECE  10 15     BPL $CEE5                       A:55 X:99 Y:88 P:A7 SP:80 CYC:196 SL:260
CED0  70 13     BVS $CEE5                       A:55 X:99 Y:88 P:A7 SP:80 CYC:202 SL:260
CED2  D0 11     BNE $CEE5                       A:55 X:99 Y:88 P:A7 SP:80 CYC:208 SL:260
CED4  90 0F     BCC $CEE5                       A:55 X:99 Y:88 P:A7 SP:80 CYC:214 SL:260
CED6  C9 55     CMP #$55                        A:55 X:99 Y:88 P:A7 SP:80 CYC:220 SL:260
CED8  D0 0B     BNE $CEE5                       A:55 X:99 Y:88 P:27 SP:80 CYC:226 SL:260
CEDA  C0 88     CPY #$88                        A:55 X:99 Y:88 P:27 SP:80 CYC:232 SL:260
CEDC  D0 07     BNE $CEE5                       A:55 X:99 Y:88 P:27 SP:80 CYC:238 SL:260
CEDE  E0 99     CPX #$99                        A:55 X:99 Y:88 P:27 SP:80 CYC:244 SL:260
CEE0  D0 03     BNE $CEE5                       A:55 X:99 Y:88 P:27 SP:80 CYC:250 SL:260
CEE2  4C E9 CE  JMP $CEE9                       A:55 X:99 Y:88 P:27 SP:80 CYC:256 SL:260
CEE9  AE FF 07  LDX $07FF = FB                  A:55 X:99 Y:88 P:27 SP:80 CYC:265 SL:260
CEEC  9A        TXS                             A:55 X:FB Y:88 P:A5 SP:80 CYC:277 SL:260
CEED  60        RTS                             A:55 X:FB Y:88 P:A5 SP:FB CYC:283 SL:260
C60C  20 EE CE  JSR $CEEE                       A:55 X:FB Y:88 P:A5 SP:FD CYC:301 SL:260
CEEE  A2 55     LDX #$55                        A:55 X:FB Y:88 P:A5 SP:FB CYC:319 SL:260
CEF0  A0 69     LDY #$69                        A:55 X:55 Y:88 P:25 SP:FB CYC:325 SL:260
CEF2  A9 FF     LDA #$FF                        A:55 X:55 Y:69 P:25 SP:FB CYC:331 SL:260
CEF4  85 01     STA $01 = FF                    A:FF X:55 Y:69 P:A5 SP:FB CYC:337 SL:260
CEF6  EA        NOP                             A:FF X:55 Y:69 P:A5 SP:FB CYC:  5 SL:-1
CEF7  24 01     BIT $01 = FF                    A:FF X:55 Y:69 P:A5 SP:FB CYC: 11 SL:-1
CEF9  38        SEC                             A:FF X:55 Y:69 P:E5 SP:FB CYC: 20 SL:-1
CEFA  A9 01     LDA #$01                        A:FF X:55 Y:69 P:E5 SP:FB CYC: 26 SL:-1
CEFC  4A        LSR A                           A:01 X:55 Y:69 P:65 SP:FB CYC: 32 SL:-1
CEFD  90 1D     BCC $CF1C                       A:00 X:55 Y:69 P:67 SP:FB CYC: 38 SL:-1
CEFF  D0 1B     BNE $CF1C                       A:00 X:55 Y:69 P:67 SP:FB CYC: 44 SL:-1
CF01  30 19     BMI $CF1C                       A:00 X:55 Y:69 P:67 SP:FB CYC: 50 SL:-1
CF03  50 17     BVC $CF1C                       A:00 X:55 Y:69 P:67 SP:FB CYC: 56 SL:-1
CF05  C9 00     CMP #$00                        A:00 X:55 Y:69 P:67 SP:FB CYC: 62 SL:-1
CF07  D0 13     BNE $CF1C                       A:00 X:55 Y:69 P:67 SP:FB CYC: 68 SL:-1
CF09  B8        CLV                             A:00 X:55 Y:69 P:67 SP:FB CYC: 74 SL:-1
CF0A  A9 AA     LDA #$AA                        A:00 X:55 Y:69 P:27 SP:FB CYC: 80 SL:-1
CF0C  4A        LSR A                           A:AA X:55 Y:69 P:A5 SP:FB CYC: 86 SL:-1
CF0D  B0 0D     BCS $CF1C                       A:55 X:55 Y:69 P:24 SP:FB CYC: 92 SL:-1
CF0F  F0 0B     BEQ $CF1C                       A:55 X:55 Y:69 P:24 SP:FB CYC: 98 SL:-1
CF11  30 09     BMI $CF1C                       A:55 X:55 Y:69 P:24 SP:FB CYC:104 SL:-1
CF13  70 07     BVS $CF1C                       A:55 X:55 Y:69 P:24 SP:FB CYC:110 SL:-1
CF15  C9 55     CMP #$55                        A:55 X:55 Y:69 P:24 SP:FB CYC:116 SL:-1
CF17  D0 03     BNE $CF1C                       A:55 X:55 Y:69 P:27 SP:FB CYC:122 SL:-1
CF19  4C 20 CF  JMP $CF20                       A:55 X:55 Y:69 P:27 SP:FB CYC:128 SL:-1
CF20  EA        NOP                             A:55 X:55 Y:69 P:27 SP:FB CYC:137 SL:-1
CF21  24 01     BIT $01 = FF                    A:55 X:55 Y:69 P:27 SP:FB CYC:143 SL:-1
CF23  38        SEC                             A:55 X:55 Y:69 P:E5 SP:FB CYC:152 SL:-1
CF24  A9 80     LDA #$80                        A:55 X:55 Y:69 P:E5 SP:FB CYC:158 SL:-1
CF26  0A        ASL A                           A:80 X:55 Y:69 P:E5 SP:FB CYC:164 SL:-1
CF27  90 1E     BCC $CF47                       A:00 X:55 Y:69 P:67 SP:FB CYC:170 SL:-1
CF29  D0 1C     BNE $CF47                       A:00 X:55 Y:69 P:67 SP:FB CYC:176 SL:-1
CF2B  30 1A     BMI $CF47                       A:00 X:55 Y:69 P:67 SP:FB CYC:182 SL:-1
CF2D  50 18     BVC $CF47                       A:00 X:55 Y:69 P:67 SP:FB CYC:188 SL:-1
CF2F  C9 00     CMP #$00                        A:00 X:55 Y:69 P:67 SP:FB CYC:194 SL:-1
CF31  D0 14     BNE $CF47                       A:00 X:55 Y:69 P:67 SP:FB CYC:200 SL:-1
CF33  B8        CLV                             A:00 X:55 Y:69 P:67 SP:FB CYC:206 SL:-1
CF34  38        SEC                             A:00 X:55 Y:69 P:27 SP:FB CYC:212 SL:-1
CF35  A9 55     LDA #$55                        A:00 X:55 Y:69 P:27 SP:FB CYC:218 SL:-1
CF37  0A        ASL A                           A:55 X:55 Y:69 P:25 SP:FB CYC:224 SL:-1
CF38  B0 0D     BCS $CF47                       A:AA X:55 Y:69 P:A4 SP:FB CYC:230 SL:-1
CF3A  F0 0B     BEQ $CF47                       A:AA X:55 Y:69 P:A4 SP:FB CYC:236 SL:-1
CF3C  10 09     BPL $CF47                       A:AA X:55 Y:69 P:A4 SP:FB CYC:242 SL:-1
CF3E  70 07     BVS $CF47                       A:AA X:55 Y:69 P:A4 SP:FB CYC:248 SL:-1
CF40  C9 AA     CMP #$AA                        A:AA X:55 Y:69 P:A4 SP:FB CYC:254 SL:-1
CF42  D0 03     BNE $CF47                       A:AA X:55 Y:69 P:27 SP:FB CYC:260 SL:-1
CF44  4C 4B CF  JMP $CF4B                       A:AA X:55 Y:69 P:27 SP:FB CYC:266 SL:-1
CF4B  EA        NOP                             A:AA X:55 Y:69 P:27 SP:FB CYC:275 SL:-1
CF4C  24 01     BIT $01 = FF                    A:AA X:55 Y:69 P:27 SP:FB CYC:281 SL:-1
CF4E  38        SEC                             A:AA X:55 Y:69 P:E5 SP:FB CYC:290 SL:-1
CF4F  A9 01     LDA #$01                        A:AA X:55 Y:69 P:E5 SP:FB CYC:296 SL:-1
CF51  6A        ROR A                           A:01 X:55 Y:69 P:65 SP:FB CYC:302 SL:-1
CF52  90 1E     BCC $CF72                       A:80 X:55 Y:69 P:E5 SP:FB CYC:308 SL:-1
CF54  F0 1C     BEQ $CF72                       A:80 X:55 Y:69 P:E5 SP:FB CYC:314 SL:-1
CF56  10 1A     BPL $CF72                       A:80 X:55 Y:69 P:E5 SP:FB CYC:320 SL:-1
CF58  50 18     BVC $CF72                       A:80 X:55 Y:69 P:E5 SP:FB CYC:326 SL:-1
CF5A  C9 80     CMP #$80                        A:80 X:55 Y:69 P:E5 SP:FB CYC:332 SL:-1
CF5C  D0 14     BNE $CF72                       A:80 X:55 Y:69 P:67 SP:FB CYC:338 SL:-1
CF5E  B8        CLV                             A:80 X:55 Y:69 P:67 SP:FB CYC:  3 SL:0
CF5F  18        CLC                             A:80 X:55 Y:69 P:27 SP:FB CYC:  9 SL:0
CF60  A9 55     LDA #$55                        A:80 X:55 Y:69 P:26 SP:FB CYC: 15 SL:0
CF62  6A        ROR A                           A:55 X:55 Y:69 P:24 SP:FB CYC: 21 SL:0
CF63  90 0D     BCC $CF72                       A:2A X:55 Y:69 P:25 SP:FB CYC: 27 SL:0
CF65  F0 0B     BEQ $CF72                       A:2A X:55 Y:69 P:25 SP:FB CYC: 33 SL:0
CF67  30 09     BMI $CF72                       A:2A X:55 Y:69 P:25 SP:FB CYC: 39 SL:0
CF69  70 07     BVS $CF72                       A:2A X:55 Y:69 P:25 SP:FB CYC: 45 SL:0
CF6B  C9 2A     CMP #$2A                        A:2A X:55 Y:69 P:25 SP:FB CYC: 51 SL:0
CF6D  D0 03     BNE $CF72                       A:2A X:55 Y:69 P:27 SP:FB CYC: 57 SL:0
CF6F  4C 76 CF  JMP $CF76                       A:2A X:55 Y:69 P:27 SP:FB CYC: 63 SL:0
CF76  EA        NOP                             A:2A X:55 Y:69 P:27 SP:FB CYC: 72 SL:0
CF77  24 01     BIT $01 = FF                    A:2A X:55 Y:69 P:27 SP:FB CYC: 78 SL:0
CF79  38        SEC                             A:2A X:55 Y:69 P:E5 SP:FB CYC: 87 SL:0
CF7A  A9 80     LDA #$80                        A:2A X:55 Y:69 P:E5 SP:FB CYC: 93 SL:0
CF7C  2A        ROL A                           A:80 X:55 Y:69 P:E5 SP:FB CYC: 99 SL:0
CF7D  90 1E     BCC $CF9D                       A:01 X:55 Y:69 P:65 SP:FB CYC:105 SL:0
CF7F  F0 1C     BEQ $CF9D                       A:01 X:55 Y:69 P:65 SP:FB CYC:111 SL:0
CF81  30 1A     BMI $CF9D                       A:01 X:55 Y:69 P:65 SP:FB CYC:117 SL:0
CF83  50 18     BVC $CF9D                       A:01 X:55 Y:69 P:65 SP:FB CYC:123 SL:0
CF85  C9 01     CMP #$01                        A:01 X:55 Y:69 P:65 SP:FB CYC:129 SL:0
CF87  D0 14     BNE $CF9D                       A:01 X:55 Y:69 P:67 SP:FB CYC:135 SL:0
CF89  B8        CLV                             A:01 X:55 Y:69 P:67 SP:FB CYC:141 SL:0
CF8A  18        CLC                             A:01 X:55 Y:69 P:27 SP:FB CYC:147 SL:0
CF8B  A9 55     LDA #$55                        A:01 X:55 Y:69 P:26 SP:FB CYC:153 SL:0
CF8D  2A        ROL A                           A:55 X:55 Y:69 P:24 SP:FB CYC:159 SL:0
CF8E  B0 0D     BCS $CF9D                       A:AA X:55 Y:69 P:A4 SP:FB CYC:165 SL:0
CF90  F0 0B     BEQ $CF9D                       A:AA X:55 Y:69 P:A4 SP:FB CYC:171 SL:0
CF92  10 09     BPL $CF9D                       A:AA X:55 Y:69 P:A4 SP:FB CYC:177 SL:0
CF94  70 07     BVS $CF9D                       A:AA X:55 Y:69 P:A4 SP:FB CYC:183 SL:0
CF96  C9 AA     CMP #$AA                        A:AA X:55 Y:69 P:A4 SP:FB CYC:189 SL:0
CF98  D0 03     BNE $CF9D                       A:AA X:55 Y:69 P:27 SP:FB CYC:195 SL:0
CF9A  4C A1 CF  JMP $CFA1                       A:AA X:55 Y:69 P:27 SP:FB CYC:201 SL:0
CFA1  60        RTS                             A:AA X:55 Y:69 P:27 SP:FB CYC:210 SL:0
C60F  20 A2 CF  JSR $CFA2                       A:AA X:55 Y:69 P:27 SP:FD CYC:228 SL:0
CFA2  A5 00     LDA $00 = 00                    A:AA X:55 Y:69 P:27 SP:FB CYC:246 SL:0
CFA4  8D FF 07  STA $07FF = FB                  A:00 X:55 Y:69 P:27 SP:FB CYC:255 SL:0
CFA7  A9 00     LDA #$00                        A:00 X:55 Y:69 P:27 SP:FB CYC:267 SL:0
CFA9  85 80     STA $80 = 00                    A:00 X:55 Y:69 P:27 SP:FB CYC:273 SL:0
CFAB  A9 02     LDA #$02                        A:00 X:55 Y:69 P:27 SP:FB CYC:282 SL:0
CFAD  85 81     STA $81 = 00                    A:02 X:55 Y:69 P:25 SP:FB CYC:288 SL:0
CFAF  A9 FF     LDA #$FF                        A:02 X:55 Y:69 P:25 SP:FB CYC:297 SL:0
CFB1  85 01     STA $01 = FF                    A:FF X:55 Y:69 P:A5 SP:FB CYC:303 SL:0
CFB3  A9 00     LDA #$00                        A:FF X:55 Y:69 P:A5 SP:FB CYC:312 SL:0
CFB5  85 82     STA $82 = 00                    A:00 X:55 Y:69 P:27 SP:FB CYC:318 SL:0
CFB7  A9 03     LDA #$03                        A:00 X:55 Y:69 P:27 SP:FB CYC:327 SL:0
CFB9  85 83     STA $83 = 00                    A:03 X:55 Y:69 P:25 SP:FB CYC:333 SL:0
CFBB  85 84     STA $84 = 00                    A:03 X:55 Y:69 P:25 SP:FB CYC:  1 SL:1
CFBD  A9 00     LDA #$00                        A:03 X:55 Y:69 P:25 SP:FB CYC: 10 SL:1
CFBF  85 FF     STA $FF = 00                    A:00 X:55 Y:69 P:27 SP:FB CYC: 16 SL:1
CFC1  A9 04     LDA #$04                        A:00 X:55 Y:69 P:27 SP:FB CYC: 25 SL:1
CFC3  85 00     STA $00 = 00                    A:04 X:55 Y:69 P:25 SP:FB CYC: 31 SL:1
CFC5  A9 5A     LDA #$5A                        A:04 X:55 Y:69 P:25 SP:FB CYC: 40 SL:1
CFC7  8D 00 02  STA $0200 = 00                  A:5A X:55 Y:69 P:25 SP:FB CYC: 46 SL:1
CFCA  A9 5B     LDA #$5B                        A:5A X:55 Y:69 P:25 SP:FB CYC: 58 SL:1
CFCC  8D 00 03  STA $0300 = 00                  A:5B X:55 Y:69 P:25 SP:FB CYC: 64 SL:1
CFCF  A9 5C     LDA #$5C                        A:5B X:55 Y:69 P:25 SP:FB CYC: 76 SL:1
CFD1  8D 03 03  STA $0303 = 00                  A:5C X:55 Y:69 P:25 SP:FB CYC: 82 SL:1
CFD4  A9 5D     LDA #$5D                        A:5C X:55 Y:69 P:25 SP:FB CYC: 94 SL:1
CFD6  8D 00 04  STA $0400 = 00                  A:5D X:55 Y:69 P:25 SP:FB CYC:100 SL:1
CFD9  A2 00     LDX #$00                        A:5D X:55 Y:69 P:25 SP:FB CYC:112 SL:1
CFDB  A1 80     LDA ($80,X) @ 80 = 0200 = 5A    A:5D X:00 Y:69 P:27 SP:FB CYC:118 SL:1
CFDD  C9 5A     CMP #$5A                        A:5A X:00 Y:69 P:25 SP:FB CYC:136 SL:1
CFDF  D0 1F     BNE $D000                       A:5A X:00 Y:69 P:27 SP:FB CYC:142 SL:1
CFE1  E8        INX                             A:5A X:00 Y:69 P:27 SP:FB CYC:148 SL:1
CFE2  E8        INX                             A:5A X:01 Y:69 P:25 SP:FB CYC:154 SL:1
CFE3  A1 80     LDA ($80,X) @ 82 = 0300 = 5B    A:5A X:02 Y:69 P:25 SP:FB CYC:160 SL:1
CFE5  C9 5B     CMP #$5B                        A:5B X:02 Y:69 P:25 SP:FB CYC:178 SL:1
CFE7  D0 17     BNE $D000                       A:5B X:02 Y:69 P:27 SP:FB CYC:184 SL:1
CFE9  E8        INX                             A:5B X:02 Y:69 P:27 SP:FB CYC:190 SL:1
CFEA  A1 80     LDA ($80,X) @ 83 = 0303 = 5C    A:5B X:03 Y:69 P:25 SP:FB CYC:196 SL:1
CFEC  C9 5C     CMP #$5C                        A:5C X:03 Y:69 P:25 SP:FB CYC:214 SL:1
CFEE  D0 10     BNE $D000                       A:5C X:03 Y:69 P:27 SP:FB CYC:220 SL:1
CFF0  A2 00     LDX #$00                        A:5C X:03 Y:69 P:27 SP:FB CYC:226 SL:1
CFF2  A1 FF     LDA ($FF,X) @ FF = 0400 = 5D    A:5C X:00 Y:69 P:27 SP:FB CYC:232 SL:1
CFF4  C9 5D     CMP #$5D                        A:5D X:00 Y:69 P:25 SP:FB CYC:250 SL:1
CFF6  D0 08     BNE $D000                       A:5D X:00 Y:69 P:27 SP:FB CYC:256 SL:1
CFF8  A2 81     LDX #$81                        A:5D X:00 Y:69 P:27 SP:FB CYC:262 SL:1
CFFA  A1 FF     LDA ($FF,X) @ 80 = 0200 = 5A    A:5D X:81 Y:69 P:A5 SP:FB CYC:268 SL:1
CFFC  C9 5A     CMP #$5A                        A:5A X:81 Y:69 P:25 SP:FB CYC:286 SL:1
CFFE  F0 05     BEQ $D005                       A:5A X:81 Y:69 P:27 SP:FB CYC:292 SL:1
D005  A9 AA     LDA #$AA                        A:5A X:81 Y:69 P:27 SP:FB CYC:301 SL:1
D007  A2 00     LDX #$00                        A:AA X:81 Y:69 P:A5 SP:FB CYC:307 SL:1
D009  81 80     STA ($80,X) @ 80 = 0200 = 5A    A:AA X:00 Y:69 P:27 SP:FB CYC:313 SL:1
D00B  E8        INX                             A:AA X:00 Y:69 P:27 SP:FB CYC:331 SL:1
D00C  E8        INX                             A:AA X:01 Y:69 P:25 SP:FB CYC:337 SL:1
D00D  A9 AB     LDA #$AB                        A:AA X:02 Y:69 P:25 SP:FB CYC:  2 SL:2
D00F  81 80     STA ($80,X) @ 82 = 0300 = 5B    A:AB X:02 Y:69 P:A5 SP:FB CYC:  8 SL:2
D011  E8        INX                             A:AB X:02 Y:69 P:A5 SP:FB CYC: 26 SL:2
D012  A9 AC     LDA #$AC                        A:AB X:03 Y:69 P:25 SP:FB CYC: 32 SL:2
D014  81 80     STA ($80,X) @ 83 = 0303 = 5C    A:AC X:03 Y:69 P:A5 SP:FB CYC: 38 SL:2
D016  A2 00     LDX #$00                        A:AC X:03 Y:69 P:A5 SP:FB CYC: 56 SL:2
D018  A9 AD     LDA #$AD                        A:AC X:00 Y:69 P:27 SP:FB CYC: 62 SL:2
D01A  81 FF     STA ($FF,X) @ FF = 0400 = 5D    A:AD X:00 Y:69 P:A5 SP:FB CYC: 68 SL:2
D01C  AD 00 02  LDA $0200 = AA                  A:AD X:00 Y:69 P:A5 SP:FB CYC: 86 SL:2
D01F  C9 AA     CMP #$AA                        A:AA X:00 Y:69 P:A5 SP:FB CYC: 98 SL:2
D021  D0 15     BNE $D038                       A:AA X:00 Y:69 P:27 SP:FB CYC:104 SL:2
D023  AD 00 03  LDA $0300 = AB                  A:AA X:00 Y:69 P:27 SP:FB CYC:110 SL:2
D026  C9 AB     CMP #$AB                        A:AB X:00 Y:69 P:A5 SP:FB CYC:122 SL:2
D028  D0 0E     BNE $D038                       A:AB X:00 Y:69 P:27 SP:FB CYC:128 SL:2
D02A  AD 03 03  LDA $0303 = AC                  A:AB X:00 Y:69 P:27 SP:FB CYC:134 SL:2
D02D  C9 AC     CMP #$AC                        A:AC X:00 Y:69 P:A5 SP:FB CYC:146 SL:2
D02F  D0 07     BNE $D038                       A:AC X:00 Y:69 P:27 SP:FB CYC:152 SL:2
D031  AD 00 04  LDA $0400 = AD                  A:AC X:00 Y:69 P:27 SP:FB CYC:158 SL:2
D034  C9 AD     CMP #$AD                        A:AD X:00 Y:69 P:A5 SP:FB CYC:170 SL:2
D036  F0 05     BEQ $D03D                       A:AD X:00 Y:69 P:27 SP:FB CYC:176 SL:2
D03D  AD FF 07  LDA $07FF = 00                  A:AD X:00 Y:69 P:27 SP:FB CYC:185 SL:2
D040  85 00     STA $00 = 04                    A:00 X:00 Y:69 P:27 SP:FB CYC:197 SL:2
D042  A9 00     LDA #$00                        A:00 X:00 Y:69 P:27 SP:FB CYC:206 SL:2
D044  8D 00 03  STA $0300 = AB                  A:00 X:00 Y:69 P:27 SP:FB CYC:212 SL:2
D047  A9 AA     LDA #$AA                        A:00 X:00 Y:69 P:27 SP:FB CYC:224 SL:2
D049  8D 00 02  STA $0200 = AA                  A:AA X:00 Y:69 P:A5 SP:FB CYC:230 SL:2
D04C  A2 00     LDX #$00                        A:AA X:00 Y:69 P:A5 SP:FB CYC:242 SL:2
D04E  A0 5A     LDY #$5A                        A:AA X:00 Y:69 P:27 SP:FB CYC:248 SL:2
D050  20 B6 F7  JSR $F7B6                       A:AA X:00 Y:5A P:25 SP:FB CYC:254 SL:2
F7B6  18        CLC                             A:AA X:00 Y:5A P:25 SP:F9 CYC:272 SL:2
F7B7  A9 FF     LDA #$FF                        A:AA X:00 Y:5A P:24 SP:F9 CYC:278 SL:2
F7B9  85 01     STA $01 = FF                    A:FF X:00 Y:5A P:A4 SP:F9 CYC:284 SL:2
F7BB  24 01     BIT $01 = FF                    A:FF X:00 Y:5A P:A4 SP:F9 CYC:293 SL:2
F7BD  A9 55     LDA #$55                        A:FF X:00 Y:5A P:E4 SP:F9 CYC:302 SL:2
F7BF  60        RTS                             A:55 X:00 Y:5A P:64 SP:F9 CYC:308 SL:2
D053  01 80     ORA ($80,X) @ 80 = 0200 = AA    A:55 X:00 Y:5A P:64 SP:FB CYC:326 SL:2
D055  20 C0 F7  JSR $F7C0                       A:FF X:00 Y:5A P:E4 SP:FB CYC:  3 SL:3
F7C0  B0 09     BCS $F7CB                       A:FF X:00 Y:5A P:E4 SP:F9 CYC: 21 SL:3
F7C2  10 07     BPL $F7CB                       A:FF X:00 Y:5A P:E4 SP:F9 CYC: 27 SL:3
F7C4  C9 FF     CMP #$FF                        A:FF X:00 Y:5A P:E4 SP:F9 CYC: 33 SL:3
F7C6  D0 03     BNE $F7CB                       A:FF X:00 Y:5A P:67 SP:F9 CYC: 39 SL:3
F7C8  50 01     BVC $F7CB                       A:FF X:00 Y:5A P:67 SP:F9 CYC: 45 SL:3
F7CA  60        RTS                             A:FF X:00 Y:5A P:67 SP:F9 CYC: 51 SL:3
D058  C8        INY                             A:FF X:00 Y:5A P:67 SP:FB CYC: 69 SL:3
D059  20 CE F7  JSR $F7CE                       A:FF X:00 Y:5B P:65 SP:FB CYC: 75 SL:3
F7CE  38        SEC                             A:FF X:00 Y:5B P:65 SP:F9 CYC: 93 SL:3
F7CF  B8        CLV                             A:FF X:00 Y:5B P:65 SP:F9 CYC: 99 SL:3
F7D0  A9 00     LDA #$00                        A:FF X:00 Y:5B P:25 SP:F9 CYC:105 SL:3
F7D2  60        RTS                             A:00 X:00 Y:5B P:27 SP:F9 CYC:111 SL:3
D05C  01 82     ORA ($82,X) @ 82 = 0300 = 00    A:00 X:00 Y:5B P:27 SP:FB CYC:129 SL:3
D05E  20 D3 F7  JSR $F7D3                       A:00 X:00 Y:5B P:27 SP:FB CYC:147 SL:3
F7D3  D0 07     BNE $F7DC                       A:00 X:00 Y:5B P:27 SP:F9 CYC:165 SL:3
F7D5  70 05     BVS $F7DC                       A:00 X:00 Y:5B P:27 SP:F9 CYC:171 SL:3
F7D7  90 03     BCC $F7DC                       A:00 X:00 Y:5B P:27 SP:F9 CYC:177 SL:3
F7D9  30 01     BMI $F7DC                       A:00 X:00 Y:5B P:27 SP:F9 CYC:183 SL:3
F7DB  60        RTS                             A:00 X:00 Y:5B P:27 SP:F9 CYC:189 SL:3
D061  C8        INY                             A:00 X:00 Y:5B P:27 SP:FB CYC:207 SL:3
D062  20 DF F7  JSR $F7DF                       A:00 X:00 Y:5C P:25 SP:FB CYC:213 SL:3
F7DF  18        CLC                             A:00 X:00 Y:5C P:25 SP:F9 CYC:231 SL:3
F7E0  24 01     BIT $01 = FF                    A:00 X:00 Y:5C P:24 SP:F9 CYC:237 SL:3
F7E2  A9 55     LDA #$55                        A:00 X:00 Y:5C P:E6 SP:F9 CYC:246 SL:3
F7E4  60        RTS                             A:55 X:00 Y:5C P:64 SP:F9 CYC:252 SL:3
D065  21 80     AND ($80,X) @ 80 = 0200 = AA    A:55 X:00 Y:5C P:64 SP:FB CYC:270 SL:3
D067  20 E5 F7  JSR $F7E5                       A:00 X:00 Y:5C P:66 SP:FB CYC:288 SL:3
F7E5  D0 07     BNE $F7EE                       A:00 X:00 Y:5C P:66 SP:F9 CYC:306 SL:3
F7E7  50 05     BVC $F7EE                       A:00 X:00 Y:5C P:66 SP:F9 CYC:312 SL:3
F7E9  B0 03     BCS $F7EE                       A:00 X:00 Y:5C P:66 SP:F9 CYC:318 SL:3
F7EB  30 01     BMI $F7EE                       A:00 X:00 Y:5C P:66 SP:F9 CYC:324 SL:3
F7ED  60        RTS                             A:00 X:00 Y:5C P:66 SP:F9 CYC:330 SL:3
D06A  C8        INY                             A:00 X:00 Y:5C P:66 SP:FB CYC:  7 SL:4
D06B  A9 EF     LDA #$EF                        A:00 X:00 Y:5D P:64 SP:FB CYC: 13 SL:4
D06D  8D 00 03  STA $0300 = 00                  A:EF X:00 Y:5D P:E4 SP:FB CYC: 19 SL:4
D070  20 F1 F7  JSR $F7F1                       A:EF X:00 Y:5D P:E4 SP:FB CYC: 31 SL:4
F7F1  38        SEC                             A:EF X:00 Y:5D P:E4 SP:F9 CYC: 49 SL:4
F7F2  B8        CLV                             A:EF X:00 Y:5D P:E5 SP:F9 CYC: 55 SL:4
F7F3  A9 F8     LDA #$F8                        A:EF X:00 Y:5D P:A5 SP:F9 CYC: 61 SL:4
F7F5  60        RTS                             A:F8 X:00 Y:5D P:A5 SP:F9 CYC: 67 SL:4
D073  21 82     AND ($82,X) @ 82 = 0300 = EF    A:F8 X:00 Y:5D P:A5 SP:FB CYC: 85 SL:4
D075  20 F6 F7  JSR $F7F6                       A:E8 X:00 Y:5D P:A5 SP:FB CYC:103 SL:4
F7F6  90 09     BCC $F801                       A:E8 X:00 Y:5D P:A5 SP:F9 CYC:121 SL:4
F7F8  10 07     BPL $F801                       A:E8 X:00 Y:5D P:A5 SP:F9 CYC:127 SL:4
F7FA  C9 E8     CMP #$E8                        A:E8 X:00 Y:5D P:A5 SP:F9 CYC:133 SL:4
F7FC  D0 03     BNE $F801                       A:E8 X:00 Y:5D P:27 SP:F9 CYC:139 SL:4
F7FE  70 01     BVS $F801                       A:E8 X:00 Y:5D P:27 SP:F9 CYC:145 SL:4
F800  60        RTS                             A:E8 X:00 Y:5D P:27 SP:F9 CYC:151 SL:4
D078  C8        INY                             A:E8 X:00 Y:5D P:27 SP:FB CYC:169 SL:4
D079  20 04 F8  JSR $F804                       A:E8 X:00 Y:5E P:25 SP:FB CYC:175 SL:4
F804  18        CLC                             A:E8 X:00 Y:5E P:25 SP:F9 CYC:193 SL:4
F805  24 01     BIT $01 = FF                    A:E8 X:00 Y:5E P:24 SP:F9 CYC:199 SL:4
F807  A9 5F     LDA #$5F                        A:E8 X:00 Y:5E P:E4 SP:F9 CYC:208 SL:4
F809  60        RTS                             A:5F X:00 Y:5E P:64 SP:F9 CYC:214 SL:4
D07C  41 80     EOR ($80,X) @ 80 = 0200 = AA    A:5F X:00 Y:5E P:64 SP:FB CYC:232 SL:4
D07E  20 0A F8  JSR $F80A                       A:F5 X:00 Y:5E P:E4 SP:FB CYC:250 SL:4
F80A  B0 09     BCS $F815                       A:F5 X:00 Y:5E P:E4 SP:F9 CYC:268 SL:4
F80C  10 07     BPL $F815                       A:F5 X:00 Y:5E P:E4 SP:F9 CYC:274 SL:4
F80E  C9 F5     CMP #$F5                        A:F5 X:00 Y:5E P:E4 SP:F9 CYC:280 SL:4
F810  D0 03     BNE $F815                       A:F5 X:00 Y:5E P:67 SP:F9 CYC:286 SL:4
F812  50 01     BVC $F815                       A:F5 X:00 Y:5E P:67 SP:F9 CYC:292 SL:4
F814  60        RTS                             A:F5 X:00 Y:5E P:67 SP:F9 CYC:298 SL:4
D081  C8        INY                             A:F5 X:00 Y:5E P:67 SP:FB CYC:316 SL:4
D082  A9 70     LDA #$70                        A:F5 X:00 Y:5F P:65 SP:FB CYC:322 SL:4
D084  8D 00 03  STA $0300 = EF                  A:70 X:00 Y:5F P:65 SP:FB CYC:328 SL:4
D087  20 18 F8  JSR $F818                       A:70 X:00 Y:5F P:65 SP:FB CYC:340 SL:4
F818  38        SEC                             A:70 X:00 Y:5F P:65 SP:F9 CYC: 17 SL:5
F819  B8        CLV                             A:70 X:00 Y:5F P:65 SP:F9 CYC: 23 SL:5
F81A  A9 70     LDA #$70                        A:70 X:00 Y:5F P:25 SP:F9 CYC: 29 SL:5
F81C  60        RTS                             A:70 X:00 Y:5F P:25 SP:F9 CYC: 35 SL:5
D08A  41 82     EOR ($82,X) @ 82 = 0300 = 70    A:70 X:00 Y:5F P:25 SP:FB CYC: 53 SL:5
D08C  20 1D F8  JSR $F81D                       A:00 X:00 Y:5F P:27 SP:FB CYC: 71 SL:5
F81D  D0 07     BNE $F826                       A:00 X:00 Y:5F P:27 SP:F9 CYC: 89 SL:5
F81F  70 05     BVS $F826                       A:00 X:00 Y:5F P:27 SP:F9 CYC: 95 SL:5
F821  90 03     BCC $F826                       A:00 X:00 Y:5F P:27 SP:F9 CYC:101 SL:5
F823  30 01     BMI $F826                       A:00 X:00 Y:5F P:27 SP:F9 CYC:107 SL:5
F825  60        RTS                             A:00 X:00 Y:5F P:27 SP:F9 CYC:113 SL:5
D08F  C8        INY                             A:00 X:00 Y:5F P:27 SP:FB CYC:131 SL:5
D090  A9 69     LDA #$69                        A:00 X:00 Y:60 P:25 SP:FB CYC:137 SL:5
D092  8D 00 02  STA $0200 = AA                  A:69 X:00 Y:60 P:25 SP:FB CYC:143 SL:5
D095  20 29 F8  JSR $F829                       A:69 X:00 Y:60 P:25 SP:FB CYC:155 SL:5
F829  18        CLC                             A:69 X:00 Y:60 P:25 SP:F9 CYC:173 SL:5
F82A  24 01     BIT $01 = FF                    A:69 X:00 Y:60 P:24 SP:F9 CYC:179 SL:5
F82C  A9 00     LDA #$00                        A:69 X:00 Y:60 P:E4 SP:F9 CYC:188 SL:5
F82E  60        RTS                             A:00 X:00 Y:60 P:66 SP:F9 CYC:194 SL:5
D098  61 80     ADC ($80,X) @ 80 = 0200 = 69    A:00 X:00 Y:60 P:66 SP:FB CYC:212 SL:5
D09A  20 2F F8  JSR $F82F                       A:69 X:00 Y:60 P:24 SP:FB CYC:230 SL:5
F82F  30 09     BMI $F83A                       A:69 X:00 Y:60 P:24 SP:F9 CYC:248 SL:5
F831  B0 07     BCS $F83A                       A:69 X:00 Y:60 P:24 SP:F9 CYC:254 SL:5
F833  C9 69     CMP #$69                        A:69 X:00 Y:60 P:24 SP:F9 CYC:260 SL:5
F835  D0 03     BNE $F83A                       A:69 X:00 Y:60 P:27 SP:F9 CYC:266 SL:5
F837  70 01     BVS $F83A                       A:69 X:00 Y:60 P:27 SP:F9 CYC:272 SL:5
F839  60        RTS                             A:69 X:00 Y:60 P:27 SP:F9 CYC:278 SL:5
D09D  C8        INY                             A:69 X:00 Y:60 P:27 SP:FB CYC:296 SL:5
D09E  20 3D F8  JSR $F83D                       A:69 X:00 Y:61 P:25 SP:FB CYC:302 SL:5
F83D  38        SEC                             A:69 X:00 Y:61 P:25 SP:F9 CYC:320 SL:5
F83E  24 01     BIT $01 = FF                    A:69 X:00 Y:61 P:25 SP:F9 CYC:326 SL:5
F840  A9 00     LDA #$00                        A:69 X:00 Y:61 P:E5 SP:F9 CYC:335 SL:5
F842  60        RTS                             A:00 X:00 Y:61 P:67 SP:F9 CYC:  0 SL:6
D0A1  61 80     ADC ($80,X) @ 80 = 0200 = 69    A:00 X:00 Y:61 P:67 SP:FB CYC: 18 SL:6
D0A3  20 43 F8  JSR $F843                       A:6A X:00 Y:61 P:24 SP:FB CYC: 36 SL:6
F843  30 09     BMI $F84E                       A:6A X:00 Y:61 P:24 SP:F9 CYC: 54 SL:6
F845  B0 07     BCS $F84E                       A:6A X:00 Y:61 P:24 SP:F9 CYC: 60 SL:6
F847  C9 6A     CMP #$6A                        A:6A X:00 Y:61 P:24 SP:F9 CYC: 66 SL:6
F849  D0 03     BNE $F84E                       A:6A X:00 Y:61 P:27 SP:F9 CYC: 72 SL:6
F84B  70 01     BVS $F84E                       A:6A X:00 Y:61 P:27 SP:F9 CYC: 78 SL:6
F84D  60        RTS                             A:6A X:00 Y:61 P:27 SP:F9 CYC: 84 SL:6
D0A6  C8        INY                             A:6A X:00 Y:61 P:27 SP:FB CYC:102 SL:6
D0A7  A9 7F     LDA #$7F                        A:6A X:00 Y:62 P:25 SP:FB CYC:108 SL:6
D0A9  8D 00 02  STA $0200 = 69                  A:7F X:00 Y:62 P:25 SP:FB CYC:114 SL:6
D0AC  20 51 F8  JSR $F851                       A:7F X:00 Y:62 P:25 SP:FB CYC:126 SL:6
F851  38        SEC                             A:7F X:00 Y:62 P:25 SP:F9 CYC:144 SL:6
F852  B8        CLV                             A:7F X:00 Y:62 P:25 SP:F9 CYC:150 SL:6
F853  A9 7F     LDA #$7F                        A:7F X:00 Y:62 P:25 SP:F9 CYC:156 SL:6
F855  60        RTS                             A:7F X:00 Y:62 P:25 SP:F9 CYC:162 SL:6
D0AF  61 80     ADC ($80,X) @ 80 = 0200 = 7F    A:7F X:00 Y:62 P:25 SP:FB CYC:180 SL:6
D0B1  20 56 F8  JSR $F856                       A:FF X:00 Y:62 P:E4 SP:FB CYC:198 SL:6
F856  10 09     BPL $F861                       A:FF X:00 Y:62 P:E4 SP:F9 CYC:216 SL:6
F858  B0 07     BCS $F861                       A:FF X:00 Y:62 P:E4 SP:F9 CYC:222 SL:6
F85A  C9 FF     CMP #$FF                        A:FF X:00 Y:62 P:E4 SP:F9 CYC:228 SL:6
F85C  D0 03     BNE $F861                       A:FF X:00 Y:62 P:67 SP:F9 CYC:234 SL:6
F85E  50 01     BVC $F861                       A:FF X:00 Y:62 P:67 SP:F9 CYC:240 SL:6
F860  60        RTS                             A:FF X:00 Y:62 P:67 SP:F9 CYC:246 SL:6
D0B4  C8        INY                             A:FF X:00 Y:62 P:67 SP:FB CYC:264 SL:6
D0B5  A9 80     LDA #$80                        A:FF X:00 Y:63 P:65 SP:FB CYC:270 SL:6
D0B7  8D 00 02  STA $0200 = 7F                  A:80 X:00 Y:63 P:E5 SP:FB CYC:276 SL:6
D0BA  20 64 F8  JSR $F864                       A:80 X:00 Y:63 P:E5 SP:FB CYC:288 SL:6
F864  18        CLC                             A:80 X:00 Y:63 P:E5 SP:F9 CYC:306 SL:6
F865  24 01     BIT $01 = FF                    A:80 X:00 Y:63 P:E4 SP:F9 CYC:312 SL:6
F867  A9 7F     LDA #$7F                        A:80 X:00 Y:63 P:E4 SP:F9 CYC:321 SL:6
F869  60        RTS                             A:7F X:00 Y:63 P:64 SP:F9 CYC:327 SL:6
D0BD  61 80     ADC ($80,X) @ 80 = 0200 = 80    A:7F X:00 Y:63 P:64 SP:FB CYC:  4 SL:7
D0BF  20 6A F8  JSR $F86A                       A:FF X:00 Y:63 P:A4 SP:FB CYC: 22 SL:7
F86A  10 09     BPL $F875                       A:FF X:00 Y:63 P:A4 SP:F9 CYC: 40 SL:7
F86C  B0 07     BCS $F875                       A:FF X:00 Y:63 P:A4 SP:F9 CYC: 46 SL:7
F86E  C9 FF     CMP #$FF                        A:FF X:00 Y:63 P:A4 SP:F9 CYC: 52 SL:7
F870  D0 03     BNE $F875                       A:FF X:00 Y:63 P:27 SP:F9 CYC: 58 SL:7
F872  70 01     BVS $F875                       A:FF X:00 Y:63 P:27 SP:F9 CYC: 64 SL:7
F874  60        RTS                             A:FF X:00 Y:63 P:27 SP:F9 CYC: 70 SL:7
D0C2  C8        INY                             A:FF X:00 Y:63 P:27 SP:FB CYC: 88 SL:7
D0C3  20 78 F8  JSR $F878                       A:FF X:00 Y:64 P:25 SP:FB CYC: 94 SL:7
F878  38        SEC                             A:FF X:00 Y:64 P:25 SP:F9 CYC:112 SL:7
F879  B8        CLV                             A:FF X:00 Y:64 P:25 SP:F9 CYC:118 SL:7
F87A  A9 7F     LDA #$7F                        A:FF X:00 Y:64 P:25 SP:F9 CYC:124 SL:7
F87C  60        RTS                             A:7F X:00 Y:64 P:25 SP:F9 CYC:130 SL:7
D0C6  61 80     ADC ($80,X) @ 80 = 0200 = 80    A:7F X:00 Y:64 P:25 SP:FB CYC:148 SL:7
D0C8  20 7D F8  JSR $F87D                       A:00 X:00 Y:64 P:27 SP:FB CYC:166 SL:7
F87D  D0 07     BNE $F886                       A:00 X:00 Y:64 P:27 SP:F9 CYC:184 SL:7
F87F  30 05     BMI $F886                       A:00 X:00 Y:64 P:27 SP:F9 CYC:190 SL:7
F881  70 03     BVS $F886                       A:00 X:00 Y:64 P:27 SP:F9 CYC:196 SL:7
F883  90 01     BCC $F886                       A:00 X:00 Y:64 P:27 SP:F9 CYC:202 SL:7
F885  60        RTS                             A:00 X:00 Y:64 P:27 SP:F9 CYC:208 SL:7
D0CB  C8        INY                             A:00 X:00 Y:64 P:27 SP:FB CYC:226 SL:7
D0CC  A9 40     LDA #$40                        A:00 X:00 Y:65 P:25 SP:FB CYC:232 SL:7
D0CE  8D 00 02  STA $0200 = 80                  A:40 X:00 Y:65 P:25 SP:FB CYC:238 SL:7
D0D1  20 89 F8  JSR $F889                       A:40 X:00 Y:65 P:25 SP:FB CYC:250 SL:7
F889  24 01     BIT $01 = FF                    A:40 X:00 Y:65 P:25 SP:F9 CYC:268 SL:7
F88B  A9 40     LDA #$40                        A:40 X:00 Y:65 P:E5 SP:F9 CYC:277 SL:7
F88D  60        RTS                             A:40 X:00 Y:65 P:65 SP:F9 CYC:283 SL:7
D0D4  C1 80     CMP ($80,X) @ 80 = 0200 = 40    A:40 X:00 Y:65 P:65 SP:FB CYC:301 SL:7
D0D6  20 8E F8  JSR $F88E                       A:40 X:00 Y:65 P:67 SP:FB CYC:319 SL:7
F88E  30 07     BMI $F897                       A:40 X:00 Y:65 P:67 SP:F9 CYC:337 SL:7
F890  90 05     BCC $F897                       A:40 X:00 Y:65 P:67 SP:F9 CYC:  2 SL:8
F892  D0 03     BNE $F897                       A:40 X:00 Y:65 P:67 SP:F9 CYC:  8 SL:8
F894  50 01     BVC $F897                       A:40 X:00 Y:65 P:67 SP:F9 CYC: 14 SL:8
F896  60        RTS                             A:40 X:00 Y:65 P:67 SP:F9 CYC: 20 SL:8
D0D9  C8        INY                             A:40 X:00 Y:65 P:67 SP:FB CYC: 38 SL:8
D0DA  48        PHA                             A:40 X:00 Y:66 P:65 SP:FB CYC: 44 SL:8
D0DB  A9 3F     LDA #$3F                        A:40 X:00 Y:66 P:65 SP:FA CYC: 53 SL:8
D0DD  8D 00 02  STA $0200 = 40                  A:3F X:00 Y:66 P:65 SP:FA CYC: 59 SL:8
D0E0  68        PLA                             A:3F X:00 Y:66 P:65 SP:FA CYC: 71 SL:8
D0E1  20 9A F8  JSR $F89A                       A:40 X:00 Y:66 P:65 SP:FB CYC: 83 SL:8
F89A  B8        CLV                             A:40 X:00 Y:66 P:65 SP:F9 CYC:101 SL:8
F89B  60        RTS                             A:40 X:00 Y:66 P:25 SP:F9 CYC:107 SL:8
D0E4  C1 80     CMP ($80,X) @ 80 = 0200 = 3F    A:40 X:00 Y:66 P:25 SP:FB CYC:125 SL:8
D0E6  20 9C F8  JSR $F89C                       A:40 X:00 Y:66 P:25 SP:FB CYC:143 SL:8
F89C  F0 07     BEQ $F8A5                       A:40 X:00 Y:66 P:25 SP:F9 CYC:161 SL:8
F89E  30 05     BMI $F8A5                       A:40 X:00 Y:66 P:25 SP:F9 CYC:167 SL:8
F8A0  90 03     BCC $F8A5                       A:40 X:00 Y:66 P:25 SP:F9 CYC:173 SL:8
F8A2  70 01     BVS $F8A5                       A:40 X:00 Y:66 P:25 SP:F9 CYC:179 SL:8
F8A4  60        RTS                             A:40 X:00 Y:66 P:25 SP:F9 CYC:185 SL:8
D0E9  C8        INY                             A:40 X:00 Y:66 P:25 SP:FB CYC:203 SL:8
D0EA  48        PHA                             A:40 X:00 Y:67 P:25 SP:FB CYC:209 SL:8
D0EB  A9 41     LDA #$41                        A:40 X:00 Y:67 P:25 SP:FA CYC:218 SL:8
D0ED  8D 00 02  STA $0200 = 3F                  A:41 X:00 Y:67 P:25 SP:FA CYC:224 SL:8
D0F0  68        PLA                             A:41 X:00 Y:67 P:25 SP:FA CYC:236 SL:8
D0F1  C1 80     CMP ($80,X) @ 80 = 0200 = 41    A:40 X:00 Y:67 P:25 SP:FB CYC:248 SL:8
D0F3  20 A8 F8  JSR $F8A8                       A:40 X:00 Y:67 P:A4 SP:FB CYC:266 SL:8
F8A8  F0 05     BEQ $F8AF                       A:40 X:00 Y:67 P:A4 SP:F9 CYC:284 SL:8
F8AA  10 03     BPL $F8AF                       A:40 X:00 Y:67 P:A4 SP:F9 CYC:290 SL:8
F8AC  10 01     BPL $F8AF                       A:40 X:00 Y:67 P:A4 SP:F9 CYC:296 SL:8
F8AE  60        RTS                             A:40 X:00 Y:67 P:A4 SP:F9 CYC:302 SL:8
D0F6  C8        INY                             A:40 X:00 Y:67 P:A4 SP:FB CYC:320 SL:8
D0F7  48        PHA                             A:40 X:00 Y:68 P:24 SP:FB CYC:326 SL:8
D0F8  A9 00     LDA #$00                        A:40 X:00 Y:68 P:24 SP:FA CYC:335 SL:8
D0FA  8D 00 02  STA $0200 = 41                  A:00 X:00 Y:68 P:26 SP:FA CYC:  0 SL:9
D0FD  68        PLA                             A:00 X:00 Y:68 P:26 SP:FA CYC: 12 SL:9
D0FE  20 B2 F8  JSR $F8B2                       A:40 X:00 Y:68 P:24 SP:FB CYC: 24 SL:9
F8B2  A9 80     LDA #$80                        A:40 X:00 Y:68 P:24 SP:F9 CYC: 42 SL:9
F8B4  60        RTS                             A:80 X:00 Y:68 P:A4 SP:F9 CYC: 48 SL:9
D101  C1 80     CMP ($80,X) @ 80 = 0200 = 00    A:80 X:00 Y:68 P:A4 SP:FB CYC: 66 SL:9
D103  20 B5 F8  JSR $F8B5                       A:80 X:00 Y:68 P:A5 SP:FB CYC: 84 SL:9
F8B5  F0 05     BEQ $F8BC                       A:80 X:00 Y:68 P:A5 SP:F9 CYC:102 SL:9
F8B7  10 03     BPL $F8BC                       A:80 X:00 Y:68 P:A5 SP:F9 CYC:108 SL:9
F8B9  90 01     BCC $F8BC                       A:80 X:00 Y:68 P:A5 SP:F9 CYC:114 SL:9
F8BB  60        RTS                             A:80 X:00 Y:68 P:A5 SP:F9 CYC:120 SL:9
D106  C8        INY                             A:80 X:00 Y:68 P:A5 SP:FB CYC:138 SL:9
D107  48        PHA                             A:80 X:00 Y:69 P:25 SP:FB CYC:144 SL:9
D108  A9 80     LDA #$80                        A:80 X:00 Y:69 P:25 SP:FA CYC:153 SL:9
D10A  8D 00 02  STA $0200 = 00                  A:80 X:00 Y:69 P:A5 SP:FA CYC:159 SL:9
D10D  68        PLA                             A:80 X:00 Y:69 P:A5 SP:FA CYC:171 SL:9
D10E  C1 80     CMP ($80,X) @ 80 = 0200 = 80    A:80 X:00 Y:69 P:A5 SP:FB CYC:183 SL:9
D110  20 BF F8  JSR $F8BF                       A:80 X:00 Y:69 P:27 SP:FB CYC:201 SL:9
F8BF  D0 05     BNE $F8C6                       A:80 X:00 Y:69 P:27 SP:F9 CYC:219 SL:9
F8C1  30 03     BMI $F8C6                       A:80 X:00 Y:69 P:27 SP:F9 CYC:225 SL:9
F8C3  90 01     BCC $F8C6                       A:80 X:00 Y:69 P:27 SP:F9 CYC:231 SL:9
F8C5  60        RTS                             A:80 X:00 Y:69 P:27 SP:F9 CYC:237 SL:9
D113  C8        INY                             A:80 X:00 Y:69 P:27 SP:FB CYC:255 SL:9
D114  48        PHA                             A:80 X:00 Y:6A P:25 SP:FB CYC:261 SL:9
D115  A9 81     LDA #$81                        A:80 X:00 Y:6A P:25 SP:FA CYC:270 SL:9
D117  8D 00 02  STA $0200 = 80                  A:81 X:00 Y:6A P:A5 SP:FA CYC:276 SL:9
D11A  68        PLA                             A:81 X:00 Y:6A P:A5 SP:FA CYC:288 SL:9
D11B  C1 80     CMP ($80,X) @ 80 = 0200 = 81    A:80 X:00 Y:6A P:A5 SP:FB CYC:300 SL:9
D11D  20 C9 F8  JSR $F8C9                       A:80 X:00 Y:6A P:A4 SP:FB CYC:318 SL:9
F8C9  B0 05     BCS $F8D0                       A:80 X:00 Y:6A P:A4 SP:F9 CYC:336 SL:9
F8CB  F0 03     BEQ $F8D0                       A:80 X:00 Y:6A P:A4 SP:F9 CYC:  1 SL:10
F8CD  10 01     BPL $F8D0                       A:80 X:00 Y:6A P:A4 SP:F9 CYC:  7 SL:10
F8CF  60        RTS                             A:80 X:00 Y:6A P:A4 SP:F9 CYC: 13 SL:10
D120  C8        INY                             A:80 X:00 Y:6A P:A4 SP:FB CYC: 31 SL:10
D121  48        PHA                             A:80 X:00 Y:6B P:24 SP:FB CYC: 37 SL:10
D122  A9 7F     LDA #$7F                        A:80 X:00 Y:6B P:24 SP:FA CYC: 46 SL:10
D124  8D 00 02  STA $0200 = 81                  A:7F X:00 Y:6B P:24 SP:FA CYC: 52 SL:10
D127  68        PLA                             A:7F X:00 Y:6B P:24 SP:FA CYC: 64 SL:10
D128  C1 80     CMP ($80,X) @ 80 = 0200 = 7F    A:80 X:00 Y:6B P:A4 SP:FB CYC: 76 SL:10
D12A  20 D3 F8  JSR $F8D3                       A:80 X:00 Y:6B P:25 SP:FB CYC: 94 SL:10
F8D3  90 05     BCC $F8DA                       A:80 X:00 Y:6B P:25 SP:F9 CYC:112 SL:10
F8D5  F0 03     BEQ $F8DA                       A:80 X:00 Y:6B P:25 SP:F9 CYC:118 SL:10
F8D7  30 01     BMI $F8DA                       A:80 X:00 Y:6B P:25 SP:F9 CYC:124 SL:10
F8D9  60        RTS                             A:80 X:00 Y:6B P:25 SP:F9 CYC:130 SL:10
D12D  C8        INY                             A:80 X:00 Y:6B P:25 SP:FB CYC:148 SL:10
D12E  A9 40     LDA #$40                        A:80 X:00 Y:6C P:25 SP:FB CYC:154 SL:10
D130  8D 00 02  STA $0200 = 7F                  A:40 X:00 Y:6C P:25 SP:FB CYC:160 SL:10
D133  20 31 F9  JSR $F931                       A:40 X:00 Y:6C P:25 SP:FB CYC:172 SL:10
F931  24 01     BIT $01 = FF                    A:40 X:00 Y:6C P:25 SP:F9 CYC:190 SL:10
F933  A9 40     LDA #$40                        A:40 X:00 Y:6C P:E5 SP:F9 CYC:199 SL:10
F935  38        SEC                             A:40 X:00 Y:6C P:65 SP:F9 CYC:205 SL:10
F936  60        RTS                             A:40 X:00 Y:6C P:65 SP:F9 CYC:211 SL:10
D136  E1 80     SBC ($80,X) @ 80 = 0200 = 40    A:40 X:00 Y:6C P:65 SP:FB CYC:229 SL:10
D138  20 37 F9  JSR $F937                       A:00 X:00 Y:6C P:27 SP:FB CYC:247 SL:10
F937  30 0B     BMI $F944                       A:00 X:00 Y:6C P:27 SP:F9 CYC:265 SL:10
F939  90 09     BCC $F944                       A:00 X:00 Y:6C P:27 SP:F9 CYC:271 SL:10
F93B  D0 07     BNE $F944                       A:00 X:00 Y:6C P:27 SP:F9 CYC:277 SL:10
F93D  70 05     BVS $F944                       A:00 X:00 Y:6C P:27 SP:F9 CYC:283 SL:10
F93F  C9 00     CMP #$00                        A:00 X:00 Y:6C P:27 SP:F9 CYC:289 SL:10
F941  D0 01     BNE $F944                       A:00 X:00 Y:6C P:27 SP:F9 CYC:295 SL:10
F943  60        RTS                             A:00 X:00 Y:6C P:27 SP:F9 CYC:301 SL:10
D13B  C8        INY                             A:00 X:00 Y:6C P:27 SP:FB CYC:319 SL:10
D13C  A9 3F     LDA #$3F                        A:00 X:00 Y:6D P:25 SP:FB CYC:325 SL:10
D13E  8D 00 02  STA $0200 = 40                  A:3F X:00 Y:6D P:25 SP:FB CYC:331 SL:10
D141  20 47 F9  JSR $F947                       A:3F X:00 Y:6D P:25 SP:FB CYC:  2 SL:11
F947  B8        CLV                             A:3F X:00 Y:6D P:25 SP:F9 CYC: 20 SL:11
F948  38        SEC                             A:3F X:00 Y:6D P:25 SP:F9 CYC: 26 SL:11
F949  A9 40     LDA #$40                        A:3F X:00 Y:6D P:25 SP:F9 CYC: 32 SL:11
F94B  60        RTS                             A:40 X:00 Y:6D P:25 SP:F9 CYC: 38 SL:11
D144  E1 80     SBC ($80,X) @ 80 = 0200 = 3F    A:40 X:00 Y:6D P:25 SP:FB CYC: 56 SL:11
D146  20 4C F9  JSR $F94C                       A:01 X:00 Y:6D P:25 SP:FB CYC: 74 SL:11
F94C  F0 0B     BEQ $F959                       A:01 X:00 Y:6D P:25 SP:F9 CYC: 92 SL:11
F94E  30 09     BMI $F959                       A:01 X:00 Y:6D P:25 SP:F9 CYC: 98 SL:11
F950  90 07     BCC $F959                       A:01 X:00 Y:6D P:25 SP:F9 CYC:104 SL:11
F952  70 05     BVS $F959                       A:01 X:00 Y:6D P:25 SP:F9 CYC:110 SL:11
F954  C9 01     CMP #$01                        A:01 X:00 Y:6D P:25 SP:F9 CYC:116 SL:11
F956  D0 01     BNE $F959                       A:01 X:00 Y:6D P:27 SP:F9 CYC:122 SL:11
F958  60        RTS                             A:01 X:00 Y:6D P:27 SP:F9 CYC:128 SL:11
D149  C8        INY                             A:01 X:00 Y:6D P:27 SP:FB CYC:146 SL:11
D14A  A9 41     LDA #$41                        A:01 X:00 Y:6E P:25 SP:FB CYC:152 SL:11
D14C  8D 00 02  STA $0200 = 3F                  A:41 X:00 Y:6E P:25 SP:FB CYC:158 SL:11
D14F  20 5C F9  JSR $F95C                       A:41 X:00 Y:6E P:25 SP:FB CYC:170 SL:11
F95C  A9 40     LDA #$40                        A:41 X:00 Y:6E P:25 SP:F9 CYC:188 SL:11
F95E  38        SEC                             A:40 X:00 Y:6E P:25 SP:F9 CYC:194 SL:11
F95F  24 01     BIT $01 = FF                    A:40 X:00 Y:6E P:25 SP:F9 CYC:200 SL:11
F961  60        RTS                             A:40 X:00 Y:6E P:E5 SP:F9 CYC:209 SL:11
D152  E1 80     SBC ($80,X) @ 80 = 0200 = 41    A:40 X:00 Y:6E P:E5 SP:FB CYC:227 SL:11
D154  20 62 F9  JSR $F962                       A:FF X:00 Y:6E P:A4 SP:FB CYC:245 SL:11
F962  B0 0B     BCS $F96F                       A:FF X:00 Y:6E P:A4 SP:F9 CYC:263 SL:11
F964  F0 09     BEQ $F96F                       A:FF X:00 Y:6E P:A4 SP:F9 CYC:269 SL:11
F966  10 07     BPL $F96F                       A:FF X:00 Y:6E P:A4 SP:F9 CYC:275 SL:11
F968  70 05     BVS $F96F                       A:FF X:00 Y:6E P:A4 SP:F9 CYC:281 SL:11
F96A  C9 FF     CMP #$FF                        A:FF X:00 Y:6E P:A4 SP:F9 CYC:287 SL:11
F96C  D0 01     BNE $F96F                       A:FF X:00 Y:6E P:27 SP:F9 CYC:293 SL:11
F96E  60        RTS                             A:FF X:00 Y:6E P:27 SP:F9 CYC:299 SL:11
D157  C8        INY                             A:FF X:00 Y:6E P:27 SP:FB CYC:317 SL:11
D158  A9 00     LDA #$00                        A:FF X:00 Y:6F P:25 SP:FB CYC:323 SL:11
D15A  8D 00 02  STA $0200 = 41                  A:00 X:00 Y:6F P:27 SP:FB CYC:329 SL:11
D15D  20 72 F9  JSR $F972                       A:00 X:00 Y:6F P:27 SP:FB CYC:  0 SL:12
F972  18        CLC                             A:00 X:00 Y:6F P:27 SP:F9 CYC: 18 SL:12
F973  A9 80     LDA #$80                        A:00 X:00 Y:6F P:26 SP:F9 CYC: 24 SL:12
F975  60        RTS                             A:80 X:00 Y:6F P:A4 SP:F9 CYC: 30 SL:12
D160  E1 80     SBC ($80,X) @ 80 = 0200 = 00    A:80 X:00 Y:6F P:A4 SP:FB CYC: 48 SL:12
D162  20 76 F9  JSR $F976                       A:7F X:00 Y:6F P:65 SP:FB CYC: 66 SL:12
F976  90 05     BCC $F97D                       A:7F X:00 Y:6F P:65 SP:F9 CYC: 84 SL:12
F978  C9 7F     CMP #$7F                        A:7F X:00 Y:6F P:65 SP:F9 CYC: 90 SL:12
F97A  D0 01     BNE $F97D                       A:7F X:00 Y:6F P:67 SP:F9 CYC: 96 SL:12
F97C  60        RTS                             A:7F X:00 Y:6F P:67 SP:F9 CYC:102 SL:12
D165  C8        INY                             A:7F X:00 Y:6F P:67 SP:FB CYC:120 SL:12
D166  A9 7F     LDA #$7F                        A:7F X:00 Y:70 P:65 SP:FB CYC:126 SL:12
D168  8D 00 02  STA $0200 = 00                  A:7F X:00 Y:70 P:65 SP:FB CYC:132 SL:12
D16B  20 80 F9  JSR $F980                       A:7F X:00 Y:70 P:65 SP:FB CYC:144 SL:12
F980  38        SEC                             A:7F X:00 Y:70 P:65 SP:F9 CYC:162 SL:12
F981  A9 81     LDA #$81                        A:7F X:00 Y:70 P:65 SP:F9 CYC:168 SL:12
F983  60        RTS                             A:81 X:00 Y:70 P:E5 SP:F9 CYC:174 SL:12
D16E  E1 80     SBC ($80,X) @ 80 = 0200 = 7F    A:81 X:00 Y:70 P:E5 SP:FB CYC:192 SL:12
D170  20 84 F9  JSR $F984                       A:02 X:00 Y:70 P:65 SP:FB CYC:210 SL:12
F984  50 07     BVC $F98D                       A:02 X:00 Y:70 P:65 SP:F9 CYC:228 SL:12
F986  90 05     BCC $F98D                       A:02 X:00 Y:70 P:65 SP:F9 CYC:234 SL:12
F988  C9 02     CMP #$02                        A:02 X:00 Y:70 P:65 SP:F9 CYC:240 SL:12
F98A  D0 01     BNE $F98D                       A:02 X:00 Y:70 P:67 SP:F9 CYC:246 SL:12
F98C  60        RTS                             A:02 X:00 Y:70 P:67 SP:F9 CYC:252 SL:12
D173  60        RTS                             A:02 X:00 Y:70 P:67 SP:FB CYC:270 SL:12
C612  20 74 D1  JSR $D174                       A:02 X:00 Y:70 P:67 SP:FD CYC:288 SL:12
D174  A9 55     LDA #$55                        A:02 X:00 Y:70 P:67 SP:FB CYC:306 SL:12
D176  85 78     STA $78 = 00                    A:55 X:00 Y:70 P:65 SP:FB CYC:312 SL:12
D178  A9 FF     LDA #$FF                        A:55 X:00 Y:70 P:65 SP:FB CYC:321 SL:12
D17A  85 01     STA $01 = FF                    A:FF X:00 Y:70 P:E5 SP:FB CYC:327 SL:12
D17C  24 01     BIT $01 = FF                    A:FF X:00 Y:70 P:E5 SP:FB CYC:336 SL:12
D17E  A0 11     LDY #$11                        A:FF X:00 Y:70 P:E5 SP:FB CYC:  4 SL:13
D180  A2 23     LDX #$23                        A:FF X:00 Y:11 P:65 SP:FB CYC: 10 SL:13
D182  A9 00     LDA #$00                        A:FF X:23 Y:11 P:65 SP:FB CYC: 16 SL:13
D184  A5 78     LDA $78 = 55                    A:00 X:23 Y:11 P:67 SP:FB CYC: 22 SL:13
D186  F0 10     BEQ $D198                       A:55 X:23 Y:11 P:65 SP:FB CYC: 31 SL:13
D188  30 0E     BMI $D198                       A:55 X:23 Y:11 P:65 SP:FB CYC: 37 SL:13
D18A  C9 55     CMP #$55                        A:55 X:23 Y:11 P:65 SP:FB CYC: 43 SL:13
D18C  D0 0A     BNE $D198                       A:55 X:23 Y:11 P:67 SP:FB CYC: 49 SL:13
D18E  C0 11     CPY #$11                        A:55 X:23 Y:11 P:67 SP:FB CYC: 55 SL:13
D190  D0 06     BNE $D198                       A:55 X:23 Y:11 P:67 SP:FB CYC: 61 SL:13
D192  E0 23     CPX #$23                        A:55 X:23 Y:11 P:67 SP:FB CYC: 67 SL:13
D194  50 02     BVC $D198                       A:55 X:23 Y:11 P:67 SP:FB CYC: 73 SL:13
D196  F0 04     BEQ $D19C                       A:55 X:23 Y:11 P:67 SP:FB CYC: 79 SL:13
D19C  A9 46     LDA #$46                        A:55 X:23 Y:11 P:67 SP:FB CYC: 88 SL:13
D19E  24 01     BIT $01 = FF                    A:46 X:23 Y:11 P:65 SP:FB CYC: 94 SL:13
D1A0  85 78     STA $78 = 55                    A:46 X:23 Y:11 P:E5 SP:FB CYC:103 SL:13
D1A2  F0 0A     BEQ $D1AE                       A:46 X:23 Y:11 P:E5 SP:FB CYC:112 SL:13
D1A4  10 08     BPL $D1AE                       A:46 X:23 Y:11 P:E5 SP:FB CYC:118 SL:13
D1A6  50 06     BVC $D1AE                       A:46 X:23 Y:11 P:E5 SP:FB CYC:124 SL:13
D1A8  A5 78     LDA $78 = 46                    A:46 X:23 Y:11 P:E5 SP:FB CYC:130 SL:13
D1AA  C9 46     CMP #$46                        A:46 X:23 Y:11 P:65 SP:FB CYC:139 SL:13
D1AC  F0 04     BEQ $D1B2                       A:46 X:23 Y:11 P:67 SP:FB CYC:145 SL:13
D1B2  A9 55     LDA #$55                        A:46 X:23 Y:11 P:67 SP:FB CYC:154 SL:13
D1B4  85 78     STA $78 = 46                    A:55 X:23 Y:11 P:65 SP:FB CYC:160 SL:13
D1B6  24 01     BIT $01 = FF                    A:55 X:23 Y:11 P:65 SP:FB CYC:169 SL:13
D1B8  A9 11     LDA #$11                        A:55 X:23 Y:11 P:E5 SP:FB CYC:178 SL:13
D1BA  A2 23     LDX #$23                        A:11 X:23 Y:11 P:65 SP:FB CYC:184 SL:13
D1BC  A0 00     LDY #$00                        A:11 X:23 Y:11 P:65 SP:FB CYC:190 SL:13
D1BE  A4 78     LDY $78 = 55                    A:11 X:23 Y:00 P:67 SP:FB CYC:196 SL:13
D1C0  F0 10     BEQ $D1D2                       A:11 X:23 Y:55 P:65 SP:FB CYC:205 SL:13
D1C2  30 0E     BMI $D1D2                       A:11 X:23 Y:55 P:65 SP:FB CYC:211 SL:13
D1C4  C0 55     CPY #$55                        A:11 X:23 Y:55 P:65 SP:FB CYC:217 SL:13
D1C6  D0 0A     BNE $D1D2                       A:11 X:23 Y:55 P:67 SP:FB CYC:223 SL:13
D1C8  C9 11     CMP #$11                        A:11 X:23 Y:55 P:67 SP:FB CYC:229 SL:13
D1CA  D0 06     BNE $D1D2                       A:11 X:23 Y:55 P:67 SP:FB CYC:235 SL:13
D1CC  E0 23     CPX #$23                        A:11 X:23 Y:55 P:67 SP:FB CYC:241 SL:13
D1CE  50 02     BVC $D1D2                       A:11 X:23 Y:55 P:67 SP:FB CYC:247 SL:13
D1D0  F0 04     BEQ $D1D6                       A:11 X:23 Y:55 P:67 SP:FB CYC:253 SL:13
D1D6  A0 46     LDY #$46                        A:11 X:23 Y:55 P:67 SP:FB CYC:262 SL:13
D1D8  24 01     BIT $01 = FF                    A:11 X:23 Y:46 P:65 SP:FB CYC:268 SL:13
D1DA  84 78     STY $78 = 55                    A:11 X:23 Y:46 P:E5 SP:FB CYC:277 SL:13
D1DC  F0 0A     BEQ $D1E8                       A:11 X:23 Y:46 P:E5 SP:FB CYC:286 SL:13
D1DE  10 08     BPL $D1E8                       A:11 X:23 Y:46 P:E5 SP:FB CYC:292 SL:13
D1E0  50 06     BVC $D1E8                       A:11 X:23 Y:46 P:E5 SP:FB CYC:298 SL:13
D1E2  A4 78     LDY $78 = 46                    A:11 X:23 Y:46 P:E5 SP:FB CYC:304 SL:13
D1E4  C0 46     CPY #$46                        A:11 X:23 Y:46 P:65 SP:FB CYC:313 SL:13
D1E6  F0 04     BEQ $D1EC                       A:11 X:23 Y:46 P:67 SP:FB CYC:319 SL:13
D1EC  24 01     BIT $01 = FF                    A:11 X:23 Y:46 P:67 SP:FB CYC:328 SL:13
D1EE  A9 55     LDA #$55                        A:11 X:23 Y:46 P:E5 SP:FB CYC:337 SL:13
D1F0  85 78     STA $78 = 46                    A:55 X:23 Y:46 P:65 SP:FB CYC:  2 SL:14
D1F2  A0 11     LDY #$11                        A:55 X:23 Y:46 P:65 SP:FB CYC: 11 SL:14
D1F4  A9 23     LDA #$23                        A:55 X:23 Y:11 P:65 SP:FB CYC: 17 SL:14
D1F6  A2 00     LDX #$00                        A:23 X:23 Y:11 P:65 SP:FB CYC: 23 SL:14
D1F8  A6 78     LDX $78 = 55                    A:23 X:00 Y:11 P:67 SP:FB CYC: 29 SL:14
D1FA  F0 10     BEQ $D20C                       A:23 X:55 Y:11 P:65 SP:FB CYC: 38 SL:14
D1FC  30 0E     BMI $D20C                       A:23 X:55 Y:11 P:65 SP:FB CYC: 44 SL:14
D1FE  E0 55     CPX #$55                        A:23 X:55 Y:11 P:65 SP:FB CYC: 50 SL:14
D200  D0 0A     BNE $D20C                       A:23 X:55 Y:11 P:67 SP:FB CYC: 56 SL:14
D202  C0 11     CPY #$11                        A:23 X:55 Y:11 P:67 SP:FB CYC: 62 SL:14
D204  D0 06     BNE $D20C                       A:23 X:55 Y:11 P:67 SP:FB CYC: 68 SL:14
D206  C9 23     CMP #$23                        A:23 X:55 Y:11 P:67 SP:FB CYC: 74 SL:14
D208  50 02     BVC $D20C                       A:23 X:55 Y:11 P:67 SP:FB CYC: 80 SL:14
D20A  F0 04     BEQ $D210                       A:23 X:55 Y:11 P:67 SP:FB CYC: 86 SL:14
D210  A2 46     LDX #$46                        A:23 X:55 Y:11 P:67 SP:FB CYC: 95 SL:14
D212  24 01     BIT $01 = FF                    A:23 X:46 Y:11 P:65 SP:FB CYC:101 SL:14
D214  86 78     STX $78 = 55                    A:23 X:46 Y:11 P:E5 SP:FB CYC:110 SL:14
D216  F0 0A     BEQ $D222                       A:23 X:46 Y:11 P:E5 SP:FB CYC:119 SL:14
D218  10 08     BPL $D222                       A:23 X:46 Y:11 P:E5 SP:FB CYC:125 SL:14
D21A  50 06     BVC $D222                       A:23 X:46 Y:11 P:E5 SP:FB CYC:131 SL:14
D21C  A6 78     LDX $78 = 46                    A:23 X:46 Y:11 P:E5 SP:FB CYC:137 SL:14
D21E  E0 46     CPX #$46                        A:23 X:46 Y:11 P:65 SP:FB CYC:146 SL:14
D220  F0 04     BEQ $D226                       A:23 X:46 Y:11 P:67 SP:FB CYC:152 SL:14
D226  A9 C0     LDA #$C0                        A:23 X:46 Y:11 P:67 SP:FB CYC:161 SL:14
D228  85 78     STA $78 = 46                    A:C0 X:46 Y:11 P:E5 SP:FB CYC:167 SL:14
D22A  A2 33     LDX #$33                        A:C0 X:46 Y:11 P:E5 SP:FB CYC:176 SL:14
D22C  A0 88     LDY #$88                        A:C0 X:33 Y:11 P:65 SP:FB CYC:182 SL:14
D22E  A9 05     LDA #$05                        A:C0 X:33 Y:88 P:E5 SP:FB CYC:188 SL:14
D230  24 78     BIT $78 = C0                    A:05 X:33 Y:88 P:65 SP:FB CYC:194 SL:14
D232  10 10     BPL $D244                       A:05 X:33 Y:88 P:E7 SP:FB CYC:203 SL:14
D234  50 0E     BVC $D244                       A:05 X:33 Y:88 P:E7 SP:FB CYC:209 SL:14
D236  D0 0C     BNE $D244                       A:05 X:33 Y:88 P:E7 SP:FB CYC:215 SL:14
D238  C9 05     CMP #$05                        A:05 X:33 Y:88 P:E7 SP:FB CYC:221 SL:14
D23A  D0 08     BNE $D244                       A:05 X:33 Y:88 P:67 SP:FB CYC:227 SL:14
D23C  E0 33     CPX #$33                        A:05 X:33 Y:88 P:67 SP:FB CYC:233 SL:14
D23E  D0 04     BNE $D244                       A:05 X:33 Y:88 P:67 SP:FB CYC:239 SL:14
D240  C0 88     CPY #$88                        A:05 X:33 Y:88 P:67 SP:FB CYC:245 SL:14
D242  F0 04     BEQ $D248                       A:05 X:33 Y:88 P:67 SP:FB CYC:251 SL:14
D248  A9 03     LDA #$03                        A:05 X:33 Y:88 P:67 SP:FB CYC:260 SL:14
D24A  85 78     STA $78 = C0                    A:03 X:33 Y:88 P:65 SP:FB CYC:266 SL:14
D24C  A9 01     LDA #$01                        A:03 X:33 Y:88 P:65 SP:FB CYC:275 SL:14
D24E  24 78     BIT $78 = 03                    A:01 X:33 Y:88 P:65 SP:FB CYC:281 SL:14
D250  30 08     BMI $D25A                       A:01 X:33 Y:88 P:25 SP:FB CYC:290 SL:14
D252  70 06     BVS $D25A                       A:01 X:33 Y:88 P:25 SP:FB CYC:296 SL:14
D254  F0 04     BEQ $D25A                       A:01 X:33 Y:88 P:25 SP:FB CYC:302 SL:14
D256  C9 01     CMP #$01                        A:01 X:33 Y:88 P:25 SP:FB CYC:308 SL:14
D258  F0 04     BEQ $D25E                       A:01 X:33 Y:88 P:27 SP:FB CYC:314 SL:14
D25E  A0 7E     LDY #$7E                        A:01 X:33 Y:88 P:27 SP:FB CYC:323 SL:14
D260  A9 AA     LDA #$AA                        A:01 X:33 Y:7E P:25 SP:FB CYC:329 SL:14
D262  85 78     STA $78 = 03                    A:AA X:33 Y:7E P:A5 SP:FB CYC:335 SL:14
D264  20 B6 F7  JSR $F7B6                       A:AA X:33 Y:7E P:A5 SP:FB CYC:  3 SL:15
F7B6  18        CLC                             A:AA X:33 Y:7E P:A5 SP:F9 CYC: 21 SL:15
F7B7  A9 FF     LDA #$FF                        A:AA X:33 Y:7E P:A4 SP:F9 CYC: 27 SL:15
F7B9  85 01     STA $01 = FF                    A:FF X:33 Y:7E P:A4 SP:F9 CYC: 33 SL:15
F7BB  24 01     BIT $01 = FF                    A:FF X:33 Y:7E P:A4 SP:F9 CYC: 42 SL:15
F7BD  A9 55     LDA #$55                        A:FF X:33 Y:7E P:E4 SP:F9 CYC: 51 SL:15
F7BF  60        RTS                             A:55 X:33 Y:7E P:64 SP:F9 CYC: 57 SL:15
D267  05 78     ORA $78 = AA                    A:55 X:33 Y:7E P:64 SP:FB CYC: 75 SL:15
D269  20 C0 F7  JSR $F7C0                       A:FF X:33 Y:7E P:E4 SP:FB CYC: 84 SL:15
F7C0  B0 09     BCS $F7CB                       A:FF X:33 Y:7E P:E4 SP:F9 CYC:102 SL:15
F7C2  10 07     BPL $F7CB                       A:FF X:33 Y:7E P:E4 SP:F9 CYC:108 SL:15
F7C4  C9 FF     CMP #$FF                        A:FF X:33 Y:7E P:E4 SP:F9 CYC:114 SL:15
F7C6  D0 03     BNE $F7CB                       A:FF X:33 Y:7E P:67 SP:F9 CYC:120 SL:15
F7C8  50 01     BVC $F7CB                       A:FF X:33 Y:7E P:67 SP:F9 CYC:126 SL:15
F7CA  60        RTS                             A:FF X:33 Y:7E P:67 SP:F9 CYC:132 SL:15
D26C  C8        INY                             A:FF X:33 Y:7E P:67 SP:FB CYC:150 SL:15
D26D  A9 00     LDA #$00                        A:FF X:33 Y:7F P:65 SP:FB CYC:156 SL:15
D26F  85 78     STA $78 = AA                    A:00 X:33 Y:7F P:67 SP:FB CYC:162 SL:15
D271  20 CE F7  JSR $F7CE                       A:00 X:33 Y:7F P:67 SP:FB CYC:171 SL:15
F7CE  38        SEC                             A:00 X:33 Y:7F P:67 SP:F9 CYC:189 SL:15
F7CF  B8        CLV                             A:00 X:33 Y:7F P:67 SP:F9 CYC:195 SL:15
F7D0  A9 00     LDA #$00                        A:00 X:33 Y:7F P:27 SP:F9 CYC:201 SL:15
F7D2  60        RTS                             A:00 X:33 Y:7F P:27 SP:F9 CYC:207 SL:15
D274  05 78     ORA $78 = 00                    A:00 X:33 Y:7F P:27 SP:FB CYC:225 SL:15
D276  20 D3 F7  JSR $F7D3                       A:00 X:33 Y:7F P:27 SP:FB CYC:234 SL:15
F7D3  D0 07     BNE $F7DC                       A:00 X:33 Y:7F P:27 SP:F9 CYC:252 SL:15
F7D5  70 05     BVS $F7DC                       A:00 X:33 Y:7F P:27 SP:F9 CYC:258 SL:15
F7D7  90 03     BCC $F7DC                       A:00 X:33 Y:7F P:27 SP:F9 CYC:264 SL:15
F7D9  30 01     BMI $F7DC                       A:00 X:33 Y:7F P:27 SP:F9 CYC:270 SL:15
F7DB  60        RTS                             A:00 X:33 Y:7F P:27 SP:F9 CYC:276 SL:15
D279  C8        INY                             A:00 X:33 Y:7F P:27 SP:FB CYC:294 SL:15
D27A  A9 AA     LDA #$AA                        A:00 X:33 Y:80 P:A5 SP:FB CYC:300 SL:15
D27C  85 78     STA $78 = 00                    A:AA X:33 Y:80 P:A5 SP:FB CYC:306 SL:15
D27E  20 DF F7  JSR $F7DF                       A:AA X:33 Y:80 P:A5 SP:FB CYC:315 SL:15
F7DF  18        CLC                             A:AA X:33 Y:80 P:A5 SP:F9 CYC:333 SL:15
F7E0  24 01     BIT $01 = FF                    A:AA X:33 Y:80 P:A4 SP:F9 CYC:339 SL:15
F7E2  A9 55     LDA #$55                        A:AA X:33 Y:80 P:E4 SP:F9 CYC:  7 SL:16
F7E4  60        RTS                             A:55 X:33 Y:80 P:64 SP:F9 CYC: 13 SL:16
D281  25 78     AND $78 = AA                    A:55 X:33 Y:80 P:64 SP:FB CYC: 31 SL:16
D283  20 E5 F7  JSR $F7E5                       A:00 X:33 Y:80 P:66 SP:FB CYC: 40 SL:16
F7E5  D0 07     BNE $F7EE                       A:00 X:33 Y:80 P:66 SP:F9 CYC: 58 SL:16
F7E7  50 05     BVC $F7EE                       A:00 X:33 Y:80 P:66 SP:F9 CYC: 64 SL:16
F7E9  B0 03     BCS $F7EE                       A:00 X:33 Y:80 P:66 SP:F9 CYC: 70 SL:16
F7EB  30 01     BMI $F7EE                       A:00 X:33 Y:80 P:66 SP:F9 CYC: 76 SL:16
F7ED  60        RTS                             A:00 X:33 Y:80 P:66 SP:F9 CYC: 82 SL:16
D286  C8        INY                             A:00 X:33 Y:80 P:66 SP:FB CYC:100 SL:16
D287  A9 EF     LDA #$EF                        A:00 X:33 Y:81 P:E4 SP:FB CYC:106 SL:16
D289  85 78     STA $78 = AA                    A:EF X:33 Y:81 P:E4 SP:FB CYC:112 SL:16
D28B  20 F1 F7  JSR $F7F1                       A:EF X:33 Y:81 P:E4 SP:FB CYC:121 SL:16
F7F1  38        SEC                             A:EF X:33 Y:81 P:E4 SP:F9 CYC:139 SL:16
F7F2  B8        CLV                             A:EF X:33 Y:81 P:E5 SP:F9 CYC:145 SL:16
F7F3  A9 F8     LDA #$F8                        A:EF X:33 Y:81 P:A5 SP:F9 CYC:151 SL:16
F7F5  60        RTS                             A:F8 X:33 Y:81 P:A5 SP:F9 CYC:157 SL:16
D28E  25 78     AND $78 = EF                    A:F8 X:33 Y:81 P:A5 SP:FB CYC:175 SL:16
D290  20 F6 F7  JSR $F7F6                       A:E8 X:33 Y:81 P:A5 SP:FB CYC:184 SL:16
F7F6  90 09     BCC $F801                       A:E8 X:33 Y:81 P:A5 SP:F9 CYC:202 SL:16
F7F8  10 07     BPL $F801                       A:E8 X:33 Y:81 P:A5 SP:F9 CYC:208 SL:16
F7FA  C9 E8     CMP #$E8                        A:E8 X:33 Y:81 P:A5 SP:F9 CYC:214 SL:16
F7FC  D0 03     BNE $F801                       A:E8 X:33 Y:81 P:27 SP:F9 CYC:220 SL:16
F7FE  70 01     BVS $F801                       A:E8 X:33 Y:81 P:27 SP:F9 CYC:226 SL:16
F800  60        RTS                             A:E8 X:33 Y:81 P:27 SP:F9 CYC:232 SL:16
D293  C8        INY                             A:E8 X:33 Y:81 P:27 SP:FB CYC:250 SL:16
D294  A9 AA     LDA #$AA                        A:E8 X:33 Y:82 P:A5 SP:FB CYC:256 SL:16
D296  85 78     STA $78 = EF                    A:AA X:33 Y:82 P:A5 SP:FB CYC:262 SL:16
D298  20 04 F8  JSR $F804                       A:AA X:33 Y:82 P:A5 SP:FB CYC:271 SL:16
F804  18        CLC                             A:AA X:33 Y:82 P:A5 SP:F9 CYC:289 SL:16
F805  24 01     BIT $01 = FF                    A:AA X:33 Y:82 P:A4 SP:F9 CYC:295 SL:16
F807  A9 5F     LDA #$5F                        A:AA X:33 Y:82 P:E4 SP:F9 CYC:304 SL:16
F809  60        RTS                             A:5F X:33 Y:82 P:64 SP:F9 CYC:310 SL:16
D29B  45 78     EOR $78 = AA                    A:5F X:33 Y:82 P:64 SP:FB CYC:328 SL:16
D29D  20 0A F8  JSR $F80A                       A:F5 X:33 Y:82 P:E4 SP:FB CYC:337 SL:16
F80A  B0 09     BCS $F815                       A:F5 X:33 Y:82 P:E4 SP:F9 CYC: 14 SL:17
F80C  10 07     BPL $F815                       A:F5 X:33 Y:82 P:E4 SP:F9 CYC: 20 SL:17
F80E  C9 F5     CMP #$F5                        A:F5 X:33 Y:82 P:E4 SP:F9 CYC: 26 SL:17
F810  D0 03     BNE $F815                       A:F5 X:33 Y:82 P:67 SP:F9 CYC: 32 SL:17
F812  50 01     BVC $F815                       A:F5 X:33 Y:82 P:67 SP:F9 CYC: 38 SL:17
F814  60        RTS                             A:F5 X:33 Y:82 P:67 SP:F9 CYC: 44 SL:17
D2A0  C8        INY                             A:F5 X:33 Y:82 P:67 SP:FB CYC: 62 SL:17
D2A1  A9 70     LDA #$70                        A:F5 X:33 Y:83 P:E5 SP:FB CYC: 68 SL:17
D2A3  85 78     STA $78 = AA                    A:70 X:33 Y:83 P:65 SP:FB CYC: 74 SL:17
D2A5  20 18 F8  JSR $F818                       A:70 X:33 Y:83 P:65 SP:FB CYC: 83 SL:17
F818  38        SEC                             A:70 X:33 Y:83 P:65 SP:F9 CYC:101 SL:17
F819  B8        CLV                             A:70 X:33 Y:83 P:65 SP:F9 CYC:107 SL:17
F81A  A9 70     LDA #$70                        A:70 X:33 Y:83 P:25 SP:F9 CYC:113 SL:17
F81C  60        RTS                             A:70 X:33 Y:83 P:25 SP:F9 CYC:119 SL:17
D2A8  45 78     EOR $78 = 70                    A:70 X:33 Y:83 P:25 SP:FB CYC:137 SL:17
D2AA  20 1D F8  JSR $F81D                       A:00 X:33 Y:83 P:27 SP:FB CYC:146 SL:17
F81D  D0 07     BNE $F826                       A:00 X:33 Y:83 P:27 SP:F9 CYC:164 SL:17
F81F  70 05     BVS $F826                       A:00 X:33 Y:83 P:27 SP:F9 CYC:170 SL:17
F821  90 03     BCC $F826                       A:00 X:33 Y:83 P:27 SP:F9 CYC:176 SL:17
F823  30 01     BMI $F826                       A:00 X:33 Y:83 P:27 SP:F9 CYC:182 SL:17
F825  60        RTS                             A:00 X:33 Y:83 P:27 SP:F9 CYC:188 SL:17
D2AD  C8        INY                             A:00 X:33 Y:83 P:27 SP:FB CYC:206 SL:17
D2AE  A9 69     LDA #$69                        A:00 X:33 Y:84 P:A5 SP:FB CYC:212 SL:17
D2B0  85 78     STA $78 = 70                    A:69 X:33 Y:84 P:25 SP:FB CYC:218 SL:17
D2B2  20 29 F8  JSR $F829                       A:69 X:33 Y:84 P:25 SP:FB CYC:227 SL:17
F829  18        CLC                             A:69 X:33 Y:84 P:25 SP:F9 CYC:245 SL:17
F82A  24 01     BIT $01 = FF                    A:69 X:33 Y:84 P:24 SP:F9 CYC:251 SL:17
F82C  A9 00     LDA #$00                        A:69 X:33 Y:84 P:E4 SP:F9 CYC:260 SL:17
F82E  60        RTS                             A:00 X:33 Y:84 P:66 SP:F9 CYC:266 SL:17
D2B5  65 78     ADC $78 = 69                    A:00 X:33 Y:84 P:66 SP:FB CYC:284 SL:17
D2B7  20 2F F8  JSR $F82F                       A:69 X:33 Y:84 P:24 SP:FB CYC:293 SL:17
F82F  30 09     BMI $F83A                       A:69 X:33 Y:84 P:24 SP:F9 CYC:311 SL:17
F831  B0 07     BCS $F83A                       A:69 X:33 Y:84 P:24 SP:F9 CYC:317 SL:17
F833  C9 69     CMP #$69                        A:69 X:33 Y:84 P:24 SP:F9 CYC:323 SL:17
F835  D0 03     BNE $F83A                       A:69 X:33 Y:84 P:27 SP:F9 CYC:329 SL:17
F837  70 01     BVS $F83A                       A:69 X:33 Y:84 P:27 SP:F9 CYC:335 SL:17
F839  60        RTS                             A:69 X:33 Y:84 P:27 SP:F9 CYC:  0 SL:18
D2BA  C8        INY                             A:69 X:33 Y:84 P:27 SP:FB CYC: 18 SL:18
D2BB  20 3D F8  JSR $F83D                       A:69 X:33 Y:85 P:A5 SP:FB CYC: 24 SL:18
F83D  38        SEC                             A:69 X:33 Y:85 P:A5 SP:F9 CYC: 42 SL:18
F83E  24 01     BIT $01 = FF                    A:69 X:33 Y:85 P:A5 SP:F9 CYC: 48 SL:18
F840  A9 00     LDA #$00                        A:69 X:33 Y:85 P:E5 SP:F9 CYC: 57 SL:18
F842  60        RTS                             A:00 X:33 Y:85 P:67 SP:F9 CYC: 63 SL:18
D2BE  65 78     ADC $78 = 69                    A:00 X:33 Y:85 P:67 SP:FB CYC: 81 SL:18
D2C0  20 43 F8  JSR $F843                       A:6A X:33 Y:85 P:24 SP:FB CYC: 90 SL:18
F843  30 09     BMI $F84E                       A:6A X:33 Y:85 P:24 SP:F9 CYC:108 SL:18
F845  B0 07     BCS $F84E                       A:6A X:33 Y:85 P:24 SP:F9 CYC:114 SL:18
F847  C9 6A     CMP #$6A                        A:6A X:33 Y:85 P:24 SP:F9 CYC:120 SL:18
F849  D0 03     BNE $F84E                       A:6A X:33 Y:85 P:27 SP:F9 CYC:126 SL:18
F84B  70 01     BVS $F84E                       A:6A X:33 Y:85 P:27 SP:F9 CYC:132 SL:18
F84D  60        RTS                             A:6A X:33 Y:85 P:27 SP:F9 CYC:138 SL:18
D2C3  C8        INY                             A:6A X:33 Y:85 P:27 SP:FB CYC:156 SL:18
D2C4  A9 7F     LDA #$7F                        A:6A X:33 Y:86 P:A5 SP:FB CYC:162 SL:18
D2C6  85 78     STA $78 = 69                    A:7F X:33 Y:86 P:25 SP:FB CYC:168 SL:18
D2C8  20 51 F8  JSR $F851                       A:7F X:33 Y:86 P:25 SP:FB CYC:177 SL:18
F851  38        SEC                             A:7F X:33 Y:86 P:25 SP:F9 CYC:195 SL:18
F852  B8        CLV                             A:7F X:33 Y:86 P:25 SP:F9 CYC:201 SL:18
F853  A9 7F     LDA #$7F                        A:7F X:33 Y:86 P:25 SP:F9 CYC:207 SL:18
F855  60        RTS                             A:7F X:33 Y:86 P:25 SP:F9 CYC:213 SL:18
D2CB  65 78     ADC $78 = 7F                    A:7F X:33 Y:86 P:25 SP:FB CYC:231 SL:18
D2CD  20 56 F8  JSR $F856                       A:FF X:33 Y:86 P:E4 SP:FB CYC:240 SL:18
F856  10 09     BPL $F861                       A:FF X:33 Y:86 P:E4 SP:F9 CYC:258 SL:18
F858  B0 07     BCS $F861                       A:FF X:33 Y:86 P:E4 SP:F9 CYC:264 SL:18
F85A  C9 FF     CMP #$FF                        A:FF X:33 Y:86 P:E4 SP:F9 CYC:270 SL:18
F85C  D0 03     BNE $F861                       A:FF X:33 Y:86 P:67 SP:F9 CYC:276 SL:18
F85E  50 01     BVC $F861                       A:FF X:33 Y:86 P:67 SP:F9 CYC:282 SL:18
F860  60        RTS                             A:FF X:33 Y:86 P:67 SP:F9 CYC:288 SL:18
D2D0  C8        INY                             A:FF X:33 Y:86 P:67 SP:FB CYC:306 SL:18
D2D1  A9 80     LDA #$80                        A:FF X:33 Y:87 P:E5 SP:FB CYC:312 SL:18
D2D3  85 78     STA $78 = 7F                    A:80 X:33 Y:87 P:E5 SP:FB CYC:318 SL:18
D2D5  20 64 F8  JSR $F864                       A:80 X:33 Y:87 P:E5 SP:FB CYC:327 SL:18
F864  18        CLC                             A:80 X:33 Y:87 P:E5 SP:F9 CYC:  4 SL:19
F865  24 01     BIT $01 = FF                    A:80 X:33 Y:87 P:E4 SP:F9 CYC: 10 SL:19
F867  A9 7F     LDA #$7F                        A:80 X:33 Y:87 P:E4 SP:F9 CYC: 19 SL:19
F869  60        RTS                             A:7F X:33 Y:87 P:64 SP:F9 CYC: 25 SL:19
D2D8  65 78     ADC $78 = 80                    A:7F X:33 Y:87 P:64 SP:FB CYC: 43 SL:19
D2DA  20 6A F8  JSR $F86A                       A:FF X:33 Y:87 P:A4 SP:FB CYC: 52 SL:19
F86A  10 09     BPL $F875                       A:FF X:33 Y:87 P:A4 SP:F9 CYC: 70 SL:19
F86C  B0 07     BCS $F875                       A:FF X:33 Y:87 P:A4 SP:F9 CYC: 76 SL:19
F86E  C9 FF     CMP #$FF                        A:FF X:33 Y:87 P:A4 SP:F9 CYC: 82 SL:19
F870  D0 03     BNE $F875                       A:FF X:33 Y:87 P:27 SP:F9 CYC: 88 SL:19
F872  70 01     BVS $F875                       A:FF X:33 Y:87 P:27 SP:F9 CYC: 94 SL:19
F874  60        RTS                             A:FF X:33 Y:87 P:27 SP:F9 CYC:100 SL:19
D2DD  C8        INY                             A:FF X:33 Y:87 P:27 SP:FB CYC:118 SL:19
D2DE  20 78 F8  JSR $F878                       A:FF X:33 Y:88 P:A5 SP:FB CYC:124 SL:19
F878  38        SEC                             A:FF X:33 Y:88 P:A5 SP:F9 CYC:142 SL:19
F879  B8        CLV                             A:FF X:33 Y:88 P:A5 SP:F9 CYC:148 SL:19
F87A  A9 7F     LDA #$7F                        A:FF X:33 Y:88 P:A5 SP:F9 CYC:154 SL:19
F87C  60        RTS                             A:7F X:33 Y:88 P:25 SP:F9 CYC:160 SL:19
D2E1  65 78     ADC $78 = 80                    A:7F X:33 Y:88 P:25 SP:FB CYC:178 SL:19
D2E3  20 7D F8  JSR $F87D                       A:00 X:33 Y:88 P:27 SP:FB CYC:187 SL:19
F87D  D0 07     BNE $F886                       A:00 X:33 Y:88 P:27 SP:F9 CYC:205 SL:19
F87F  30 05     BMI $F886                       A:00 X:33 Y:88 P:27 SP:F9 CYC:211 SL:19
F881  70 03     BVS $F886                       A:00 X:33 Y:88 P:27 SP:F9 CYC:217 SL:19
F883  90 01     BCC $F886                       A:00 X:33 Y:88 P:27 SP:F9 CYC:223 SL:19
F885  60        RTS                             A:00 X:33 Y:88 P:27 SP:F9 CYC:229 SL:19
D2E6  C8        INY                             A:00 X:33 Y:88 P:27 SP:FB CYC:247 SL:19
D2E7  A9 40     LDA #$40                        A:00 X:33 Y:89 P:A5 SP:FB CYC:253 SL:19
D2E9  85 78     STA $78 = 80                    A:40 X:33 Y:89 P:25 SP:FB CYC:259 SL:19
D2EB  20 89 F8  JSR $F889                       A:40 X:33 Y:89 P:25 SP:FB CYC:268 SL:19
F889  24 01     BIT $01 = FF                    A:40 X:33 Y:89 P:25 SP:F9 CYC:286 SL:19
F88B  A9 40     LDA #$40                        A:40 X:33 Y:89 P:E5 SP:F9 CYC:295 SL:19
F88D  60        RTS                             A:40 X:33 Y:89 P:65 SP:F9 CYC:301 SL:19
D2EE  C5 78     CMP $78 = 40                    A:40 X:33 Y:89 P:65 SP:FB CYC:319 SL:19
D2F0  20 8E F8  JSR $F88E                       A:40 X:33 Y:89 P:67 SP:FB CYC:328 SL:19
F88E  30 07     BMI $F897                       A:40 X:33 Y:89 P:67 SP:F9 CYC:  5 SL:20
F890  90 05     BCC $F897                       A:40 X:33 Y:89 P:67 SP:F9 CYC: 11 SL:20
F892  D0 03     BNE $F897                       A:40 X:33 Y:89 P:67 SP:F9 CYC: 17 SL:20
F894  50 01     BVC $F897                       A:40 X:33 Y:89 P:67 SP:F9 CYC: 23 SL:20
F896  60        RTS                             A:40 X:33 Y:89 P:67 SP:F9 CYC: 29 SL:20
D2F3  C8        INY                             A:40 X:33 Y:89 P:67 SP:FB CYC: 47 SL:20
D2F4  48        PHA                             A:40 X:33 Y:8A P:E5 SP:FB CYC: 53 SL:20
D2F5  A9 3F     LDA #$3F                        A:40 X:33 Y:8A P:E5 SP:FA CYC: 62 SL:20
D2F7  85 78     STA $78 = 40                    A:3F X:33 Y:8A P:65 SP:FA CYC: 68 SL:20
D2F9  68        PLA                             A:3F X:33 Y:8A P:65 SP:FA CYC: 77 SL:20
D2FA  20 9A F8  JSR $F89A                       A:40 X:33 Y:8A P:65 SP:FB CYC: 89 SL:20
F89A  B8        CLV                             A:40 X:33 Y:8A P:65 SP:F9 CYC:107 SL:20
F89B  60        RTS                             A:40 X:33 Y:8A P:25 SP:F9 CYC:113 SL:20
D2FD  C5 78     CMP $78 = 3F                    A:40 X:33 Y:8A P:25 SP:FB CYC:131 SL:20
D2FF  20 9C F8  JSR $F89C                       A:40 X:33 Y:8A P:25 SP:FB CYC:140 SL:20
F89C  F0 07     BEQ $F8A5                       A:40 X:33 Y:8A P:25 SP:F9 CYC:158 SL:20
F89E  30 05     BMI $F8A5                       A:40 X:33 Y:8A P:25 SP:F9 CYC:164 SL:20
F8A0  90 03     BCC $F8A5                       A:40 X:33 Y:8A P:25 SP:F9 CYC:170 SL:20
F8A2  70 01     BVS $F8A5                       A:40 X:33 Y:8A P:25 SP:F9 CYC:176 SL:20
F8A4  60        RTS                             A:40 X:33 Y:8A P:25 SP:F9 CYC:182 SL:20
D302  C8        INY                             A:40 X:33 Y:8A P:25 SP:FB CYC:200 SL:20
D303  48        PHA                             A:40 X:33 Y:8B P:A5 SP:FB CYC:206 SL:20
D304  A9 41     LDA #$41                        A:40 X:33 Y:8B P:A5 SP:FA CYC:215 SL:20
D306  85 78     STA $78 = 3F                    A:41 X:33 Y:8B P:25 SP:FA CYC:221 SL:20
D308  68        PLA                             A:41 X:33 Y:8B P:25 SP:FA CYC:230 SL:20
D309  C5 78     CMP $78 = 41                    A:40 X:33 Y:8B P:25 SP:FB CYC:242 SL:20
D30B  20 A8 F8  JSR $F8A8                       A:40 X:33 Y:8B P:A4 SP:FB CYC:251 SL:20
F8A8  F0 05     BEQ $F8AF                       A:40 X:33 Y:8B P:A4 SP:F9 CYC:269 SL:20
F8AA  10 03     BPL $F8AF                       A:40 X:33 Y:8B P:A4 SP:F9 CYC:275 SL:20
F8AC  10 01     BPL $F8AF                       A:40 X:33 Y:8B P:A4 SP:F9 CYC:281 SL:20
F8AE  60        RTS                             A:40 X:33 Y:8B P:A4 SP:F9 CYC:287 SL:20
D30E  C8        INY                             A:40 X:33 Y:8B P:A4 SP:FB CYC:305 SL:20
D30F  48        PHA                             A:40 X:33 Y:8C P:A4 SP:FB CYC:311 SL:20
D310  A9 00     LDA #$00                        A:40 X:33 Y:8C P:A4 SP:FA CYC:320 SL:20
D312  85 78     STA $78 = 41                    A:00 X:33 Y:8C P:26 SP:FA CYC:326 SL:20
D314  68        PLA                             A:00 X:33 Y:8C P:26 SP:FA CYC:335 SL:20
D315  20 B2 F8  JSR $F8B2                       A:40 X:33 Y:8C P:24 SP:FB CYC:  6 SL:21
F8B2  A9 80     LDA #$80                        A:40 X:33 Y:8C P:24 SP:F9 CYC: 24 SL:21
F8B4  60        RTS                             A:80 X:33 Y:8C P:A4 SP:F9 CYC: 30 SL:21
D318  C5 78     CMP $78 = 00                    A:80 X:33 Y:8C P:A4 SP:FB CYC: 48 SL:21
D31A  20 B5 F8  JSR $F8B5                       A:80 X:33 Y:8C P:A5 SP:FB CYC: 57 SL:21
F8B5  F0 05     BEQ $F8BC                       A:80 X:33 Y:8C P:A5 SP:F9 CYC: 75 SL:21
F8B7  10 03     BPL $F8BC                       A:80 X:33 Y:8C P:A5 SP:F9 CYC: 81 SL:21
F8B9  90 01     BCC $F8BC                       A:80 X:33 Y:8C P:A5 SP:F9 CYC: 87 SL:21
F8BB  60        RTS                             A:80 X:33 Y:8C P:A5 SP:F9 CYC: 93 SL:21
D31D  C8        INY                             A:80 X:33 Y:8C P:A5 SP:FB CYC:111 SL:21
D31E  48        PHA                             A:80 X:33 Y:8D P:A5 SP:FB CYC:117 SL:21
D31F  A9 80     LDA #$80                        A:80 X:33 Y:8D P:A5 SP:FA CYC:126 SL:21
D321  85 78     STA $78 = 00                    A:80 X:33 Y:8D P:A5 SP:FA CYC:132 SL:21
D323  68        PLA                             A:80 X:33 Y:8D P:A5 SP:FA CYC:141 SL:21
D324  C5 78     CMP $78 = 80                    A:80 X:33 Y:8D P:A5 SP:FB CYC:153 SL:21
D326  20 BF F8  JSR $F8BF                       A:80 X:33 Y:8D P:27 SP:FB CYC:162 SL:21
F8BF  D0 05     BNE $F8C6                       A:80 X:33 Y:8D P:27 SP:F9 CYC:180 SL:21
F8C1  30 03     BMI $F8C6                       A:80 X:33 Y:8D P:27 SP:F9 CYC:186 SL:21
F8C3  90 01     BCC $F8C6                       A:80 X:33 Y:8D P:27 SP:F9 CYC:192 SL:21
F8C5  60        RTS                             A:80 X:33 Y:8D P:27 SP:F9 CYC:198 SL:21
D329  C8        INY                             A:80 X:33 Y:8D P:27 SP:FB CYC:216 SL:21
D32A  48        PHA                             A:80 X:33 Y:8E P:A5 SP:FB CYC:222 SL:21
D32B  A9 81     LDA #$81                        A:80 X:33 Y:8E P:A5 SP:FA CYC:231 SL:21
D32D  85 78     STA $78 = 80                    A:81 X:33 Y:8E P:A5 SP:FA CYC:237 SL:21
D32F  68        PLA                             A:81 X:33 Y:8E P:A5 SP:FA CYC:246 SL:21
D330  C5 78     CMP $78 = 81                    A:80 X:33 Y:8E P:A5 SP:FB CYC:258 SL:21
D332  20 C9 F8  JSR $F8C9                       A:80 X:33 Y:8E P:A4 SP:FB CYC:267 SL:21
F8C9  B0 05     BCS $F8D0                       A:80 X:33 Y:8E P:A4 SP:F9 CYC:285 SL:21
F8CB  F0 03     BEQ $F8D0                       A:80 X:33 Y:8E P:A4 SP:F9 CYC:291 SL:21
F8CD  10 01     BPL $F8D0                       A:80 X:33 Y:8E P:A4 SP:F9 CYC:297 SL:21
F8CF  60        RTS                             A:80 X:33 Y:8E P:A4 SP:F9 CYC:303 SL:21
D335  C8        INY                             A:80 X:33 Y:8E P:A4 SP:FB CYC:321 SL:21
D336  48        PHA                             A:80 X:33 Y:8F P:A4 SP:FB CYC:327 SL:21
D337  A9 7F     LDA #$7F                        A:80 X:33 Y:8F P:A4 SP:FA CYC:336 SL:21
D339  85 78     STA $78 = 81                    A:7F X:33 Y:8F P:24 SP:FA CYC:  1 SL:22
D33B  68        PLA                             A:7F X:33 Y:8F P:24 SP:FA CYC: 10 SL:22
D33C  C5 78     CMP $78 = 7F                    A:80 X:33 Y:8F P:A4 SP:FB CYC: 22 SL:22
D33E  20 D3 F8  JSR $F8D3                       A:80 X:33 Y:8F P:25 SP:FB CYC: 31 SL:22
F8D3  90 05     BCC $F8DA                       A:80 X:33 Y:8F P:25 SP:F9 CYC: 49 SL:22
F8D5  F0 03     BEQ $F8DA                       A:80 X:33 Y:8F P:25 SP:F9 CYC: 55 SL:22
F8D7  30 01     BMI $F8DA                       A:80 X:33 Y:8F P:25 SP:F9 CYC: 61 SL:22
F8D9  60        RTS                             A:80 X:33 Y:8F P:25 SP:F9 CYC: 67 SL:22
D341  C8        INY                             A:80 X:33 Y:8F P:25 SP:FB CYC: 85 SL:22
D342  A9 40     LDA #$40                        A:80 X:33 Y:90 P:A5 SP:FB CYC: 91 SL:22
D344  85 78     STA $78 = 7F                    A:40 X:33 Y:90 P:25 SP:FB CYC: 97 SL:22
D346  20 31 F9  JSR $F931                       A:40 X:33 Y:90 P:25 SP:FB CYC:106 SL:22
F931  24 01     BIT $01 = FF                    A:40 X:33 Y:90 P:25 SP:F9 CYC:124 SL:22
F933  A9 40     LDA #$40                        A:40 X:33 Y:90 P:E5 SP:F9 CYC:133 SL:22
F935  38        SEC                             A:40 X:33 Y:90 P:65 SP:F9 CYC:139 SL:22
F936  60        RTS                             A:40 X:33 Y:90 P:65 SP:F9 CYC:145 SL:22
D349  E5 78     SBC $78 = 40                    A:40 X:33 Y:90 P:65 SP:FB CYC:163 SL:22
D34B  20 37 F9  JSR $F937                       A:00 X:33 Y:90 P:27 SP:FB CYC:172 SL:22
F937  30 0B     BMI $F944                       A:00 X:33 Y:90 P:27 SP:F9 CYC:190 SL:22
F939  90 09     BCC $F944                       A:00 X:33 Y:90 P:27 SP:F9 CYC:196 SL:22
F93B  D0 07     BNE $F944                       A:00 X:33 Y:90 P:27 SP:F9 CYC:202 SL:22
F93D  70 05     BVS $F944                       A:00 X:33 Y:90 P:27 SP:F9 CYC:208 SL:22
F93F  C9 00     CMP #$00                        A:00 X:33 Y:90 P:27 SP:F9 CYC:214 SL:22
F941  D0 01     BNE $F944                       A:00 X:33 Y:90 P:27 SP:F9 CYC:220 SL:22
F943  60        RTS                             A:00 X:33 Y:90 P:27 SP:F9 CYC:226 SL:22
D34E  C8        INY                             A:00 X:33 Y:90 P:27 SP:FB CYC:244 SL:22
D34F  A9 3F     LDA #$3F                        A:00 X:33 Y:91 P:A5 SP:FB CYC:250 SL:22
D351  85 78     STA $78 = 40                    A:3F X:33 Y:91 P:25 SP:FB CYC:256 SL:22
D353  20 47 F9  JSR $F947                       A:3F X:33 Y:91 P:25 SP:FB CYC:265 SL:22
F947  B8        CLV                             A:3F X:33 Y:91 P:25 SP:F9 CYC:283 SL:22
F948  38        SEC                             A:3F X:33 Y:91 P:25 SP:F9 CYC:289 SL:22
F949  A9 40     LDA #$40                        A:3F X:33 Y:91 P:25 SP:F9 CYC:295 SL:22
F94B  60        RTS                             A:40 X:33 Y:91 P:25 SP:F9 CYC:301 SL:22
D356  E5 78     SBC $78 = 3F                    A:40 X:33 Y:91 P:25 SP:FB CYC:319 SL:22
D358  20 4C F9  JSR $F94C                       A:01 X:33 Y:91 P:25 SP:FB CYC:328 SL:22
F94C  F0 0B     BEQ $F959                       A:01 X:33 Y:91 P:25 SP:F9 CYC:  5 SL:23
F94E  30 09     BMI $F959                       A:01 X:33 Y:91 P:25 SP:F9 CYC: 11 SL:23
F950  90 07     BCC $F959                       A:01 X:33 Y:91 P:25 SP:F9 CYC: 17 SL:23
F952  70 05     BVS $F959                       A:01 X:33 Y:91 P:25 SP:F9 CYC: 23 SL:23
F954  C9 01     CMP #$01                        A:01 X:33 Y:91 P:25 SP:F9 CYC: 29 SL:23
F956  D0 01     BNE $F959                       A:01 X:33 Y:91 P:27 SP:F9 CYC: 35 SL:23
F958  60        RTS                             A:01 X:33 Y:91 P:27 SP:F9 CYC: 41 SL:23
D35B  C8        INY                             A:01 X:33 Y:91 P:27 SP:FB CYC: 59 SL:23
D35C  A9 41     LDA #$41                        A:01 X:33 Y:92 P:A5 SP:FB CYC: 65 SL:23
D35E  85 78     STA $78 = 3F                    A:41 X:33 Y:92 P:25 SP:FB CYC: 71 SL:23
D360  20 5C F9  JSR $F95C                       A:41 X:33 Y:92 P:25 SP:FB CYC: 80 SL:23
F95C  A9 40     LDA #$40                        A:41 X:33 Y:92 P:25 SP:F9 CYC: 98 SL:23
F95E  38        SEC                             A:40 X:33 Y:92 P:25 SP:F9 CYC:104 SL:23
F95F  24 01     BIT $01 = FF                    A:40 X:33 Y:92 P:25 SP:F9 CYC:110 SL:23
F961  60        RTS                             A:40 X:33 Y:92 P:E5 SP:F9 CYC:119 SL:23
D363  E5 78     SBC $78 = 41                    A:40 X:33 Y:92 P:E5 SP:FB CYC:137 SL:23
D365  20 62 F9  JSR $F962                       A:FF X:33 Y:92 P:A4 SP:FB CYC:146 SL:23
F962  B0 0B     BCS $F96F                       A:FF X:33 Y:92 P:A4 SP:F9 CYC:164 SL:23
F964  F0 09     BEQ $F96F                       A:FF X:33 Y:92 P:A4 SP:F9 CYC:170 SL:23
F966  10 07     BPL $F96F                       A:FF X:33 Y:92 P:A4 SP:F9 CYC:176 SL:23
F968  70 05     BVS $F96F                       A:FF X:33 Y:92 P:A4 SP:F9 CYC:182 SL:23
F96A  C9 FF     CMP #$FF                        A:FF X:33 Y:92 P:A4 SP:F9 CYC:188 SL:23
F96C  D0 01     BNE $F96F                       A:FF X:33 Y:92 P:27 SP:F9 CYC:194 SL:23
F96E  60        RTS                             A:FF X:33 Y:92 P:27 SP:F9 CYC:200 SL:23
D368  C8        INY                             A:FF X:33 Y:92 P:27 SP:FB CYC:218 SL:23
D369  A9 00     LDA #$00                        A:FF X:33 Y:93 P:A5 SP:FB CYC:224 SL:23
D36B  85 78     STA $78 = 41                    A:00 X:33 Y:93 P:27 SP:FB CYC:230 SL:23
D36D  20 72 F9  JSR $F972                       A:00 X:33 Y:93 P:27 SP:FB CYC:239 SL:23
F972  18        CLC                             A:00 X:33 Y:93 P:27 SP:F9 CYC:257 SL:23
F973  A9 80     LDA #$80                        A:00 X:33 Y:93 P:26 SP:F9 CYC:263 SL:23
F975  60        RTS                             A:80 X:33 Y:93 P:A4 SP:F9 CYC:269 SL:23
D370  E5 78     SBC $78 = 00                    A:80 X:33 Y:93 P:A4 SP:FB CYC:287 SL:23
D372  20 76 F9  JSR $F976                       A:7F X:33 Y:93 P:65 SP:FB CYC:296 SL:23
F976  90 05     BCC $F97D                       A:7F X:33 Y:93 P:65 SP:F9 CYC:314 SL:23
F978  C9 7F     CMP #$7F                        A:7F X:33 Y:93 P:65 SP:F9 CYC:320 SL:23
F97A  D0 01     BNE $F97D                       A:7F X:33 Y:93 P:67 SP:F9 CYC:326 SL:23
F97C  60        RTS                             A:7F X:33 Y:93 P:67 SP:F9 CYC:332 SL:23
D375  C8        INY                             A:7F X:33 Y:93 P:67 SP:FB CYC:  9 SL:24
D376  A9 7F     LDA #$7F                        A:7F X:33 Y:94 P:E5 SP:FB CYC: 15 SL:24
D378  85 78     STA $78 = 00                    A:7F X:33 Y:94 P:65 SP:FB CYC: 21 SL:24
D37A  20 80 F9  JSR $F980                       A:7F X:33 Y:94 P:65 SP:FB CYC: 30 SL:24
F980  38        SEC                             A:7F X:33 Y:94 P:65 SP:F9 CYC: 48 SL:24
F981  A9 81     LDA #$81                        A:7F X:33 Y:94 P:65 SP:F9 CYC: 54 SL:24
F983  60        RTS                             A:81 X:33 Y:94 P:E5 SP:F9 CYC: 60 SL:24
D37D  E5 78     SBC $78 = 7F                    A:81 X:33 Y:94 P:E5 SP:FB CYC: 78 SL:24
D37F  20 84 F9  JSR $F984                       A:02 X:33 Y:94 P:65 SP:FB CYC: 87 SL:24
F984  50 07     BVC $F98D                       A:02 X:33 Y:94 P:65 SP:F9 CYC:105 SL:24
F986  90 05     BCC $F98D                       A:02 X:33 Y:94 P:65 SP:F9 CYC:111 SL:24
F988  C9 02     CMP #$02                        A:02 X:33 Y:94 P:65 SP:F9 CYC:117 SL:24
F98A  D0 01     BNE $F98D                       A:02 X:33 Y:94 P:67 SP:F9 CYC:123 SL:24
F98C  60        RTS                             A:02 X:33 Y:94 P:67 SP:F9 CYC:129 SL:24
D382  C8        INY                             A:02 X:33 Y:94 P:67 SP:FB CYC:147 SL:24
D383  A9 40     LDA #$40                        A:02 X:33 Y:95 P:E5 SP:FB CYC:153 SL:24
D385  85 78     STA $78 = 7F                    A:40 X:33 Y:95 P:65 SP:FB CYC:159 SL:24
D387  20 89 F8  JSR $F889                       A:40 X:33 Y:95 P:65 SP:FB CYC:168 SL:24
F889  24 01     BIT $01 = FF                    A:40 X:33 Y:95 P:65 SP:F9 CYC:186 SL:24
F88B  A9 40     LDA #$40                        A:40 X:33 Y:95 P:E5 SP:F9 CYC:195 SL:24
F88D  60        RTS                             A:40 X:33 Y:95 P:65 SP:F9 CYC:201 SL:24
D38A  AA        TAX                             A:40 X:33 Y:95 P:65 SP:FB CYC:219 SL:24
D38B  E4 78     CPX $78 = 40                    A:40 X:40 Y:95 P:65 SP:FB CYC:225 SL:24
D38D  20 8E F8  JSR $F88E                       A:40 X:40 Y:95 P:67 SP:FB CYC:234 SL:24
F88E  30 07     BMI $F897                       A:40 X:40 Y:95 P:67 SP:F9 CYC:252 SL:24
F890  90 05     BCC $F897                       A:40 X:40 Y:95 P:67 SP:F9 CYC:258 SL:24
F892  D0 03     BNE $F897                       A:40 X:40 Y:95 P:67 SP:F9 CYC:264 SL:24
F894  50 01     BVC $F897                       A:40 X:40 Y:95 P:67 SP:F9 CYC:270 SL:24
F896  60        RTS                             A:40 X:40 Y:95 P:67 SP:F9 CYC:276 SL:24
D390  C8        INY                             A:40 X:40 Y:95 P:67 SP:FB CYC:294 SL:24
D391  A9 3F     LDA #$3F                        A:40 X:40 Y:96 P:E5 SP:FB CYC:300 SL:24
D393  85 78     STA $78 = 40                    A:3F X:40 Y:96 P:65 SP:FB CYC:306 SL:24
D395  20 9A F8  JSR $F89A                       A:3F X:40 Y:96 P:65 SP:FB CYC:315 SL:24
F89A  B8        CLV                             A:3F X:40 Y:96 P:65 SP:F9 CYC:333 SL:24
F89B  60        RTS                             A:3F X:40 Y:96 P:25 SP:F9 CYC:339 SL:24
D398  E4 78     CPX $78 = 3F                    A:3F X:40 Y:96 P:25 SP:FB CYC: 16 SL:25
D39A  20 9C F8  JSR $F89C                       A:3F X:40 Y:96 P:25 SP:FB CYC: 25 SL:25
F89C  F0 07     BEQ $F8A5                       A:3F X:40 Y:96 P:25 SP:F9 CYC: 43 SL:25
F89E  30 05     BMI $F8A5                       A:3F X:40 Y:96 P:25 SP:F9 CYC: 49 SL:25
F8A0  90 03     BCC $F8A5                       A:3F X:40 Y:96 P:25 SP:F9 CYC: 55 SL:25
F8A2  70 01     BVS $F8A5                       A:3F X:40 Y:96 P:25 SP:F9 CYC: 61 SL:25
F8A4  60        RTS                             A:3F X:40 Y:96 P:25 SP:F9 CYC: 67 SL:25
D39D  C8        INY                             A:3F X:40 Y:96 P:25 SP:FB CYC: 85 SL:25
D39E  A9 41     LDA #$41                        A:3F X:40 Y:97 P:A5 SP:FB CYC: 91 SL:25
D3A0  85 78     STA $78 = 3F                    A:41 X:40 Y:97 P:25 SP:FB CYC: 97 SL:25
D3A2  E4 78     CPX $78 = 41                    A:41 X:40 Y:97 P:25 SP:FB CYC:106 SL:25
D3A4  20 A8 F8  JSR $F8A8                       A:41 X:40 Y:97 P:A4 SP:FB CYC:115 SL:25
F8A8  F0 05     BEQ $F8AF                       A:41 X:40 Y:97 P:A4 SP:F9 CYC:133 SL:25
F8AA  10 03     BPL $F8AF                       A:41 X:40 Y:97 P:A4 SP:F9 CYC:139 SL:25
F8AC  10 01     BPL $F8AF                       A:41 X:40 Y:97 P:A4 SP:F9 CYC:145 SL:25
F8AE  60        RTS                             A:41 X:40 Y:97 P:A4 SP:F9 CYC:151 SL:25
D3A7  C8        INY                             A:41 X:40 Y:97 P:A4 SP:FB CYC:169 SL:25
D3A8  A9 00     LDA #$00                        A:41 X:40 Y:98 P:A4 SP:FB CYC:175 SL:25
D3AA  85 78     STA $78 = 41                    A:00 X:40 Y:98 P:26 SP:FB CYC:181 SL:25
D3AC  20 B2 F8  JSR $F8B2                       A:00 X:40 Y:98 P:26 SP:FB CYC:190 SL:25
F8B2  A9 80     LDA #$80                        A:00 X:40 Y:98 P:26 SP:F9 CYC:208 SL:25
F8B4  60        RTS                             A:80 X:40 Y:98 P:A4 SP:F9 CYC:214 SL:25
D3AF  AA        TAX                             A:80 X:40 Y:98 P:A4 SP:FB CYC:232 SL:25
D3B0  E4 78     CPX $78 = 00                    A:80 X:80 Y:98 P:A4 SP:FB CYC:238 SL:25
D3B2  20 B5 F8  JSR $F8B5                       A:80 X:80 Y:98 P:A5 SP:FB CYC:247 SL:25
F8B5  F0 05     BEQ $F8BC                       A:80 X:80 Y:98 P:A5 SP:F9 CYC:265 SL:25
F8B7  10 03     BPL $F8BC                       A:80 X:80 Y:98 P:A5 SP:F9 CYC:271 SL:25
F8B9  90 01     BCC $F8BC                       A:80 X:80 Y:98 P:A5 SP:F9 CYC:277 SL:25
F8BB  60        RTS                             A:80 X:80 Y:98 P:A5 SP:F9 CYC:283 SL:25
D3B5  C8        INY                             A:80 X:80 Y:98 P:A5 SP:FB CYC:301 SL:25
D3B6  A9 80     LDA #$80                        A:80 X:80 Y:99 P:A5 SP:FB CYC:307 SL:25
D3B8  85 78     STA $78 = 00                    A:80 X:80 Y:99 P:A5 SP:FB CYC:313 SL:25
D3BA  E4 78     CPX $78 = 80                    A:80 X:80 Y:99 P:A5 SP:FB CYC:322 SL:25
D3BC  20 BF F8  JSR $F8BF                       A:80 X:80 Y:99 P:27 SP:FB CYC:331 SL:25
F8BF  D0 05     BNE $F8C6                       A:80 X:80 Y:99 P:27 SP:F9 CYC:  8 SL:26
F8C1  30 03     BMI $F8C6                       A:80 X:80 Y:99 P:27 SP:F9 CYC: 14 SL:26
F8C3  90 01     BCC $F8C6                       A:80 X:80 Y:99 P:27 SP:F9 CYC: 20 SL:26
F8C5  60        RTS                             A:80 X:80 Y:99 P:27 SP:F9 CYC: 26 SL:26
D3BF  C8        INY                             A:80 X:80 Y:99 P:27 SP:FB CYC: 44 SL:26
D3C0  A9 81     LDA #$81                        A:80 X:80 Y:9A P:A5 SP:FB CYC: 50 SL:26
D3C2  85 78     STA $78 = 80                    A:81 X:80 Y:9A P:A5 SP:FB CYC: 56 SL:26
D3C4  E4 78     CPX $78 = 81                    A:81 X:80 Y:9A P:A5 SP:FB CYC: 65 SL:26
D3C6  20 C9 F8  JSR $F8C9                       A:81 X:80 Y:9A P:A4 SP:FB CYC: 74 SL:26
F8C9  B0 05     BCS $F8D0                       A:81 X:80 Y:9A P:A4 SP:F9 CYC: 92 SL:26
F8CB  F0 03     BEQ $F8D0                       A:81 X:80 Y:9A P:A4 SP:F9 CYC: 98 SL:26
F8CD  10 01     BPL $F8D0                       A:81 X:80 Y:9A P:A4 SP:F9 CYC:104 SL:26
F8CF  60        RTS                             A:81 X:80 Y:9A P:A4 SP:F9 CYC:110 SL:26
D3C9  C8        INY                             A:81 X:80 Y:9A P:A4 SP:FB CYC:128 SL:26
D3CA  A9 7F     LDA #$7F                        A:81 X:80 Y:9B P:A4 SP:FB CYC:134 SL:26
D3CC  85 78     STA $78 = 81                    A:7F X:80 Y:9B P:24 SP:FB CYC:140 SL:26
D3CE  E4 78     CPX $78 = 7F                    A:7F X:80 Y:9B P:24 SP:FB CYC:149 SL:26
D3D0  20 D3 F8  JSR $F8D3                       A:7F X:80 Y:9B P:25 SP:FB CYC:158 SL:26
F8D3  90 05     BCC $F8DA                       A:7F X:80 Y:9B P:25 SP:F9 CYC:176 SL:26
F8D5  F0 03     BEQ $F8DA                       A:7F X:80 Y:9B P:25 SP:F9 CYC:182 SL:26
F8D7  30 01     BMI $F8DA                       A:7F X:80 Y:9B P:25 SP:F9 CYC:188 SL:26
F8D9  60        RTS                             A:7F X:80 Y:9B P:25 SP:F9 CYC:194 SL:26
D3D3  C8        INY                             A:7F X:80 Y:9B P:25 SP:FB CYC:212 SL:26
D3D4  98        TYA                             A:7F X:80 Y:9C P:A5 SP:FB CYC:218 SL:26
D3D5  AA        TAX                             A:9C X:80 Y:9C P:A5 SP:FB CYC:224 SL:26
D3D6  A9 40     LDA #$40                        A:9C X:9C Y:9C P:A5 SP:FB CYC:230 SL:26
D3D8  85 78     STA $78 = 7F                    A:40 X:9C Y:9C P:25 SP:FB CYC:236 SL:26
D3DA  20 DD F8  JSR $F8DD                       A:40 X:9C Y:9C P:25 SP:FB CYC:245 SL:26
F8DD  24 01     BIT $01 = FF                    A:40 X:9C Y:9C P:25 SP:F9 CYC:263 SL:26
F8DF  A0 40     LDY #$40                        A:40 X:9C Y:9C P:E5 SP:F9 CYC:272 SL:26
F8E1  60        RTS                             A:40 X:9C Y:40 P:65 SP:F9 CYC:278 SL:26
D3DD  C4 78     CPY $78 = 40                    A:40 X:9C Y:40 P:65 SP:FB CYC:296 SL:26
D3DF  20 E2 F8  JSR $F8E2                       A:40 X:9C Y:40 P:67 SP:FB CYC:305 SL:26
F8E2  30 07     BMI $F8EB                       A:40 X:9C Y:40 P:67 SP:F9 CYC:323 SL:26
F8E4  90 05     BCC $F8EB                       A:40 X:9C Y:40 P:67 SP:F9 CYC:329 SL:26
F8E6  D0 03     BNE $F8EB                       A:40 X:9C Y:40 P:67 SP:F9 CYC:335 SL:26
F8E8  50 01     BVC $F8EB                       A:40 X:9C Y:40 P:67 SP:F9 CYC:  0 SL:27
F8EA  60        RTS                             A:40 X:9C Y:40 P:67 SP:F9 CYC:  6 SL:27
D3E2  E8        INX                             A:40 X:9C Y:40 P:67 SP:FB CYC: 24 SL:27
D3E3  A9 3F     LDA #$3F                        A:40 X:9D Y:40 P:E5 SP:FB CYC: 30 SL:27
D3E5  85 78     STA $78 = 40                    A:3F X:9D Y:40 P:65 SP:FB CYC: 36 SL:27
D3E7  20 EE F8  JSR $F8EE                       A:3F X:9D Y:40 P:65 SP:FB CYC: 45 SL:27
F8EE  B8        CLV                             A:3F X:9D Y:40 P:65 SP:F9 CYC: 63 SL:27
F8EF  60        RTS                             A:3F X:9D Y:40 P:25 SP:F9 CYC: 69 SL:27
D3EA  C4 78     CPY $78 = 3F                    A:3F X:9D Y:40 P:25 SP:FB CYC: 87 SL:27
D3EC  20 F0 F8  JSR $F8F0                       A:3F X:9D Y:40 P:25 SP:FB CYC: 96 SL:27
F8F0  F0 07     BEQ $F8F9                       A:3F X:9D Y:40 P:25 SP:F9 CYC:114 SL:27
F8F2  30 05     BMI $F8F9                       A:3F X:9D Y:40 P:25 SP:F9 CYC:120 SL:27
F8F4  90 03     BCC $F8F9                       A:3F X:9D Y:40 P:25 SP:F9 CYC:126 SL:27
F8F6  70 01     BVS $F8F9                       A:3F X:9D Y:40 P:25 SP:F9 CYC:132 SL:27
F8F8  60        RTS                             A:3F X:9D Y:40 P:25 SP:F9 CYC:138 SL:27
D3EF  E8        INX                             A:3F X:9D Y:40 P:25 SP:FB CYC:156 SL:27
D3F0  A9 41     LDA #$41                        A:3F X:9E Y:40 P:A5 SP:FB CYC:162 SL:27
D3F2  85 78     STA $78 = 3F                    A:41 X:9E Y:40 P:25 SP:FB CYC:168 SL:27
D3F4  C4 78     CPY $78 = 41                    A:41 X:9E Y:40 P:25 SP:FB CYC:177 SL:27
D3F6  20 FC F8  JSR $F8FC                       A:41 X:9E Y:40 P:A4 SP:FB CYC:186 SL:27
F8FC  F0 05     BEQ $F903                       A:41 X:9E Y:40 P:A4 SP:F9 CYC:204 SL:27
F8FE  10 03     BPL $F903                       A:41 X:9E Y:40 P:A4 SP:F9 CYC:210 SL:27
F900  10 01     BPL $F903                       A:41 X:9E Y:40 P:A4 SP:F9 CYC:216 SL:27
F902  60        RTS                             A:41 X:9E Y:40 P:A4 SP:F9 CYC:222 SL:27
D3F9  E8        INX                             A:41 X:9E Y:40 P:A4 SP:FB CYC:240 SL:27
D3FA  A9 00     LDA #$00                        A:41 X:9F Y:40 P:A4 SP:FB CYC:246 SL:27
D3FC  85 78     STA $78 = 41                    A:00 X:9F Y:40 P:26 SP:FB CYC:252 SL:27
D3FE  20 06 F9  JSR $F906                       A:00 X:9F Y:40 P:26 SP:FB CYC:261 SL:27
F906  A0 80     LDY #$80                        A:00 X:9F Y:40 P:26 SP:F9 CYC:279 SL:27
F908  60        RTS                             A:00 X:9F Y:80 P:A4 SP:F9 CYC:285 SL:27
D401  C4 78     CPY $78 = 00                    A:00 X:9F Y:80 P:A4 SP:FB CYC:303 SL:27
D403  20 09 F9  JSR $F909                       A:00 X:9F Y:80 P:A5 SP:FB CYC:312 SL:27
F909  F0 05     BEQ $F910                       A:00 X:9F Y:80 P:A5 SP:F9 CYC:330 SL:27
F90B  10 03     BPL $F910                       A:00 X:9F Y:80 P:A5 SP:F9 CYC:336 SL:27
F90D  90 01     BCC $F910                       A:00 X:9F Y:80 P:A5 SP:F9 CYC:  1 SL:28
F90F  60        RTS                             A:00 X:9F Y:80 P:A5 SP:F9 CYC:  7 SL:28
D406  E8        INX                             A:00 X:9F Y:80 P:A5 SP:FB CYC: 25 SL:28
D407  A9 80     LDA #$80                        A:00 X:A0 Y:80 P:A5 SP:FB CYC: 31 SL:28
D409  85 78     STA $78 = 00                    A:80 X:A0 Y:80 P:A5 SP:FB CYC: 37 SL:28
D40B  C4 78     CPY $78 = 80                    A:80 X:A0 Y:80 P:A5 SP:FB CYC: 46 SL:28
D40D  20 13 F9  JSR $F913                       A:80 X:A0 Y:80 P:27 SP:FB CYC: 55 SL:28
F913  D0 05     BNE $F91A                       A:80 X:A0 Y:80 P:27 SP:F9 CYC: 73 SL:28
F915  30 03     BMI $F91A                       A:80 X:A0 Y:80 P:27 SP:F9 CYC: 79 SL:28
F917  90 01     BCC $F91A                       A:80 X:A0 Y:80 P:27 SP:F9 CYC: 85 SL:28
F919  60        RTS                             A:80 X:A0 Y:80 P:27 SP:F9 CYC: 91 SL:28
D410  E8        INX                             A:80 X:A0 Y:80 P:27 SP:FB CYC:109 SL:28
D411  A9 81     LDA #$81                        A:80 X:A1 Y:80 P:A5 SP:FB CYC:115 SL:28
D413  85 78     STA $78 = 80                    A:81 X:A1 Y:80 P:A5 SP:FB CYC:121 SL:28
D415  C4 78     CPY $78 = 81                    A:81 X:A1 Y:80 P:A5 SP:FB CYC:130 SL:28
D417  20 1D F9  JSR $F91D                       A:81 X:A1 Y:80 P:A4 SP:FB CYC:139 SL:28
F91D  B0 05     BCS $F924                       A:81 X:A1 Y:80 P:A4 SP:F9 CYC:157 SL:28
F91F  F0 03     BEQ $F924                       A:81 X:A1 Y:80 P:A4 SP:F9 CYC:163 SL:28
F921  10 01     BPL $F924                       A:81 X:A1 Y:80 P:A4 SP:F9 CYC:169 SL:28
F923  60        RTS                             A:81 X:A1 Y:80 P:A4 SP:F9 CYC:175 SL:28
D41A  E8        INX                             A:81 X:A1 Y:80 P:A4 SP:FB CYC:193 SL:28
D41B  A9 7F     LDA #$7F                        A:81 X:A2 Y:80 P:A4 SP:FB CYC:199 SL:28
D41D  85 78     STA $78 = 81                    A:7F X:A2 Y:80 P:24 SP:FB CYC:205 SL:28
D41F  C4 78     CPY $78 = 7F                    A:7F X:A2 Y:80 P:24 SP:FB CYC:214 SL:28
D421  20 27 F9  JSR $F927                       A:7F X:A2 Y:80 P:25 SP:FB CYC:223 SL:28
F927  90 05     BCC $F92E                       A:7F X:A2 Y:80 P:25 SP:F9 CYC:241 SL:28
F929  F0 03     BEQ $F92E                       A:7F X:A2 Y:80 P:25 SP:F9 CYC:247 SL:28
F92B  30 01     BMI $F92E                       A:7F X:A2 Y:80 P:25 SP:F9 CYC:253 SL:28
F92D  60        RTS                             A:7F X:A2 Y:80 P:25 SP:F9 CYC:259 SL:28
D424  E8        INX                             A:7F X:A2 Y:80 P:25 SP:FB CYC:277 SL:28
D425  8A        TXA                             A:7F X:A3 Y:80 P:A5 SP:FB CYC:283 SL:28
D426  A8        TAY                             A:A3 X:A3 Y:80 P:A5 SP:FB CYC:289 SL:28
D427  20 90 F9  JSR $F990                       A:A3 X:A3 Y:A3 P:A5 SP:FB CYC:295 SL:28
F990  A2 55     LDX #$55                        A:A3 X:A3 Y:A3 P:A5 SP:F9 CYC:313 SL:28
F992  A9 FF     LDA #$FF                        A:A3 X:55 Y:A3 P:25 SP:F9 CYC:319 SL:28
F994  85 01     STA $01 = FF                    A:FF X:55 Y:A3 P:A5 SP:F9 CYC:325 SL:28
F996  EA        NOP                             A:FF X:55 Y:A3 P:A5 SP:F9 CYC:334 SL:28
F997  24 01     BIT $01 = FF                    A:FF X:55 Y:A3 P:A5 SP:F9 CYC:340 SL:28
F999  38        SEC                             A:FF X:55 Y:A3 P:E5 SP:F9 CYC:  8 SL:29
F99A  A9 01     LDA #$01                        A:FF X:55 Y:A3 P:E5 SP:F9 CYC: 14 SL:29
F99C  60        RTS                             A:01 X:55 Y:A3 P:65 SP:F9 CYC: 20 SL:29
D42A  85 78     STA $78 = 7F                    A:01 X:55 Y:A3 P:65 SP:FB CYC: 38 SL:29
D42C  46 78     LSR $78 = 01                    A:01 X:55 Y:A3 P:65 SP:FB CYC: 47 SL:29
D42E  A5 78     LDA $78 = 00                    A:01 X:55 Y:A3 P:67 SP:FB CYC: 62 SL:29
D430  20 9D F9  JSR $F99D                       A:00 X:55 Y:A3 P:67 SP:FB CYC: 71 SL:29
F99D  90 1B     BCC $F9BA                       A:00 X:55 Y:A3 P:67 SP:F9 CYC: 89 SL:29
F99F  D0 19     BNE $F9BA                       A:00 X:55 Y:A3 P:67 SP:F9 CYC: 95 SL:29
F9A1  30 17     BMI $F9BA                       A:00 X:55 Y:A3 P:67 SP:F9 CYC:101 SL:29
F9A3  50 15     BVC $F9BA                       A:00 X:55 Y:A3 P:67 SP:F9 CYC:107 SL:29
F9A5  C9 00     CMP #$00                        A:00 X:55 Y:A3 P:67 SP:F9 CYC:113 SL:29
F9A7  D0 11     BNE $F9BA                       A:00 X:55 Y:A3 P:67 SP:F9 CYC:119 SL:29
F9A9  B8        CLV                             A:00 X:55 Y:A3 P:67 SP:F9 CYC:125 SL:29
F9AA  A9 AA     LDA #$AA                        A:00 X:55 Y:A3 P:27 SP:F9 CYC:131 SL:29
F9AC  60        RTS                             A:AA X:55 Y:A3 P:A5 SP:F9 CYC:137 SL:29
D433  C8        INY                             A:AA X:55 Y:A3 P:A5 SP:FB CYC:155 SL:29
D434  85 78     STA $78 = 00                    A:AA X:55 Y:A4 P:A5 SP:FB CYC:161 SL:29
D436  46 78     LSR $78 = AA                    A:AA X:55 Y:A4 P:A5 SP:FB CYC:170 SL:29
D438  A5 78     LDA $78 = 55                    A:AA X:55 Y:A4 P:24 SP:FB CYC:185 SL:29
D43A  20 AD F9  JSR $F9AD                       A:55 X:55 Y:A4 P:24 SP:FB CYC:194 SL:29
F9AD  B0 0B     BCS $F9BA                       A:55 X:55 Y:A4 P:24 SP:F9 CYC:212 SL:29
F9AF  F0 09     BEQ $F9BA                       A:55 X:55 Y:A4 P:24 SP:F9 CYC:218 SL:29
F9B1  30 07     BMI $F9BA                       A:55 X:55 Y:A4 P:24 SP:F9 CYC:224 SL:29
F9B3  70 05     BVS $F9BA                       A:55 X:55 Y:A4 P:24 SP:F9 CYC:230 SL:29
F9B5  C9 55     CMP #$55                        A:55 X:55 Y:A4 P:24 SP:F9 CYC:236 SL:29
F9B7  D0 01     BNE $F9BA                       A:55 X:55 Y:A4 P:27 SP:F9 CYC:242 SL:29
F9B9  60        RTS                             A:55 X:55 Y:A4 P:27 SP:F9 CYC:248 SL:29
D43D  C8        INY                             A:55 X:55 Y:A4 P:27 SP:FB CYC:266 SL:29
D43E  20 BD F9  JSR $F9BD                       A:55 X:55 Y:A5 P:A5 SP:FB CYC:272 SL:29
F9BD  24 01     BIT $01 = FF                    A:55 X:55 Y:A5 P:A5 SP:F9 CYC:290 SL:29
F9BF  38        SEC                             A:55 X:55 Y:A5 P:E5 SP:F9 CYC:299 SL:29
F9C0  A9 80     LDA #$80                        A:55 X:55 Y:A5 P:E5 SP:F9 CYC:305 SL:29
F9C2  60        RTS                             A:80 X:55 Y:A5 P:E5 SP:F9 CYC:311 SL:29
D441  85 78     STA $78 = 55                    A:80 X:55 Y:A5 P:E5 SP:FB CYC:329 SL:29
D443  06 78     ASL $78 = 80                    A:80 X:55 Y:A5 P:E5 SP:FB CYC:338 SL:29
D445  A5 78     LDA $78 = 00                    A:80 X:55 Y:A5 P:67 SP:FB CYC: 12 SL:30
D447  20 C3 F9  JSR $F9C3                       A:00 X:55 Y:A5 P:67 SP:FB CYC: 21 SL:30
F9C3  90 1C     BCC $F9E1                       A:00 X:55 Y:A5 P:67 SP:F9 CYC: 39 SL:30
F9C5  D0 1A     BNE $F9E1                       A:00 X:55 Y:A5 P:67 SP:F9 CYC: 45 SL:30
F9C7  30 18     BMI $F9E1                       A:00 X:55 Y:A5 P:67 SP:F9 CYC: 51 SL:30
F9C9  50 16     BVC $F9E1                       A:00 X:55 Y:A5 P:67 SP:F9 CYC: 57 SL:30
F9CB  C9 00     CMP #$00                        A:00 X:55 Y:A5 P:67 SP:F9 CYC: 63 SL:30
F9CD  D0 12     BNE $F9E1                       A:00 X:55 Y:A5 P:67 SP:F9 CYC: 69 SL:30
F9CF  B8        CLV                             A:00 X:55 Y:A5 P:67 SP:F9 CYC: 75 SL:30
F9D0  A9 55     LDA #$55                        A:00 X:55 Y:A5 P:27 SP:F9 CYC: 81 SL:30
F9D2  38        SEC                             A:55 X:55 Y:A5 P:25 SP:F9 CYC: 87 SL:30
F9D3  60        RTS                             A:55 X:55 Y:A5 P:25 SP:F9 CYC: 93 SL:30
D44A  C8        INY                             A:55 X:55 Y:A5 P:25 SP:FB CYC:111 SL:30
D44B  85 78     STA $78 = 00                    A:55 X:55 Y:A6 P:A5 SP:FB CYC:117 SL:30
D44D  06 78     ASL $78 = 55                    A:55 X:55 Y:A6 P:A5 SP:FB CYC:126 SL:30
D44F  A5 78     LDA $78 = AA                    A:55 X:55 Y:A6 P:A4 SP:FB CYC:141 SL:30
D451  20 D4 F9  JSR $F9D4                       A:AA X:55 Y:A6 P:A4 SP:FB CYC:150 SL:30
F9D4  B0 0B     BCS $F9E1                       A:AA X:55 Y:A6 P:A4 SP:F9 CYC:168 SL:30
F9D6  F0 09     BEQ $F9E1                       A:AA X:55 Y:A6 P:A4 SP:F9 CYC:174 SL:30
F9D8  10 07     BPL $F9E1                       A:AA X:55 Y:A6 P:A4 SP:F9 CYC:180 SL:30
F9DA  70 05     BVS $F9E1                       A:AA X:55 Y:A6 P:A4 SP:F9 CYC:186 SL:30
F9DC  C9 AA     CMP #$AA                        A:AA X:55 Y:A6 P:A4 SP:F9 CYC:192 SL:30
F9DE  D0 01     BNE $F9E1                       A:AA X:55 Y:A6 P:27 SP:F9 CYC:198 SL:30
F9E0  60        RTS                             A:AA X:55 Y:A6 P:27 SP:F9 CYC:204 SL:30
D454  C8        INY                             A:AA X:55 Y:A6 P:27 SP:FB CYC:222 SL:30
D455  20 E4 F9  JSR $F9E4                       A:AA X:55 Y:A7 P:A5 SP:FB CYC:228 SL:30
F9E4  24 01     BIT $01 = FF                    A:AA X:55 Y:A7 P:A5 SP:F9 CYC:246 SL:30
F9E6  38        SEC                             A:AA X:55 Y:A7 P:E5 SP:F9 CYC:255 SL:30
F9E7  A9 01     LDA #$01                        A:AA X:55 Y:A7 P:E5 SP:F9 CYC:261 SL:30
F9E9  60        RTS                             A:01 X:55 Y:A7 P:65 SP:F9 CYC:267 SL:30
D458  85 78     STA $78 = AA                    A:01 X:55 Y:A7 P:65 SP:FB CYC:285 SL:30
D45A  66 78     ROR $78 = 01                    A:01 X:55 Y:A7 P:65 SP:FB CYC:294 SL:30
D45C  A5 78     LDA $78 = 80                    A:01 X:55 Y:A7 P:E5 SP:FB CYC:309 SL:30
D45E  20 EA F9  JSR $F9EA                       A:80 X:55 Y:A7 P:E5 SP:FB CYC:318 SL:30
F9EA  90 1C     BCC $FA08                       A:80 X:55 Y:A7 P:E5 SP:F9 CYC:336 SL:30
F9EC  F0 1A     BEQ $FA08                       A:80 X:55 Y:A7 P:E5 SP:F9 CYC:  1 SL:31
F9EE  10 18     BPL $FA08                       A:80 X:55 Y:A7 P:E5 SP:F9 CYC:  7 SL:31
F9F0  50 16     BVC $FA08                       A:80 X:55 Y:A7 P:E5 SP:F9 CYC: 13 SL:31
F9F2  C9 80     CMP #$80                        A:80 X:55 Y:A7 P:E5 SP:F9 CYC: 19 SL:31
F9F4  D0 12     BNE $FA08                       A:80 X:55 Y:A7 P:67 SP:F9 CYC: 25 SL:31
F9F6  B8        CLV                             A:80 X:55 Y:A7 P:67 SP:F9 CYC: 31 SL:31
F9F7  18        CLC                             A:80 X:55 Y:A7 P:27 SP:F9 CYC: 37 SL:31
F9F8  A9 55     LDA #$55                        A:80 X:55 Y:A7 P:26 SP:F9 CYC: 43 SL:31
F9FA  60        RTS                             A:55 X:55 Y:A7 P:24 SP:F9 CYC: 49 SL:31
D461  C8        INY                             A:55 X:55 Y:A7 P:24 SP:FB CYC: 67 SL:31
D462  85 78     STA $78 = 80                    A:55 X:55 Y:A8 P:A4 SP:FB CYC: 73 SL:31
D464  66 78     ROR $78 = 55                    A:55 X:55 Y:A8 P:A4 SP:FB CYC: 82 SL:31
D466  A5 78     LDA $78 = 2A                    A:55 X:55 Y:A8 P:25 SP:FB CYC: 97 SL:31
D468  20 FB F9  JSR $F9FB                       A:2A X:55 Y:A8 P:25 SP:FB CYC:106 SL:31
F9FB  90 0B     BCC $FA08                       A:2A X:55 Y:A8 P:25 SP:F9 CYC:124 SL:31
F9FD  F0 09     BEQ $FA08                       A:2A X:55 Y:A8 P:25 SP:F9 CYC:130 SL:31
F9FF  30 07     BMI $FA08                       A:2A X:55 Y:A8 P:25 SP:F9 CYC:136 SL:31
FA01  70 05     BVS $FA08                       A:2A X:55 Y:A8 P:25 SP:F9 CYC:142 SL:31
FA03  C9 2A     CMP #$2A                        A:2A X:55 Y:A8 P:25 SP:F9 CYC:148 SL:31
FA05  D0 01     BNE $FA08                       A:2A X:55 Y:A8 P:27 SP:F9 CYC:154 SL:31
FA07  60        RTS                             A:2A X:55 Y:A8 P:27 SP:F9 CYC:160 SL:31
D46B  C8        INY                             A:2A X:55 Y:A8 P:27 SP:FB CYC:178 SL:31
D46C  20 0A FA  JSR $FA0A                       A:2A X:55 Y:A9 P:A5 SP:FB CYC:184 SL:31
FA0A  24 01     BIT $01 = FF                    A:2A X:55 Y:A9 P:A5 SP:F9 CYC:202 SL:31
FA0C  38        SEC                             A:2A X:55 Y:A9 P:E5 SP:F9 CYC:211 SL:31
FA0D  A9 80     LDA #$80                        A:2A X:55 Y:A9 P:E5 SP:F9 CYC:217 SL:31
FA0F  60        RTS                             A:80 X:55 Y:A9 P:E5 SP:F9 CYC:223 SL:31
D46F  85 78     STA $78 = 2A                    A:80 X:55 Y:A9 P:E5 SP:FB CYC:241 SL:31
D471  26 78     ROL $78 = 80                    A:80 X:55 Y:A9 P:E5 SP:FB CYC:250 SL:31
D473  A5 78     LDA $78 = 01                    A:80 X:55 Y:A9 P:65 SP:FB CYC:265 SL:31
D475  20 10 FA  JSR $FA10                       A:01 X:55 Y:A9 P:65 SP:FB CYC:274 SL:31
FA10  90 1C     BCC $FA2E                       A:01 X:55 Y:A9 P:65 SP:F9 CYC:292 SL:31
FA12  F0 1A     BEQ $FA2E                       A:01 X:55 Y:A9 P:65 SP:F9 CYC:298 SL:31
FA14  30 18     BMI $FA2E                       A:01 X:55 Y:A9 P:65 SP:F9 CYC:304 SL:31
FA16  50 16     BVC $FA2E                       A:01 X:55 Y:A9 P:65 SP:F9 CYC:310 SL:31
FA18  C9 01     CMP #$01                        A:01 X:55 Y:A9 P:65 SP:F9 CYC:316 SL:31
FA1A  D0 12     BNE $FA2E                       A:01 X:55 Y:A9 P:67 SP:F9 CYC:322 SL:31
FA1C  B8        CLV                             A:01 X:55 Y:A9 P:67 SP:F9 CYC:328 SL:31
FA1D  18        CLC                             A:01 X:55 Y:A9 P:27 SP:F9 CYC:334 SL:31
FA1E  A9 55     LDA #$55                        A:01 X:55 Y:A9 P:26 SP:F9 CYC:340 SL:31
FA20  60        RTS                             A:55 X:55 Y:A9 P:24 SP:F9 CYC:  5 SL:32
D478  C8        INY                             A:55 X:55 Y:A9 P:24 SP:FB CYC: 23 SL:32
D479  85 78     STA $78 = 01                    A:55 X:55 Y:AA P:A4 SP:FB CYC: 29 SL:32
D47B  26 78     ROL $78 = 55                    A:55 X:55 Y:AA P:A4 SP:FB CYC: 38 SL:32
D47D  A5 78     LDA $78 = AA                    A:55 X:55 Y:AA P:A4 SP:FB CYC: 53 SL:32
D47F  20 21 FA  JSR $FA21                       A:AA X:55 Y:AA P:A4 SP:FB CYC: 62 SL:32
FA21  B0 0B     BCS $FA2E                       A:AA X:55 Y:AA P:A4 SP:F9 CYC: 80 SL:32
FA23  F0 09     BEQ $FA2E                       A:AA X:55 Y:AA P:A4 SP:F9 CYC: 86 SL:32
FA25  10 07     BPL $FA2E                       A:AA X:55 Y:AA P:A4 SP:F9 CYC: 92 SL:32
FA27  70 05     BVS $FA2E                       A:AA X:55 Y:AA P:A4 SP:F9 CYC: 98 SL:32
FA29  C9 AA     CMP #$AA                        A:AA X:55 Y:AA P:A4 SP:F9 CYC:104 SL:32
FA2B  D0 01     BNE $FA2E                       A:AA X:55 Y:AA P:27 SP:F9 CYC:110 SL:32
FA2D  60        RTS                             A:AA X:55 Y:AA P:27 SP:F9 CYC:116 SL:32
D482  A9 FF     LDA #$FF                        A:AA X:55 Y:AA P:27 SP:FB CYC:134 SL:32
D484  85 78     STA $78 = AA                    A:FF X:55 Y:AA P:A5 SP:FB CYC:140 SL:32
D486  85 01     STA $01 = FF                    A:FF X:55 Y:AA P:A5 SP:FB CYC:149 SL:32
D488  24 01     BIT $01 = FF                    A:FF X:55 Y:AA P:A5 SP:FB CYC:158 SL:32
D48A  38        SEC                             A:FF X:55 Y:AA P:E5 SP:FB CYC:167 SL:32
D48B  E6 78     INC $78 = FF                    A:FF X:55 Y:AA P:E5 SP:FB CYC:173 SL:32
D48D  D0 0C     BNE $D49B                       A:FF X:55 Y:AA P:67 SP:FB CYC:188 SL:32
D48F  30 0A     BMI $D49B                       A:FF X:55 Y:AA P:67 SP:FB CYC:194 SL:32
D491  50 08     BVC $D49B                       A:FF X:55 Y:AA P:67 SP:FB CYC:200 SL:32
D493  90 06     BCC $D49B                       A:FF X:55 Y:AA P:67 SP:FB CYC:206 SL:32
D495  A5 78     LDA $78 = 00                    A:FF X:55 Y:AA P:67 SP:FB CYC:212 SL:32
D497  C9 00     CMP #$00                        A:00 X:55 Y:AA P:67 SP:FB CYC:221 SL:32
D499  F0 04     BEQ $D49F                       A:00 X:55 Y:AA P:67 SP:FB CYC:227 SL:32
D49F  A9 7F     LDA #$7F                        A:00 X:55 Y:AA P:67 SP:FB CYC:236 SL:32
D4A1  85 78     STA $78 = 00                    A:7F X:55 Y:AA P:65 SP:FB CYC:242 SL:32
D4A3  B8        CLV                             A:7F X:55 Y:AA P:65 SP:FB CYC:251 SL:32
D4A4  18        CLC                             A:7F X:55 Y:AA P:25 SP:FB CYC:257 SL:32
D4A5  E6 78     INC $78 = 7F                    A:7F X:55 Y:AA P:24 SP:FB CYC:263 SL:32
D4A7  F0 0C     BEQ $D4B5                       A:7F X:55 Y:AA P:A4 SP:FB CYC:278 SL:32
D4A9  10 0A     BPL $D4B5                       A:7F X:55 Y:AA P:A4 SP:FB CYC:284 SL:32
D4AB  70 08     BVS $D4B5                       A:7F X:55 Y:AA P:A4 SP:FB CYC:290 SL:32
D4AD  B0 06     BCS $D4B5                       A:7F X:55 Y:AA P:A4 SP:FB CYC:296 SL:32
D4AF  A5 78     LDA $78 = 80                    A:7F X:55 Y:AA P:A4 SP:FB CYC:302 SL:32
D4B1  C9 80     CMP #$80                        A:80 X:55 Y:AA P:A4 SP:FB CYC:311 SL:32
D4B3  F0 04     BEQ $D4B9                       A:80 X:55 Y:AA P:27 SP:FB CYC:317 SL:32
D4B9  A9 00     LDA #$00                        A:80 X:55 Y:AA P:27 SP:FB CYC:326 SL:32
D4BB  85 78     STA $78 = 80                    A:00 X:55 Y:AA P:27 SP:FB CYC:332 SL:32
D4BD  24 01     BIT $01 = FF                    A:00 X:55 Y:AA P:27 SP:FB CYC:  0 SL:33
D4BF  38        SEC                             A:00 X:55 Y:AA P:E7 SP:FB CYC:  9 SL:33
D4C0  C6 78     DEC $78 = 00                    A:00 X:55 Y:AA P:E7 SP:FB CYC: 15 SL:33
D4C2  F0 0C     BEQ $D4D0                       A:00 X:55 Y:AA P:E5 SP:FB CYC: 30 SL:33
D4C4  10 0A     BPL $D4D0                       A:00 X:55 Y:AA P:E5 SP:FB CYC: 36 SL:33
D4C6  50 08     BVC $D4D0                       A:00 X:55 Y:AA P:E5 SP:FB CYC: 42 SL:33
D4C8  90 06     BCC $D4D0                       A:00 X:55 Y:AA P:E5 SP:FB CYC: 48 SL:33
D4CA  A5 78     LDA $78 = FF                    A:00 X:55 Y:AA P:E5 SP:FB CYC: 54 SL:33
D4CC  C9 FF     CMP #$FF                        A:FF X:55 Y:AA P:E5 SP:FB CYC: 63 SL:33
D4CE  F0 04     BEQ $D4D4                       A:FF X:55 Y:AA P:67 SP:FB CYC: 69 SL:33
D4D4  A9 80     LDA #$80                        A:FF X:55 Y:AA P:67 SP:FB CYC: 78 SL:33
D4D6  85 78     STA $78 = FF                    A:80 X:55 Y:AA P:E5 SP:FB CYC: 84 SL:33
D4D8  B8        CLV                             A:80 X:55 Y:AA P:E5 SP:FB CYC: 93 SL:33
D4D9  18        CLC                             A:80 X:55 Y:AA P:A5 SP:FB CYC: 99 SL:33
D4DA  C6 78     DEC $78 = 80                    A:80 X:55 Y:AA P:A4 SP:FB CYC:105 SL:33
D4DC  F0 0C     BEQ $D4EA                       A:80 X:55 Y:AA P:24 SP:FB CYC:120 SL:33
D4DE  30 0A     BMI $D4EA                       A:80 X:55 Y:AA P:24 SP:FB CYC:126 SL:33
D4E0  70 08     BVS $D4EA                       A:80 X:55 Y:AA P:24 SP:FB CYC:132 SL:33
D4E2  B0 06     BCS $D4EA                       A:80 X:55 Y:AA P:24 SP:FB CYC:138 SL:33
D4E4  A5 78     LDA $78 = 7F                    A:80 X:55 Y:AA P:24 SP:FB CYC:144 SL:33
D4E6  C9 7F     CMP #$7F                        A:7F X:55 Y:AA P:24 SP:FB CYC:153 SL:33
D4E8  F0 04     BEQ $D4EE                       A:7F X:55 Y:AA P:27 SP:FB CYC:159 SL:33
D4EE  A9 01     LDA #$01                        A:7F X:55 Y:AA P:27 SP:FB CYC:168 SL:33
D4F0  85 78     STA $78 = 7F                    A:01 X:55 Y:AA P:25 SP:FB CYC:174 SL:33
D4F2  C6 78     DEC $78 = 01                    A:01 X:55 Y:AA P:25 SP:FB CYC:183 SL:33
D4F4  F0 04     BEQ $D4FA                       A:01 X:55 Y:AA P:27 SP:FB CYC:198 SL:33
D4FA  60        RTS                             A:01 X:55 Y:AA P:27 SP:FB CYC:207 SL:33
C615  20 FB D4  JSR $D4FB                       A:01 X:55 Y:AA P:27 SP:FD CYC:225 SL:33
D4FB  A9 55     LDA #$55                        A:01 X:55 Y:AA P:27 SP:FB CYC:243 SL:33
D4FD  8D 78 06  STA $0678 = 00                  A:55 X:55 Y:AA P:25 SP:FB CYC:249 SL:33
D500  A9 FF     LDA #$FF                        A:55 X:55 Y:AA P:25 SP:FB CYC:261 SL:33
D502  85 01     STA $01 = FF                    A:FF X:55 Y:AA P:A5 SP:FB CYC:267 SL:33
D504  24 01     BIT $01 = FF                    A:FF X:55 Y:AA P:A5 SP:FB CYC:276 SL:33
D506  A0 11     LDY #$11                        A:FF X:55 Y:AA P:E5 SP:FB CYC:285 SL:33
D508  A2 23     LDX #$23                        A:FF X:55 Y:11 P:65 SP:FB CYC:291 SL:33
D50A  A9 00     LDA #$00                        A:FF X:23 Y:11 P:65 SP:FB CYC:297 SL:33
D50C  AD 78 06  LDA $0678 = 55                  A:00 X:23 Y:11 P:67 SP:FB CYC:303 SL:33
D50F  F0 10     BEQ $D521                       A:55 X:23 Y:11 P:65 SP:FB CYC:315 SL:33
D511  30 0E     BMI $D521                       A:55 X:23 Y:11 P:65 SP:FB CYC:321 SL:33
D513  C9 55     CMP #$55                        A:55 X:23 Y:11 P:65 SP:FB CYC:327 SL:33
D515  D0 0A     BNE $D521                       A:55 X:23 Y:11 P:67 SP:FB CYC:333 SL:33
D517  C0 11     CPY #$11                        A:55 X:23 Y:11 P:67 SP:FB CYC:339 SL:33
D519  D0 06     BNE $D521                       A:55 X:23 Y:11 P:67 SP:FB CYC:  4 SL:34
D51B  E0 23     CPX #$23                        A:55 X:23 Y:11 P:67 SP:FB CYC: 10 SL:34
D51D  50 02     BVC $D521                       A:55 X:23 Y:11 P:67 SP:FB CYC: 16 SL:34
D51F  F0 04     BEQ $D525                       A:55 X:23 Y:11 P:67 SP:FB CYC: 22 SL:34
D525  A9 46     LDA #$46                        A:55 X:23 Y:11 P:67 SP:FB CYC: 31 SL:34
D527  24 01     BIT $01 = FF                    A:46 X:23 Y:11 P:65 SP:FB CYC: 37 SL:34
D529  8D 78 06  STA $0678 = 55                  A:46 X:23 Y:11 P:E5 SP:FB CYC: 46 SL:34
D52C  F0 0B     BEQ $D539                       A:46 X:23 Y:11 P:E5 SP:FB CYC: 58 SL:34
D52E  10 09     BPL $D539                       A:46 X:23 Y:11 P:E5 SP:FB CYC: 64 SL:34
D530  50 07     BVC $D539                       A:46 X:23 Y:11 P:E5 SP:FB CYC: 70 SL:34
D532  AD 78 06  LDA $0678 = 46                  A:46 X:23 Y:11 P:E5 SP:FB CYC: 76 SL:34
D535  C9 46     CMP #$46                        A:46 X:23 Y:11 P:65 SP:FB CYC: 88 SL:34
D537  F0 04     BEQ $D53D                       A:46 X:23 Y:11 P:67 SP:FB CYC: 94 SL:34
D53D  A9 55     LDA #$55                        A:46 X:23 Y:11 P:67 SP:FB CYC:103 SL:34
D53F  8D 78 06  STA $0678 = 46                  A:55 X:23 Y:11 P:65 SP:FB CYC:109 SL:34
D542  24 01     BIT $01 = FF                    A:55 X:23 Y:11 P:65 SP:FB CYC:121 SL:34
D544  A9 11     LDA #$11                        A:55 X:23 Y:11 P:E5 SP:FB CYC:130 SL:34
D546  A2 23     LDX #$23                        A:11 X:23 Y:11 P:65 SP:FB CYC:136 SL:34
D548  A0 00     LDY #$00                        A:11 X:23 Y:11 P:65 SP:FB CYC:142 SL:34
D54A  AC 78 06  LDY $0678 = 55                  A:11 X:23 Y:00 P:67 SP:FB CYC:148 SL:34
D54D  F0 10     BEQ $D55F                       A:11 X:23 Y:55 P:65 SP:FB CYC:160 SL:34
D54F  30 0E     BMI $D55F                       A:11 X:23 Y:55 P:65 SP:FB CYC:166 SL:34
D551  C0 55     CPY #$55                        A:11 X:23 Y:55 P:65 SP:FB CYC:172 SL:34
D553  D0 0A     BNE $D55F                       A:11 X:23 Y:55 P:67 SP:FB CYC:178 SL:34
D555  C9 11     CMP #$11                        A:11 X:23 Y:55 P:67 SP:FB CYC:184 SL:34
D557  D0 06     BNE $D55F                       A:11 X:23 Y:55 P:67 SP:FB CYC:190 SL:34
D559  E0 23     CPX #$23                        A:11 X:23 Y:55 P:67 SP:FB CYC:196 SL:34
D55B  50 02     BVC $D55F                       A:11 X:23 Y:55 P:67 SP:FB CYC:202 SL:34
D55D  F0 04     BEQ $D563                       A:11 X:23 Y:55 P:67 SP:FB CYC:208 SL:34
D563  A0 46     LDY #$46                        A:11 X:23 Y:55 P:67 SP:FB CYC:217 SL:34
D565  24 01     BIT $01 = FF                    A:11 X:23 Y:46 P:65 SP:FB CYC:223 SL:34
D567  8C 78 06  STY $0678 = 55                  A:11 X:23 Y:46 P:E5 SP:FB CYC:232 SL:34
D56A  F0 0B     BEQ $D577                       A:11 X:23 Y:46 P:E5 SP:FB CYC:244 SL:34
D56C  10 09     BPL $D577                       A:11 X:23 Y:46 P:E5 SP:FB CYC:250 SL:34
D56E  50 07     BVC $D577                       A:11 X:23 Y:46 P:E5 SP:FB CYC:256 SL:34
D570  AC 78 06  LDY $0678 = 46                  A:11 X:23 Y:46 P:E5 SP:FB CYC:262 SL:34
D573  C0 46     CPY #$46                        A:11 X:23 Y:46 P:65 SP:FB CYC:274 SL:34
D575  F0 04     BEQ $D57B                       A:11 X:23 Y:46 P:67 SP:FB CYC:280 SL:34
D57B  24 01     BIT $01 = FF                    A:11 X:23 Y:46 P:67 SP:FB CYC:289 SL:34
D57D  A9 55     LDA #$55                        A:11 X:23 Y:46 P:E5 SP:FB CYC:298 SL:34
D57F  8D 78 06  STA $0678 = 46                  A:55 X:23 Y:46 P:65 SP:FB CYC:304 SL:34
D582  A0 11     LDY #$11                        A:55 X:23 Y:46 P:65 SP:FB CYC:316 SL:34
D584  A9 23     LDA #$23                        A:55 X:23 Y:11 P:65 SP:FB CYC:322 SL:34
D586  A2 00     LDX #$00                        A:23 X:23 Y:11 P:65 SP:FB CYC:328 SL:34
D588  AE 78 06  LDX $0678 = 55                  A:23 X:00 Y:11 P:67 SP:FB CYC:334 SL:34
D58B  F0 10     BEQ $D59D                       A:23 X:55 Y:11 P:65 SP:FB CYC:  5 SL:35
D58D  30 0E     BMI $D59D                       A:23 X:55 Y:11 P:65 SP:FB CYC: 11 SL:35
D58F  E0 55     CPX #$55                        A:23 X:55 Y:11 P:65 SP:FB CYC: 17 SL:35
D591  D0 0A     BNE $D59D                       A:23 X:55 Y:11 P:67 SP:FB CYC: 23 SL:35
D593  C0 11     CPY #$11                        A:23 X:55 Y:11 P:67 SP:FB CYC: 29 SL:35
D595  D0 06     BNE $D59D                       A:23 X:55 Y:11 P:67 SP:FB CYC: 35 SL:35
D597  C9 23     CMP #$23                        A:23 X:55 Y:11 P:67 SP:FB CYC: 41 SL:35
D599  50 02     BVC $D59D                       A:23 X:55 Y:11 P:67 SP:FB CYC: 47 SL:35
D59B  F0 04     BEQ $D5A1                       A:23 X:55 Y:11 P:67 SP:FB CYC: 53 SL:35
D5A1  A2 46     LDX #$46                        A:23 X:55 Y:11 P:67 SP:FB CYC: 62 SL:35
D5A3  24 01     BIT $01 = FF                    A:23 X:46 Y:11 P:65 SP:FB CYC: 68 SL:35
D5A5  8E 78 06  STX $0678 = 55                  A:23 X:46 Y:11 P:E5 SP:FB CYC: 77 SL:35
D5A8  F0 0B     BEQ $D5B5                       A:23 X:46 Y:11 P:E5 SP:FB CYC: 89 SL:35
D5AA  10 09     BPL $D5B5                       A:23 X:46 Y:11 P:E5 SP:FB CYC: 95 SL:35
D5AC  50 07     BVC $D5B5                       A:23 X:46 Y:11 P:E5 SP:FB CYC:101 SL:35
D5AE  AE 78 06  LDX $0678 = 46                  A:23 X:46 Y:11 P:E5 SP:FB CYC:107 SL:35
D5B1  E0 46     CPX #$46                        A:23 X:46 Y:11 P:65 SP:FB CYC:119 SL:35
D5B3  F0 04     BEQ $D5B9                       A:23 X:46 Y:11 P:67 SP:FB CYC:125 SL:35
D5B9  A9 C0     LDA #$C0                        A:23 X:46 Y:11 P:67 SP:FB CYC:134 SL:35
D5BB  8D 78 06  STA $0678 = 46                  A:C0 X:46 Y:11 P:E5 SP:FB CYC:140 SL:35
D5BE  A2 33     LDX #$33                        A:C0 X:46 Y:11 P:E5 SP:FB CYC:152 SL:35
D5C0  A0 88     LDY #$88                        A:C0 X:33 Y:11 P:65 SP:FB CYC:158 SL:35
D5C2  A9 05     LDA #$05                        A:C0 X:33 Y:88 P:E5 SP:FB CYC:164 SL:35
D5C4  2C 78 06  BIT $0678 = C0                  A:05 X:33 Y:88 P:65 SP:FB CYC:170 SL:35
D5C7  10 10     BPL $D5D9                       A:05 X:33 Y:88 P:E7 SP:FB CYC:182 SL:35
D5C9  50 0E     BVC $D5D9                       A:05 X:33 Y:88 P:E7 SP:FB CYC:188 SL:35
D5CB  D0 0C     BNE $D5D9                       A:05 X:33 Y:88 P:E7 SP:FB CYC:194 SL:35
D5CD  C9 05     CMP #$05                        A:05 X:33 Y:88 P:E7 SP:FB CYC:200 SL:35
D5CF  D0 08     BNE $D5D9                       A:05 X:33 Y:88 P:67 SP:FB CYC:206 SL:35
D5D1  E0 33     CPX #$33                        A:05 X:33 Y:88 P:67 SP:FB CYC:212 SL:35
D5D3  D0 04     BNE $D5D9                       A:05 X:33 Y:88 P:67 SP:FB CYC:218 SL:35
D5D5  C0 88     CPY #$88                        A:05 X:33 Y:88 P:67 SP:FB CYC:224 SL:35
D5D7  F0 04     BEQ $D5DD                       A:05 X:33 Y:88 P:67 SP:FB CYC:230 SL:35
D5DD  A9 03     LDA #$03                        A:05 X:33 Y:88 P:67 SP:FB CYC:239 SL:35
D5DF  8D 78 06  STA $0678 = C0                  A:03 X:33 Y:88 P:65 SP:FB CYC:245 SL:35
D5E2  A9 01     LDA #$01                        A:03 X:33 Y:88 P:65 SP:FB CYC:257 SL:35
D5E4  2C 78 06  BIT $0678 = 03                  A:01 X:33 Y:88 P:65 SP:FB CYC:263 SL:35
D5E7  30 08     BMI $D5F1                       A:01 X:33 Y:88 P:25 SP:FB CYC:275 SL:35
D5E9  70 06     BVS $D5F1                       A:01 X:33 Y:88 P:25 SP:FB CYC:281 SL:35
D5EB  F0 04     BEQ $D5F1                       A:01 X:33 Y:88 P:25 SP:FB CYC:287 SL:35
D5ED  C9 01     CMP #$01                        A:01 X:33 Y:88 P:25 SP:FB CYC:293 SL:35
D5EF  F0 04     BEQ $D5F5                       A:01 X:33 Y:88 P:27 SP:FB CYC:299 SL:35
D5F5  A0 B8     LDY #$B8                        A:01 X:33 Y:88 P:27 SP:FB CYC:308 SL:35
D5F7  A9 AA     LDA #$AA                        A:01 X:33 Y:B8 P:A5 SP:FB CYC:314 SL:35
D5F9  8D 78 06  STA $0678 = 03                  A:AA X:33 Y:B8 P:A5 SP:FB CYC:320 SL:35
D5FC  20 B6 F7  JSR $F7B6                       A:AA X:33 Y:B8 P:A5 SP:FB CYC:332 SL:35
F7B6  18        CLC                             A:AA X:33 Y:B8 P:A5 SP:F9 CYC:  9 SL:36
F7B7  A9 FF     LDA #$FF                        A:AA X:33 Y:B8 P:A4 SP:F9 CYC: 15 SL:36
F7B9  85 01     STA $01 = FF                    A:FF X:33 Y:B8 P:A4 SP:F9 CYC: 21 SL:36
F7BB  24 01     BIT $01 = FF                    A:FF X:33 Y:B8 P:A4 SP:F9 CYC: 30 SL:36
F7BD  A9 55     LDA #$55                        A:FF X:33 Y:B8 P:E4 SP:F9 CYC: 39 SL:36
F7BF  60        RTS                             A:55 X:33 Y:B8 P:64 SP:F9 CYC: 45 SL:36
D5FF  0D 78 06  ORA $0678 = AA                  A:55 X:33 Y:B8 P:64 SP:FB CYC: 63 SL:36
D602  20 C0 F7  JSR $F7C0                       A:FF X:33 Y:B8 P:E4 SP:FB CYC: 75 SL:36
F7C0  B0 09     BCS $F7CB                       A:FF X:33 Y:B8 P:E4 SP:F9 CYC: 93 SL:36
F7C2  10 07     BPL $F7CB                       A:FF X:33 Y:B8 P:E4 SP:F9 CYC: 99 SL:36
F7C4  C9 FF     CMP #$FF                        A:FF X:33 Y:B8 P:E4 SP:F9 CYC:105 SL:36
F7C6  D0 03     BNE $F7CB                       A:FF X:33 Y:B8 P:67 SP:F9 CYC:111 SL:36
F7C8  50 01     BVC $F7CB                       A:FF X:33 Y:B8 P:67 SP:F9 CYC:117 SL:36
F7CA  60        RTS                             A:FF X:33 Y:B8 P:67 SP:F9 CYC:123 SL:36
D605  C8        INY                             A:FF X:33 Y:B8 P:67 SP:FB CYC:141 SL:36
D606  A9 00     LDA #$00                        A:FF X:33 Y:B9 P:E5 SP:FB CYC:147 SL:36
D608  8D 78 06  STA $0678 = AA                  A:00 X:33 Y:B9 P:67 SP:FB CYC:153 SL:36
D60B  20 CE F7  JSR $F7CE                       A:00 X:33 Y:B9 P:67 SP:FB CYC:165 SL:36
F7CE  38        SEC                             A:00 X:33 Y:B9 P:67 SP:F9 CYC:183 SL:36
F7CF  B8        CLV                             A:00 X:33 Y:B9 P:67 SP:F9 CYC:189 SL:36
F7D0  A9 00     LDA #$00                        A:00 X:33 Y:B9 P:27 SP:F9 CYC:195 SL:36
F7D2  60        RTS                             A:00 X:33 Y:B9 P:27 SP:F9 CYC:201 SL:36
D60E  0D 78 06  ORA $0678 = 00                  A:00 X:33 Y:B9 P:27 SP:FB CYC:219 SL:36
D611  20 D3 F7  JSR $F7D3                       A:00 X:33 Y:B9 P:27 SP:FB CYC:231 SL:36
F7D3  D0 07     BNE $F7DC                       A:00 X:33 Y:B9 P:27 SP:F9 CYC:249 SL:36
F7D5  70 05     BVS $F7DC                       A:00 X:33 Y:B9 P:27 SP:F9 CYC:255 SL:36
F7D7  90 03     BCC $F7DC                       A:00 X:33 Y:B9 P:27 SP:F9 CYC:261 SL:36
F7D9  30 01     BMI $F7DC                       A:00 X:33 Y:B9 P:27 SP:F9 CYC:267 SL:36
F7DB  60        RTS                             A:00 X:33 Y:B9 P:27 SP:F9 CYC:273 SL:36
D614  C8        INY                             A:00 X:33 Y:B9 P:27 SP:FB CYC:291 SL:36
D615  A9 AA     LDA #$AA                        A:00 X:33 Y:BA P:A5 SP:FB CYC:297 SL:36
D617  8D 78 06  STA $0678 = 00                  A:AA X:33 Y:BA P:A5 SP:FB CYC:303 SL:36
D61A  20 DF F7  JSR $F7DF                       A:AA X:33 Y:BA P:A5 SP:FB CYC:315 SL:36
F7DF  18        CLC                             A:AA X:33 Y:BA P:A5 SP:F9 CYC:333 SL:36
F7E0  24 01     BIT $01 = FF                    A:AA X:33 Y:BA P:A4 SP:F9 CYC:339 SL:36
F7E2  A9 55     LDA #$55                        A:AA X:33 Y:BA P:E4 SP:F9 CYC:  7 SL:37
F7E4  60        RTS                             A:55 X:33 Y:BA P:64 SP:F9 CYC: 13 SL:37
D61D  2D 78 06  AND $0678 = AA                  A:55 X:33 Y:BA P:64 SP:FB CYC: 31 SL:37
D620  20 E5 F7  JSR $F7E5                       A:00 X:33 Y:BA P:66 SP:FB CYC: 43 SL:37
F7E5  D0 07     BNE $F7EE                       A:00 X:33 Y:BA P:66 SP:F9 CYC: 61 SL:37
F7E7  50 05     BVC $F7EE                       A:00 X:33 Y:BA P:66 SP:F9 CYC: 67 SL:37
F7E9  B0 03     BCS $F7EE                       A:00 X:33 Y:BA P:66 SP:F9 CYC: 73 SL:37
F7EB  30 01     BMI $F7EE                       A:00 X:33 Y:BA P:66 SP:F9 CYC: 79 SL:37
F7ED  60        RTS                             A:00 X:33 Y:BA P:66 SP:F9 CYC: 85 SL:37
D623  C8        INY                             A:00 X:33 Y:BA P:66 SP:FB CYC:103 SL:37
D624  A9 EF     LDA #$EF                        A:00 X:33 Y:BB P:E4 SP:FB CYC:109 SL:37
D626  8D 78 06  STA $0678 = AA                  A:EF X:33 Y:BB P:E4 SP:FB CYC:115 SL:37
D629  20 F1 F7  JSR $F7F1                       A:EF X:33 Y:BB P:E4 SP:FB CYC:127 SL:37
F7F1  38        SEC                             A:EF X:33 Y:BB P:E4 SP:F9 CYC:145 SL:37
F7F2  B8        CLV                             A:EF X:33 Y:BB P:E5 SP:F9 CYC:151 SL:37
F7F3  A9 F8     LDA #$F8                        A:EF X:33 Y:BB P:A5 SP:F9 CYC:157 SL:37
F7F5  60        RTS                             A:F8 X:33 Y:BB P:A5 SP:F9 CYC:163 SL:37
D62C  2D 78 06  AND $0678 = EF                  A:F8 X:33 Y:BB P:A5 SP:FB CYC:181 SL:37
D62F  20 F6 F7  JSR $F7F6                       A:E8 X:33 Y:BB P:A5 SP:FB CYC:193 SL:37
F7F6  90 09     BCC $F801                       A:E8 X:33 Y:BB P:A5 SP:F9 CYC:211 SL:37
F7F8  10 07     BPL $F801                       A:E8 X:33 Y:BB P:A5 SP:F9 CYC:217 SL:37
F7FA  C9 E8     CMP #$E8                        A:E8 X:33 Y:BB P:A5 SP:F9 CYC:223 SL:37
F7FC  D0 03     BNE $F801                       A:E8 X:33 Y:BB P:27 SP:F9 CYC:229 SL:37
F7FE  70 01     BVS $F801                       A:E8 X:33 Y:BB P:27 SP:F9 CYC:235 SL:37
F800  60        RTS                             A:E8 X:33 Y:BB P:27 SP:F9 CYC:241 SL:37
D632  C8        INY                             A:E8 X:33 Y:BB P:27 SP:FB CYC:259 SL:37
D633  A9 AA     LDA #$AA                        A:E8 X:33 Y:BC P:A5 SP:FB CYC:265 SL:37
D635  8D 78 06  STA $0678 = EF                  A:AA X:33 Y:BC P:A5 SP:FB CYC:271 SL:37
D638  20 04 F8  JSR $F804                       A:AA X:33 Y:BC P:A5 SP:FB CYC:283 SL:37
F804  18        CLC                             A:AA X:33 Y:BC P:A5 SP:F9 CYC:301 SL:37
F805  24 01     BIT $01 = FF                    A:AA X:33 Y:BC P:A4 SP:F9 CYC:307 SL:37
F807  A9 5F     LDA #$5F                        A:AA X:33 Y:BC P:E4 SP:F9 CYC:316 SL:37
F809  60        RTS                             A:5F X:33 Y:BC P:64 SP:F9 CYC:322 SL:37
D63B  4D 78 06  EOR $0678 = AA                  A:5F X:33 Y:BC P:64 SP:FB CYC:340 SL:37
D63E  20 0A F8  JSR $F80A                       A:F5 X:33 Y:BC P:E4 SP:FB CYC: 11 SL:38
F80A  B0 09     BCS $F815                       A:F5 X:33 Y:BC P:E4 SP:F9 CYC: 29 SL:38
F80C  10 07     BPL $F815                       A:F5 X:33 Y:BC P:E4 SP:F9 CYC: 35 SL:38
F80E  C9 F5     CMP #$F5                        A:F5 X:33 Y:BC P:E4 SP:F9 CYC: 41 SL:38
F810  D0 03     BNE $F815                       A:F5 X:33 Y:BC P:67 SP:F9 CYC: 47 SL:38
F812  50 01     BVC $F815                       A:F5 X:33 Y:BC P:67 SP:F9 CYC: 53 SL:38
F814  60        RTS                             A:F5 X:33 Y:BC P:67 SP:F9 CYC: 59 SL:38
D641  C8        INY                             A:F5 X:33 Y:BC P:67 SP:FB CYC: 77 SL:38
D642  A9 70     LDA #$70                        A:F5 X:33 Y:BD P:E5 SP:FB CYC: 83 SL:38
D644  8D 78 06  STA $0678 = AA                  A:70 X:33 Y:BD P:65 SP:FB CYC: 89 SL:38
D647  20 18 F8  JSR $F818                       A:70 X:33 Y:BD P:65 SP:FB CYC:101 SL:38
F818  38        SEC                             A:70 X:33 Y:BD P:65 SP:F9 CYC:119 SL:38
F819  B8        CLV                             A:70 X:33 Y:BD P:65 SP:F9 CYC:125 SL:38
F81A  A9 70     LDA #$70                        A:70 X:33 Y:BD P:25 SP:F9 CYC:131 SL:38
F81C  60        RTS                             A:70 X:33 Y:BD P:25 SP:F9 CYC:137 SL:38
D64A  4D 78 06  EOR $0678 = 70                  A:70 X:33 Y:BD P:25 SP:FB CYC:155 SL:38
D64D  20 1D F8  JSR $F81D                       A:00 X:33 Y:BD P:27 SP:FB CYC:167 SL:38
F81D  D0 07     BNE $F826                       A:00 X:33 Y:BD P:27 SP:F9 CYC:185 SL:38
F81F  70 05     BVS $F826                       A:00 X:33 Y:BD P:27 SP:F9 CYC:191 SL:38
F821  90 03     BCC $F826                       A:00 X:33 Y:BD P:27 SP:F9 CYC:197 SL:38
F823  30 01     BMI $F826                       A:00 X:33 Y:BD P:27 SP:F9 CYC:203 SL:38
F825  60        RTS                             A:00 X:33 Y:BD P:27 SP:F9 CYC:209 SL:38
D650  C8        INY                             A:00 X:33 Y:BD P:27 SP:FB CYC:227 SL:38
D651  A9 69     LDA #$69                        A:00 X:33 Y:BE P:A5 SP:FB CYC:233 SL:38
D653  8D 78 06  STA $0678 = 70                  A:69 X:33 Y:BE P:25 SP:FB CYC:239 SL:38
D656  20 29 F8  JSR $F829                       A:69 X:33 Y:BE P:25 SP:FB CYC:251 SL:38
F829  18        CLC                             A:69 X:33 Y:BE P:25 SP:F9 CYC:269 SL:38
F82A  24 01     BIT $01 = FF                    A:69 X:33 Y:BE P:24 SP:F9 CYC:275 SL:38
F82C  A9 00     LDA #$00                        A:69 X:33 Y:BE P:E4 SP:F9 CYC:284 SL:38
F82E  60        RTS                             A:00 X:33 Y:BE P:66 SP:F9 CYC:290 SL:38
D659  6D 78 06  ADC $0678 = 69                  A:00 X:33 Y:BE P:66 SP:FB CYC:308 SL:38
D65C  20 2F F8  JSR $F82F                       A:69 X:33 Y:BE P:24 SP:FB CYC:320 SL:38
F82F  30 09     BMI $F83A                       A:69 X:33 Y:BE P:24 SP:F9 CYC:338 SL:38
F831  B0 07     BCS $F83A                       A:69 X:33 Y:BE P:24 SP:F9 CYC:  3 SL:39
F833  C9 69     CMP #$69                        A:69 X:33 Y:BE P:24 SP:F9 CYC:  9 SL:39
F835  D0 03     BNE $F83A                       A:69 X:33 Y:BE P:27 SP:F9 CYC: 15 SL:39
F837  70 01     BVS $F83A                       A:69 X:33 Y:BE P:27 SP:F9 CYC: 21 SL:39
F839  60        RTS                             A:69 X:33 Y:BE P:27 SP:F9 CYC: 27 SL:39
D65F  C8        INY                             A:69 X:33 Y:BE P:27 SP:FB CYC: 45 SL:39
D660  20 3D F8  JSR $F83D                       A:69 X:33 Y:BF P:A5 SP:FB CYC: 51 SL:39
F83D  38        SEC                             A:69 X:33 Y:BF P:A5 SP:F9 CYC: 69 SL:39
F83E  24 01     BIT $01 = FF                    A:69 X:33 Y:BF P:A5 SP:F9 CYC: 75 SL:39
F840  A9 00     LDA #$00                        A:69 X:33 Y:BF P:E5 SP:F9 CYC: 84 SL:39
F842  60        RTS                             A:00 X:33 Y:BF P:67 SP:F9 CYC: 90 SL:39
D663  6D 78 06  ADC $0678 = 69                  A:00 X:33 Y:BF P:67 SP:FB CYC:108 SL:39
D666  20 43 F8  JSR $F843                       A:6A X:33 Y:BF P:24 SP:FB CYC:120 SL:39
F843  30 09     BMI $F84E                       A:6A X:33 Y:BF P:24 SP:F9 CYC:138 SL:39
F845  B0 07     BCS $F84E                       A:6A X:33 Y:BF P:24 SP:F9 CYC:144 SL:39
F847  C9 6A     CMP #$6A                        A:6A X:33 Y:BF P:24 SP:F9 CYC:150 SL:39
F849  D0 03     BNE $F84E                       A:6A X:33 Y:BF P:27 SP:F9 CYC:156 SL:39
F84B  70 01     BVS $F84E                       A:6A X:33 Y:BF P:27 SP:F9 CYC:162 SL:39
F84D  60        RTS                             A:6A X:33 Y:BF P:27 SP:F9 CYC:168 SL:39
D669  C8        INY                             A:6A X:33 Y:BF P:27 SP:FB CYC:186 SL:39
D66A  A9 7F     LDA #$7F                        A:6A X:33 Y:C0 P:A5 SP:FB CYC:192 SL:39
D66C  8D 78 06  STA $0678 = 69                  A:7F X:33 Y:C0 P:25 SP:FB CYC:198 SL:39
D66F  20 51 F8  JSR $F851                       A:7F X:33 Y:C0 P:25 SP:FB CYC:210 SL:39
F851  38        SEC                             A:7F X:33 Y:C0 P:25 SP:F9 CYC:228 SL:39
F852  B8        CLV                             A:7F X:33 Y:C0 P:25 SP:F9 CYC:234 SL:39
F853  A9 7F     LDA #$7F                        A:7F X:33 Y:C0 P:25 SP:F9 CYC:240 SL:39
F855  60        RTS                             A:7F X:33 Y:C0 P:25 SP:F9 CYC:246 SL:39
D672  6D 78 06  ADC $0678 = 7F                  A:7F X:33 Y:C0 P:25 SP:FB CYC:264 SL:39
D675  20 56 F8  JSR $F856                       A:FF X:33 Y:C0 P:E4 SP:FB CYC:276 SL:39
F856  10 09     BPL $F861                       A:FF X:33 Y:C0 P:E4 SP:F9 CYC:294 SL:39
F858  B0 07     BCS $F861                       A:FF X:33 Y:C0 P:E4 SP:F9 CYC:300 SL:39
F85A  C9 FF     CMP #$FF                        A:FF X:33 Y:C0 P:E4 SP:F9 CYC:306 SL:39
F85C  D0 03     BNE $F861                       A:FF X:33 Y:C0 P:67 SP:F9 CYC:312 SL:39
F85E  50 01     BVC $F861                       A:FF X:33 Y:C0 P:67 SP:F9 CYC:318 SL:39
F860  60        RTS                             A:FF X:33 Y:C0 P:67 SP:F9 CYC:324 SL:39
D678  C8        INY                             A:FF X:33 Y:C0 P:67 SP:FB CYC:  1 SL:40
D679  A9 80     LDA #$80                        A:FF X:33 Y:C1 P:E5 SP:FB CYC:  7 SL:40
D67B  8D 78 06  STA $0678 = 7F                  A:80 X:33 Y:C1 P:E5 SP:FB CYC: 13 SL:40
D67E  20 64 F8  JSR $F864                       A:80 X:33 Y:C1 P:E5 SP:FB CYC: 25 SL:40
F864  18        CLC                             A:80 X:33 Y:C1 P:E5 SP:F9 CYC: 43 SL:40
F865  24 01     BIT $01 = FF                    A:80 X:33 Y:C1 P:E4 SP:F9 CYC: 49 SL:40
F867  A9 7F     LDA #$7F                        A:80 X:33 Y:C1 P:E4 SP:F9 CYC: 58 SL:40
F869  60        RTS                             A:7F X:33 Y:C1 P:64 SP:F9 CYC: 64 SL:40
D681  6D 78 06  ADC $0678 = 80                  A:7F X:33 Y:C1 P:64 SP:FB CYC: 82 SL:40
D684  20 6A F8  JSR $F86A                       A:FF X:33 Y:C1 P:A4 SP:FB CYC: 94 SL:40
F86A  10 09     BPL $F875                       A:FF X:33 Y:C1 P:A4 SP:F9 CYC:112 SL:40
F86C  B0 07     BCS $F875                       A:FF X:33 Y:C1 P:A4 SP:F9 CYC:118 SL:40
F86E  C9 FF     CMP #$FF                        A:FF X:33 Y:C1 P:A4 SP:F9 CYC:124 SL:40
F870  D0 03     BNE $F875                       A:FF X:33 Y:C1 P:27 SP:F9 CYC:130 SL:40
F872  70 01     BVS $F875                       A:FF X:33 Y:C1 P:27 SP:F9 CYC:136 SL:40
F874  60        RTS                             A:FF X:33 Y:C1 P:27 SP:F9 CYC:142 SL:40
D687  C8        INY                             A:FF X:33 Y:C1 P:27 SP:FB CYC:160 SL:40
D688  20 78 F8  JSR $F878                       A:FF X:33 Y:C2 P:A5 SP:FB CYC:166 SL:40
F878  38        SEC                             A:FF X:33 Y:C2 P:A5 SP:F9 CYC:184 SL:40
F879  B8        CLV                             A:FF X:33 Y:C2 P:A5 SP:F9 CYC:190 SL:40
F87A  A9 7F     LDA #$7F                        A:FF X:33 Y:C2 P:A5 SP:F9 CYC:196 SL:40
F87C  60        RTS                             A:7F X:33 Y:C2 P:25 SP:F9 CYC:202 SL:40
D68B  6D 78 06  ADC $0678 = 80                  A:7F X:33 Y:C2 P:25 SP:FB CYC:220 SL:40
D68E  20 7D F8  JSR $F87D                       A:00 X:33 Y:C2 P:27 SP:FB CYC:232 SL:40
F87D  D0 07     BNE $F886                       A:00 X:33 Y:C2 P:27 SP:F9 CYC:250 SL:40
F87F  30 05     BMI $F886                       A:00 X:33 Y:C2 P:27 SP:F9 CYC:256 SL:40
F881  70 03     BVS $F886                       A:00 X:33 Y:C2 P:27 SP:F9 CYC:262 SL:40
F883  90 01     BCC $F886                       A:00 X:33 Y:C2 P:27 SP:F9 CYC:268 SL:40
F885  60        RTS                             A:00 X:33 Y:C2 P:27 SP:F9 CYC:274 SL:40
D691  C8        INY                             A:00 X:33 Y:C2 P:27 SP:FB CYC:292 SL:40
D692  A9 40     LDA #$40                        A:00 X:33 Y:C3 P:A5 SP:FB CYC:298 SL:40
D694  8D 78 06  STA $0678 = 80                  A:40 X:33 Y:C3 P:25 SP:FB CYC:304 SL:40
D697  20 89 F8  JSR $F889                       A:40 X:33 Y:C3 P:25 SP:FB CYC:316 SL:40
F889  24 01     BIT $01 = FF                    A:40 X:33 Y:C3 P:25 SP:F9 CYC:334 SL:40
F88B  A9 40     LDA #$40                        A:40 X:33 Y:C3 P:E5 SP:F9 CYC:  2 SL:41
F88D  60        RTS                             A:40 X:33 Y:C3 P:65 SP:F9 CYC:  8 SL:41
D69A  CD 78 06  CMP $0678 = 40                  A:40 X:33 Y:C3 P:65 SP:FB CYC: 26 SL:41
D69D  20 8E F8  JSR $F88E                       A:40 X:33 Y:C3 P:67 SP:FB CYC: 38 SL:41
F88E  30 07     BMI $F897                       A:40 X:33 Y:C3 P:67 SP:F9 CYC: 56 SL:41
F890  90 05     BCC $F897                       A:40 X:33 Y:C3 P:67 SP:F9 CYC: 62 SL:41
F892  D0 03     BNE $F897                       A:40 X:33 Y:C3 P:67 SP:F9 CYC: 68 SL:41
F894  50 01     BVC $F897                       A:40 X:33 Y:C3 P:67 SP:F9 CYC: 74 SL:41
F896  60        RTS                             A:40 X:33 Y:C3 P:67 SP:F9 CYC: 80 SL:41
D6A0  C8        INY                             A:40 X:33 Y:C3 P:67 SP:FB CYC: 98 SL:41
D6A1  48        PHA                             A:40 X:33 Y:C4 P:E5 SP:FB CYC:104 SL:41
D6A2  A9 3F     LDA #$3F                        A:40 X:33 Y:C4 P:E5 SP:FA CYC:113 SL:41
D6A4  8D 78 06  STA $0678 = 40                  A:3F X:33 Y:C4 P:65 SP:FA CYC:119 SL:41
D6A7  68        PLA                             A:3F X:33 Y:C4 P:65 SP:FA CYC:131 SL:41
D6A8  20 9A F8  JSR $F89A                       A:40 X:33 Y:C4 P:65 SP:FB CYC:143 SL:41
F89A  B8        CLV                             A:40 X:33 Y:C4 P:65 SP:F9 CYC:161 SL:41
F89B  60        RTS                             A:40 X:33 Y:C4 P:25 SP:F9 CYC:167 SL:41
D6AB  CD 78 06  CMP $0678 = 3F                  A:40 X:33 Y:C4 P:25 SP:FB CYC:185 SL:41
D6AE  20 9C F8  JSR $F89C                       A:40 X:33 Y:C4 P:25 SP:FB CYC:197 SL:41
F89C  F0 07     BEQ $F8A5                       A:40 X:33 Y:C4 P:25 SP:F9 CYC:215 SL:41
F89E  30 05     BMI $F8A5                       A:40 X:33 Y:C4 P:25 SP:F9 CYC:221 SL:41
F8A0  90 03     BCC $F8A5                       A:40 X:33 Y:C4 P:25 SP:F9 CYC:227 SL:41
F8A2  70 01     BVS $F8A5                       A:40 X:33 Y:C4 P:25 SP:F9 CYC:233 SL:41
F8A4  60        RTS                             A:40 X:33 Y:C4 P:25 SP:F9 CYC:239 SL:41
D6B1  C8        INY                             A:40 X:33 Y:C4 P:25 SP:FB CYC:257 SL:41
D6B2  48        PHA                             A:40 X:33 Y:C5 P:A5 SP:FB CYC:263 SL:41
D6B3  A9 41     LDA #$41                        A:40 X:33 Y:C5 P:A5 SP:FA CYC:272 SL:41
D6B5  8D 78 06  STA $0678 = 3F                  A:41 X:33 Y:C5 P:25 SP:FA CYC:278 SL:41
D6B8  68        PLA                             A:41 X:33 Y:C5 P:25 SP:FA CYC:290 SL:41
D6B9  CD 78 06  CMP $0678 = 41                  A:40 X:33 Y:C5 P:25 SP:FB CYC:302 SL:41
D6BC  20 A8 F8  JSR $F8A8                       A:40 X:33 Y:C5 P:A4 SP:FB CYC:314 SL:41
F8A8  F0 05     BEQ $F8AF                       A:40 X:33 Y:C5 P:A4 SP:F9 CYC:332 SL:41
F8AA  10 03     BPL $F8AF                       A:40 X:33 Y:C5 P:A4 SP:F9 CYC:338 SL:41
F8AC  10 01     BPL $F8AF                       A:40 X:33 Y:C5 P:A4 SP:F9 CYC:  3 SL:42
F8AE  60        RTS                             A:40 X:33 Y:C5 P:A4 SP:F9 CYC:  9 SL:42
D6BF  C8        INY                             A:40 X:33 Y:C5 P:A4 SP:FB CYC: 27 SL:42
D6C0  48        PHA                             A:40 X:33 Y:C6 P:A4 SP:FB CYC: 33 SL:42
D6C1  A9 00     LDA #$00                        A:40 X:33 Y:C6 P:A4 SP:FA CYC: 42 SL:42
D6C3  8D 78 06  STA $0678 = 41                  A:00 X:33 Y:C6 P:26 SP:FA CYC: 48 SL:42
D6C6  68        PLA                             A:00 X:33 Y:C6 P:26 SP:FA CYC: 60 SL:42
D6C7  20 B2 F8  JSR $F8B2                       A:40 X:33 Y:C6 P:24 SP:FB CYC: 72 SL:42
F8B2  A9 80     LDA #$80                        A:40 X:33 Y:C6 P:24 SP:F9 CYC: 90 SL:42
F8B4  60        RTS                             A:80 X:33 Y:C6 P:A4 SP:F9 CYC: 96 SL:42
D6CA  CD 78 06  CMP $0678 = 00                  A:80 X:33 Y:C6 P:A4 SP:FB CYC:114 SL:42
D6CD  20 B5 F8  JSR $F8B5                       A:80 X:33 Y:C6 P:A5 SP:FB CYC:126 SL:42
F8B5  F0 05     BEQ $F8BC                       A:80 X:33 Y:C6 P:A5 SP:F9 CYC:144 SL:42
F8B7  10 03     BPL $F8BC                       A:80 X:33 Y:C6 P:A5 SP:F9 CYC:150 SL:42
F8B9  90 01     BCC $F8BC                       A:80 X:33 Y:C6 P:A5 SP:F9 CYC:156 SL:42
F8BB  60        RTS                             A:80 X:33 Y:C6 P:A5 SP:F9 CYC:162 SL:42
D6D0  C8        INY                             A:80 X:33 Y:C6 P:A5 SP:FB CYC:180 SL:42
D6D1  48        PHA                             A:80 X:33 Y:C7 P:A5 SP:FB CYC:186 SL:42
D6D2  A9 80     LDA #$80                        A:80 X:33 Y:C7 P:A5 SP:FA CYC:195 SL:42
D6D4  8D 78 06  STA $0678 = 00                  A:80 X:33 Y:C7 P:A5 SP:FA CYC:201 SL:42
D6D7  68        PLA                             A:80 X:33 Y:C7 P:A5 SP:FA CYC:213 SL:42
D6D8  CD 78 06  CMP $0678 = 80                  A:80 X:33 Y:C7 P:A5 SP:FB CYC:225 SL:42
D6DB  20 BF F8  JSR $F8BF                       A:80 X:33 Y:C7 P:27 SP:FB CYC:237 SL:42
F8BF  D0 05     BNE $F8C6                       A:80 X:33 Y:C7 P:27 SP:F9 CYC:255 SL:42
F8C1  30 03     BMI $F8C6                       A:80 X:33 Y:C7 P:27 SP:F9 CYC:261 SL:42
F8C3  90 01     BCC $F8C6                       A:80 X:33 Y:C7 P:27 SP:F9 CYC:267 SL:42
F8C5  60        RTS                             A:80 X:33 Y:C7 P:27 SP:F9 CYC:273 SL:42
D6DE  C8        INY                             A:80 X:33 Y:C7 P:27 SP:FB CYC:291 SL:42
D6DF  48        PHA                             A:80 X:33 Y:C8 P:A5 SP:FB CYC:297 SL:42
D6E0  A9 81     LDA #$81                        A:80 X:33 Y:C8 P:A5 SP:FA CYC:306 SL:42
D6E2  8D 78 06  STA $0678 = 80                  A:81 X:33 Y:C8 P:A5 SP:FA CYC:312 SL:42
D6E5  68        PLA                             A:81 X:33 Y:C8 P:A5 SP:FA CYC:324 SL:42
D6E6  CD 78 06  CMP $0678 = 81                  A:80 X:33 Y:C8 P:A5 SP:FB CYC:336 SL:42
D6E9  20 C9 F8  JSR $F8C9                       A:80 X:33 Y:C8 P:A4 SP:FB CYC:  7 SL:43
F8C9  B0 05     BCS $F8D0                       A:80 X:33 Y:C8 P:A4 SP:F9 CYC: 25 SL:43
F8CB  F0 03     BEQ $F8D0                       A:80 X:33 Y:C8 P:A4 SP:F9 CYC: 31 SL:43
F8CD  10 01     BPL $F8D0                       A:80 X:33 Y:C8 P:A4 SP:F9 CYC: 37 SL:43
F8CF  60        RTS                             A:80 X:33 Y:C8 P:A4 SP:F9 CYC: 43 SL:43
D6EC  C8        INY                             A:80 X:33 Y:C8 P:A4 SP:FB CYC: 61 SL:43
D6ED  48        PHA                             A:80 X:33 Y:C9 P:A4 SP:FB CYC: 67 SL:43
D6EE  A9 7F     LDA #$7F                        A:80 X:33 Y:C9 P:A4 SP:FA CYC: 76 SL:43
D6F0  8D 78 06  STA $0678 = 81                  A:7F X:33 Y:C9 P:24 SP:FA CYC: 82 SL:43
D6F3  68        PLA                             A:7F X:33 Y:C9 P:24 SP:FA CYC: 94 SL:43
D6F4  CD 78 06  CMP $0678 = 7F                  A:80 X:33 Y:C9 P:A4 SP:FB CYC:106 SL:43
D6F7  20 D3 F8  JSR $F8D3                       A:80 X:33 Y:C9 P:25 SP:FB CYC:118 SL:43
F8D3  90 05     BCC $F8DA                       A:80 X:33 Y:C9 P:25 SP:F9 CYC:136 SL:43
F8D5  F0 03     BEQ $F8DA                       A:80 X:33 Y:C9 P:25 SP:F9 CYC:142 SL:43
F8D7  30 01     BMI $F8DA                       A:80 X:33 Y:C9 P:25 SP:F9 CYC:148 SL:43
F8D9  60        RTS                             A:80 X:33 Y:C9 P:25 SP:F9 CYC:154 SL:43
D6FA  C8        INY                             A:80 X:33 Y:C9 P:25 SP:FB CYC:172 SL:43
D6FB  A9 40     LDA #$40                        A:80 X:33 Y:CA P:A5 SP:FB CYC:178 SL:43
D6FD  8D 78 06  STA $0678 = 7F                  A:40 X:33 Y:CA P:25 SP:FB CYC:184 SL:43
D700  20 31 F9  JSR $F931                       A:40 X:33 Y:CA P:25 SP:FB CYC:196 SL:43
F931  24 01     BIT $01 = FF                    A:40 X:33 Y:CA P:25 SP:F9 CYC:214 SL:43
F933  A9 40     LDA #$40                        A:40 X:33 Y:CA P:E5 SP:F9 CYC:223 SL:43
F935  38        SEC                             A:40 X:33 Y:CA P:65 SP:F9 CYC:229 SL:43
F936  60        RTS                             A:40 X:33 Y:CA P:65 SP:F9 CYC:235 SL:43
D703  ED 78 06  SBC $0678 = 40                  A:40 X:33 Y:CA P:65 SP:FB CYC:253 SL:43
D706  20 37 F9  JSR $F937                       A:00 X:33 Y:CA P:27 SP:FB CYC:265 SL:43
F937  30 0B     BMI $F944                       A:00 X:33 Y:CA P:27 SP:F9 CYC:283 SL:43
F939  90 09     BCC $F944                       A:00 X:33 Y:CA P:27 SP:F9 CYC:289 SL:43
F93B  D0 07     BNE $F944                       A:00 X:33 Y:CA P:27 SP:F9 CYC:295 SL:43
F93D  70 05     BVS $F944                       A:00 X:33 Y:CA P:27 SP:F9 CYC:301 SL:43
F93F  C9 00     CMP #$00                        A:00 X:33 Y:CA P:27 SP:F9 CYC:307 SL:43
F941  D0 01     BNE $F944                       A:00 X:33 Y:CA P:27 SP:F9 CYC:313 SL:43
F943  60        RTS                             A:00 X:33 Y:CA P:27 SP:F9 CYC:319 SL:43
D709  C8        INY                             A:00 X:33 Y:CA P:27 SP:FB CYC:337 SL:43
D70A  A9 3F     LDA #$3F                        A:00 X:33 Y:CB P:A5 SP:FB CYC:  2 SL:44
D70C  8D 78 06  STA $0678 = 40                  A:3F X:33 Y:CB P:25 SP:FB CYC:  8 SL:44
D70F  20 47 F9  JSR $F947                       A:3F X:33 Y:CB P:25 SP:FB CYC: 20 SL:44
F947  B8        CLV                             A:3F X:33 Y:CB P:25 SP:F9 CYC: 38 SL:44
F948  38        SEC                             A:3F X:33 Y:CB P:25 SP:F9 CYC: 44 SL:44
F949  A9 40     LDA #$40                        A:3F X:33 Y:CB P:25 SP:F9 CYC: 50 SL:44
F94B  60        RTS                             A:40 X:33 Y:CB P:25 SP:F9 CYC: 56 SL:44
D712  ED 78 06  SBC $0678 = 3F                  A:40 X:33 Y:CB P:25 SP:FB CYC: 74 SL:44
D715  20 4C F9  JSR $F94C                       A:01 X:33 Y:CB P:25 SP:FB CYC: 86 SL:44
F94C  F0 0B     BEQ $F959                       A:01 X:33 Y:CB P:25 SP:F9 CYC:104 SL:44
F94E  30 09     BMI $F959                       A:01 X:33 Y:CB P:25 SP:F9 CYC:110 SL:44
F950  90 07     BCC $F959                       A:01 X:33 Y:CB P:25 SP:F9 CYC:116 SL:44
F952  70 05     BVS $F959                       A:01 X:33 Y:CB P:25 SP:F9 CYC:122 SL:44
F954  C9 01     CMP #$01                        A:01 X:33 Y:CB P:25 SP:F9 CYC:128 SL:44
F956  D0 01     BNE $F959                       A:01 X:33 Y:CB P:27 SP:F9 CYC:134 SL:44
F958  60        RTS                             A:01 X:33 Y:CB P:27 SP:F9 CYC:140 SL:44
D718  C8        INY                             A:01 X:33 Y:CB P:27 SP:FB CYC:158 SL:44
D719  A9 41     LDA #$41                        A:01 X:33 Y:CC P:A5 SP:FB CYC:164 SL:44
D71B  8D 78 06  STA $0678 = 3F                  A:41 X:33 Y:CC P:25 SP:FB CYC:170 SL:44
D71E  20 5C F9  JSR $F95C                       A:41 X:33 Y:CC P:25 SP:FB CYC:182 SL:44
F95C  A9 40     LDA #$40                        A:41 X:33 Y:CC P:25 SP:F9 CYC:200 SL:44
F95E  38        SEC                             A:40 X:33 Y:CC P:25 SP:F9 CYC:206 SL:44
F95F  24 01     BIT $01 = FF                    A:40 X:33 Y:CC P:25 SP:F9 CYC:212 SL:44
F961  60        RTS                             A:40 X:33 Y:CC P:E5 SP:F9 CYC:221 SL:44
D721  ED 78 06  SBC $0678 = 41                  A:40 X:33 Y:CC P:E5 SP:FB CYC:239 SL:44
D724  20 62 F9  JSR $F962                       A:FF X:33 Y:CC P:A4 SP:FB CYC:251 SL:44
F962  B0 0B     BCS $F96F                       A:FF X:33 Y:CC P:A4 SP:F9 CYC:269 SL:44
F964  F0 09     BEQ $F96F                       A:FF X:33 Y:CC P:A4 SP:F9 CYC:275 SL:44
F966  10 07     BPL $F96F                       A:FF X:33 Y:CC P:A4 SP:F9 CYC:281 SL:44
F968  70 05     BVS $F96F                       A:FF X:33 Y:CC P:A4 SP:F9 CYC:287 SL:44
F96A  C9 FF     CMP #$FF                        A:FF X:33 Y:CC P:A4 SP:F9 CYC:293 SL:44
F96C  D0 01     BNE $F96F                       A:FF X:33 Y:CC P:27 SP:F9 CYC:299 SL:44
F96E  60        RTS                             A:FF X:33 Y:CC P:27 SP:F9 CYC:305 SL:44
D727  C8        INY                             A:FF X:33 Y:CC P:27 SP:FB CYC:323 SL:44
D728  A9 00     LDA #$00                        A:FF X:33 Y:CD P:A5 SP:FB CYC:329 SL:44
D72A  8D 78 06  STA $0678 = 41                  A:00 X:33 Y:CD P:27 SP:FB CYC:335 SL:44
D72D  20 72 F9  JSR $F972                       A:00 X:33 Y:CD P:27 SP:FB CYC:  6 SL:45
F972  18        CLC                             A:00 X:33 Y:CD P:27 SP:F9 CYC: 24 SL:45
F973  A9 80     LDA #$80                        A:00 X:33 Y:CD P:26 SP:F9 CYC: 30 SL:45
F975  60        RTS                             A:80 X:33 Y:CD P:A4 SP:F9 CYC: 36 SL:45
D730  ED 78 06  SBC $0678 = 00                  A:80 X:33 Y:CD P:A4 SP:FB CYC: 54 SL:45
D733  20 76 F9  JSR $F976                       A:7F X:33 Y:CD P:65 SP:FB CYC: 66 SL:45
F976  90 05     BCC $F97D                       A:7F X:33 Y:CD P:65 SP:F9 CYC: 84 SL:45
F978  C9 7F     CMP #$7F                        A:7F X:33 Y:CD P:65 SP:F9 CYC: 90 SL:45
F97A  D0 01     BNE $F97D                       A:7F X:33 Y:CD P:67 SP:F9 CYC: 96 SL:45
F97C  60        RTS                             A:7F X:33 Y:CD P:67 SP:F9 CYC:102 SL:45
D736  C8        INY                             A:7F X:33 Y:CD P:67 SP:FB CYC:120 SL:45
D737  A9 7F     LDA #$7F                        A:7F X:33 Y:CE P:E5 SP:FB CYC:126 SL:45
D739  8D 78 06  STA $0678 = 00                  A:7F X:33 Y:CE P:65 SP:FB CYC:132 SL:45
D73C  20 80 F9  JSR $F980                       A:7F X:33 Y:CE P:65 SP:FB CYC:144 SL:45
F980  38        SEC                             A:7F X:33 Y:CE P:65 SP:F9 CYC:162 SL:45
F981  A9 81     LDA #$81                        A:7F X:33 Y:CE P:65 SP:F9 CYC:168 SL:45
F983  60        RTS                             A:81 X:33 Y:CE P:E5 SP:F9 CYC:174 SL:45
D73F  ED 78 06  SBC $0678 = 7F                  A:81 X:33 Y:CE P:E5 SP:FB CYC:192 SL:45
D742  20 84 F9  JSR $F984                       A:02 X:33 Y:CE P:65 SP:FB CYC:204 SL:45
F984  50 07     BVC $F98D                       A:02 X:33 Y:CE P:65 SP:F9 CYC:222 SL:45
F986  90 05     BCC $F98D                       A:02 X:33 Y:CE P:65 SP:F9 CYC:228 SL:45
F988  C9 02     CMP #$02                        A:02 X:33 Y:CE P:65 SP:F9 CYC:234 SL:45
F98A  D0 01     BNE $F98D                       A:02 X:33 Y:CE P:67 SP:F9 CYC:240 SL:45
F98C  60        RTS                             A:02 X:33 Y:CE P:67 SP:F9 CYC:246 SL:45
D745  C8        INY                             A:02 X:33 Y:CE P:67 SP:FB CYC:264 SL:45
D746  A9 40     LDA #$40                        A:02 X:33 Y:CF P:E5 SP:FB CYC:270 SL:45
D748  8D 78 06  STA $0678 = 7F                  A:40 X:33 Y:CF P:65 SP:FB CYC:276 SL:45
D74B  20 89 F8  JSR $F889                       A:40 X:33 Y:CF P:65 SP:FB CYC:288 SL:45
F889  24 01     BIT $01 = FF                    A:40 X:33 Y:CF P:65 SP:F9 CYC:306 SL:45
F88B  A9 40     LDA #$40                        A:40 X:33 Y:CF P:E5 SP:F9 CYC:315 SL:45
F88D  60        RTS                             A:40 X:33 Y:CF P:65 SP:F9 CYC:321 SL:45
D74E  AA        TAX                             A:40 X:33 Y:CF P:65 SP:FB CYC:339 SL:45
D74F  EC 78 06  CPX $0678 = 40                  A:40 X:40 Y:CF P:65 SP:FB CYC:  4 SL:46
D752  20 8E F8  JSR $F88E                       A:40 X:40 Y:CF P:67 SP:FB CYC: 16 SL:46
F88E  30 07     BMI $F897                       A:40 X:40 Y:CF P:67 SP:F9 CYC: 34 SL:46
F890  90 05     BCC $F897                       A:40 X:40 Y:CF P:67 SP:F9 CYC: 40 SL:46
F892  D0 03     BNE $F897                       A:40 X:40 Y:CF P:67 SP:F9 CYC: 46 SL:46
F894  50 01     BVC $F897                       A:40 X:40 Y:CF P:67 SP:F9 CYC: 52 SL:46
F896  60        RTS                             A:40 X:40 Y:CF P:67 SP:F9 CYC: 58 SL:46
D755  C8        INY                             A:40 X:40 Y:CF P:67 SP:FB CYC: 76 SL:46
D756  A9 3F     LDA #$3F                        A:40 X:40 Y:D0 P:E5 SP:FB CYC: 82 SL:46
D758  8D 78 06  STA $0678 = 40                  A:3F X:40 Y:D0 P:65 SP:FB CYC: 88 SL:46
D75B  20 9A F8  JSR $F89A                       A:3F X:40 Y:D0 P:65 SP:FB CYC:100 SL:46
F89A  B8        CLV                             A:3F X:40 Y:D0 P:65 SP:F9 CYC:118 SL:46
F89B  60        RTS                             A:3F X:40 Y:D0 P:25 SP:F9 CYC:124 SL:46
D75E  EC 78 06  CPX $0678 = 3F                  A:3F X:40 Y:D0 P:25 SP:FB CYC:142 SL:46
D761  20 9C F8  JSR $F89C                       A:3F X:40 Y:D0 P:25 SP:FB CYC:154 SL:46
F89C  F0 07     BEQ $F8A5                       A:3F X:40 Y:D0 P:25 SP:F9 CYC:172 SL:46
F89E  30 05     BMI $F8A5                       A:3F X:40 Y:D0 P:25 SP:F9 CYC:178 SL:46
F8A0  90 03     BCC $F8A5                       A:3F X:40 Y:D0 P:25 SP:F9 CYC:184 SL:46
F8A2  70 01     BVS $F8A5                       A:3F X:40 Y:D0 P:25 SP:F9 CYC:190 SL:46
F8A4  60        RTS                             A:3F X:40 Y:D0 P:25 SP:F9 CYC:196 SL:46
D764  C8        INY                             A:3F X:40 Y:D0 P:25 SP:FB CYC:214 SL:46
D765  A9 41     LDA #$41                        A:3F X:40 Y:D1 P:A5 SP:FB CYC:220 SL:46
D767  8D 78 06  STA $0678 = 3F                  A:41 X:40 Y:D1 P:25 SP:FB CYC:226 SL:46
D76A  EC 78 06  CPX $0678 = 41                  A:41 X:40 Y:D1 P:25 SP:FB CYC:238 SL:46
D76D  20 A8 F8  JSR $F8A8                       A:41 X:40 Y:D1 P:A4 SP:FB CYC:250 SL:46
F8A8  F0 05     BEQ $F8AF                       A:41 X:40 Y:D1 P:A4 SP:F9 CYC:268 SL:46
F8AA  10 03     BPL $F8AF                       A:41 X:40 Y:D1 P:A4 SP:F9 CYC:274 SL:46
F8AC  10 01     BPL $F8AF                       A:41 X:40 Y:D1 P:A4 SP:F9 CYC:280 SL:46
F8AE  60        RTS                             A:41 X:40 Y:D1 P:A4 SP:F9 CYC:286 SL:46
D770  C8        INY                             A:41 X:40 Y:D1 P:A4 SP:FB CYC:304 SL:46
D771  A9 00     LDA #$00                        A:41 X:40 Y:D2 P:A4 SP:FB CYC:310 SL:46
D773  8D 78 06  STA $0678 = 41                  A:00 X:40 Y:D2 P:26 SP:FB CYC:316 SL:46
D776  20 B2 F8  JSR $F8B2                       A:00 X:40 Y:D2 P:26 SP:FB CYC:328 SL:46
F8B2  A9 80     LDA #$80                        A:00 X:40 Y:D2 P:26 SP:F9 CYC:  5 SL:47
F8B4  60        RTS                             A:80 X:40 Y:D2 P:A4 SP:F9 CYC: 11 SL:47
D779  AA        TAX                             A:80 X:40 Y:D2 P:A4 SP:FB CYC: 29 SL:47
D77A  EC 78 06  CPX $0678 = 00                  A:80 X:80 Y:D2 P:A4 SP:FB CYC: 35 SL:47
D77D  20 B5 F8  JSR $F8B5                       A:80 X:80 Y:D2 P:A5 SP:FB CYC: 47 SL:47
F8B5  F0 05     BEQ $F8BC                       A:80 X:80 Y:D2 P:A5 SP:F9 CYC: 65 SL:47
F8B7  10 03     BPL $F8BC                       A:80 X:80 Y:D2 P:A5 SP:F9 CYC: 71 SL:47
F8B9  90 01     BCC $F8BC                       A:80 X:80 Y:D2 P:A5 SP:F9 CYC: 77 SL:47
F8BB  60        RTS                             A:80 X:80 Y:D2 P:A5 SP:F9 CYC: 83 SL:47
D780  C8        INY                             A:80 X:80 Y:D2 P:A5 SP:FB CYC:101 SL:47
D781  A9 80     LDA #$80                        A:80 X:80 Y:D3 P:A5 SP:FB CYC:107 SL:47
D783  8D 78 06  STA $0678 = 00                  A:80 X:80 Y:D3 P:A5 SP:FB CYC:113 SL:47
D786  EC 78 06  CPX $0678 = 80                  A:80 X:80 Y:D3 P:A5 SP:FB CYC:125 SL:47
D789  20 BF F8  JSR $F8BF                       A:80 X:80 Y:D3 P:27 SP:FB CYC:137 SL:47
F8BF  D0 05     BNE $F8C6                       A:80 X:80 Y:D3 P:27 SP:F9 CYC:155 SL:47
F8C1  30 03     BMI $F8C6                       A:80 X:80 Y:D3 P:27 SP:F9 CYC:161 SL:47
F8C3  90 01     BCC $F8C6                       A:80 X:80 Y:D3 P:27 SP:F9 CYC:167 SL:47
F8C5  60        RTS                             A:80 X:80 Y:D3 P:27 SP:F9 CYC:173 SL:47
D78C  C8        INY                             A:80 X:80 Y:D3 P:27 SP:FB CYC:191 SL:47
D78D  A9 81     LDA #$81                        A:80 X:80 Y:D4 P:A5 SP:FB CYC:197 SL:47
D78F  8D 78 06  STA $0678 = 80                  A:81 X:80 Y:D4 P:A5 SP:FB CYC:203 SL:47
D792  EC 78 06  CPX $0678 = 81                  A:81 X:80 Y:D4 P:A5 SP:FB CYC:215 SL:47
D795  20 C9 F8  JSR $F8C9                       A:81 X:80 Y:D4 P:A4 SP:FB CYC:227 SL:47
F8C9  B0 05     BCS $F8D0                       A:81 X:80 Y:D4 P:A4 SP:F9 CYC:245 SL:47
F8CB  F0 03     BEQ $F8D0                       A:81 X:80 Y:D4 P:A4 SP:F9 CYC:251 SL:47
F8CD  10 01     BPL $F8D0                       A:81 X:80 Y:D4 P:A4 SP:F9 CYC:257 SL:47
F8CF  60        RTS                             A:81 X:80 Y:D4 P:A4 SP:F9 CYC:263 SL:47
D798  C8        INY                             A:81 X:80 Y:D4 P:A4 SP:FB CYC:281 SL:47
D799  A9 7F     LDA #$7F                        A:81 X:80 Y:D5 P:A4 SP:FB CYC:287 SL:47
D79B  8D 78 06  STA $0678 = 81                  A:7F X:80 Y:D5 P:24 SP:FB CYC:293 SL:47
D79E  EC 78 06  CPX $0678 = 7F                  A:7F X:80 Y:D5 P:24 SP:FB CYC:305 SL:47
D7A1  20 D3 F8  JSR $F8D3                       A:7F X:80 Y:D5 P:25 SP:FB CYC:317 SL:47
F8D3  90 05     BCC $F8DA                       A:7F X:80 Y:D5 P:25 SP:F9 CYC:335 SL:47
F8D5  F0 03     BEQ $F8DA                       A:7F X:80 Y:D5 P:25 SP:F9 CYC:  0 SL:48
F8D7  30 01     BMI $F8DA                       A:7F X:80 Y:D5 P:25 SP:F9 CYC:  6 SL:48
F8D9  60        RTS                             A:7F X:80 Y:D5 P:25 SP:F9 CYC: 12 SL:48
D7A4  C8        INY                             A:7F X:80 Y:D5 P:25 SP:FB CYC: 30 SL:48
D7A5  98        TYA                             A:7F X:80 Y:D6 P:A5 SP:FB CYC: 36 SL:48
D7A6  AA        TAX                             A:D6 X:80 Y:D6 P:A5 SP:FB CYC: 42 SL:48
D7A7  A9 40     LDA #$40                        A:D6 X:D6 Y:D6 P:A5 SP:FB CYC: 48 SL:48
D7A9  8D 78 06  STA $0678 = 7F                  A:40 X:D6 Y:D6 P:25 SP:FB CYC: 54 SL:48
D7AC  20 DD F8  JSR $F8DD                       A:40 X:D6 Y:D6 P:25 SP:FB CYC: 66 SL:48
F8DD  24 01     BIT $01 = FF                    A:40 X:D6 Y:D6 P:25 SP:F9 CYC: 84 SL:48
F8DF  A0 40     LDY #$40                        A:40 X:D6 Y:D6 P:E5 SP:F9 CYC: 93 SL:48
F8E1  60        RTS                             A:40 X:D6 Y:40 P:65 SP:F9 CYC: 99 SL:48
D7AF  CC 78 06  CPY $0678 = 40                  A:40 X:D6 Y:40 P:65 SP:FB CYC:117 SL:48
D7B2  20 E2 F8  JSR $F8E2                       A:40 X:D6 Y:40 P:67 SP:FB CYC:129 SL:48
F8E2  30 07     BMI $F8EB                       A:40 X:D6 Y:40 P:67 SP:F9 CYC:147 SL:48
F8E4  90 05     BCC $F8EB                       A:40 X:D6 Y:40 P:67 SP:F9 CYC:153 SL:48
F8E6  D0 03     BNE $F8EB                       A:40 X:D6 Y:40 P:67 SP:F9 CYC:159 SL:48
F8E8  50 01     BVC $F8EB                       A:40 X:D6 Y:40 P:67 SP:F9 CYC:165 SL:48
F8EA  60        RTS                             A:40 X:D6 Y:40 P:67 SP:F9 CYC:171 SL:48
D7B5  E8        INX                             A:40 X:D6 Y:40 P:67 SP:FB CYC:189 SL:48
D7B6  A9 3F     LDA #$3F                        A:40 X:D7 Y:40 P:E5 SP:FB CYC:195 SL:48
D7B8  8D 78 06  STA $0678 = 40                  A:3F X:D7 Y:40 P:65 SP:FB CYC:201 SL:48
D7BB  20 EE F8  JSR $F8EE                       A:3F X:D7 Y:40 P:65 SP:FB CYC:213 SL:48
F8EE  B8        CLV                             A:3F X:D7 Y:40 P:65 SP:F9 CYC:231 SL:48
F8EF  60        RTS                             A:3F X:D7 Y:40 P:25 SP:F9 CYC:237 SL:48
D7BE  CC 78 06  CPY $0678 = 3F                  A:3F X:D7 Y:40 P:25 SP:FB CYC:255 SL:48
D7C1  20 F0 F8  JSR $F8F0                       A:3F X:D7 Y:40 P:25 SP:FB CYC:267 SL:48
F8F0  F0 07     BEQ $F8F9                       A:3F X:D7 Y:40 P:25 SP:F9 CYC:285 SL:48
F8F2  30 05     BMI $F8F9                       A:3F X:D7 Y:40 P:25 SP:F9 CYC:291 SL:48
F8F4  90 03     BCC $F8F9                       A:3F X:D7 Y:40 P:25 SP:F9 CYC:297 SL:48
F8F6  70 01     BVS $F8F9                       A:3F X:D7 Y:40 P:25 SP:F9 CYC:303 SL:48
F8F8  60        RTS                             A:3F X:D7 Y:40 P:25 SP:F9 CYC:309 SL:48
D7C4  E8        INX                             A:3F X:D7 Y:40 P:25 SP:FB CYC:327 SL:48
D7C5  A9 41     LDA #$41                        A:3F X:D8 Y:40 P:A5 SP:FB CYC:333 SL:48
D7C7  8D 78 06  STA $0678 = 3F                  A:41 X:D8 Y:40 P:25 SP:FB CYC:339 SL:48
D7CA  CC 78 06  CPY $0678 = 41                  A:41 X:D8 Y:40 P:25 SP:FB CYC: 10 SL:49
D7CD  20 FC F8  JSR $F8FC                       A:41 X:D8 Y:40 P:A4 SP:FB CYC: 22 SL:49
F8FC  F0 05     BEQ $F903                       A:41 X:D8 Y:40 P:A4 SP:F9 CYC: 40 SL:49
F8FE  10 03     BPL $F903                       A:41 X:D8 Y:40 P:A4 SP:F9 CYC: 46 SL:49
F900  10 01     BPL $F903                       A:41 X:D8 Y:40 P:A4 SP:F9 CYC: 52 SL:49
F902  60        RTS                             A:41 X:D8 Y:40 P:A4 SP:F9 CYC: 58 SL:49
D7D0  E8        INX                             A:41 X:D8 Y:40 P:A4 SP:FB CYC: 76 SL:49
D7D1  A9 00     LDA #$00                        A:41 X:D9 Y:40 P:A4 SP:FB CYC: 82 SL:49
D7D3  8D 78 06  STA $0678 = 41                  A:00 X:D9 Y:40 P:26 SP:FB CYC: 88 SL:49
D7D6  20 06 F9  JSR $F906                       A:00 X:D9 Y:40 P:26 SP:FB CYC:100 SL:49
F906  A0 80     LDY #$80                        A:00 X:D9 Y:40 P:26 SP:F9 CYC:118 SL:49
F908  60        RTS                             A:00 X:D9 Y:80 P:A4 SP:F9 CYC:124 SL:49
D7D9  CC 78 06  CPY $0678 = 00                  A:00 X:D9 Y:80 P:A4 SP:FB CYC:142 SL:49
D7DC  20 09 F9  JSR $F909                       A:00 X:D9 Y:80 P:A5 SP:FB CYC:154 SL:49
F909  F0 05     BEQ $F910                       A:00 X:D9 Y:80 P:A5 SP:F9 CYC:172 SL:49
F90B  10 03     BPL $F910                       A:00 X:D9 Y:80 P:A5 SP:F9 CYC:178 SL:49
F90D  90 01     BCC $F910                       A:00 X:D9 Y:80 P:A5 SP:F9 CYC:184 SL:49
F90F  60        RTS                             A:00 X:D9 Y:80 P:A5 SP:F9 CYC:190 SL:49
D7DF  E8        INX                             A:00 X:D9 Y:80 P:A5 SP:FB CYC:208 SL:49
D7E0  A9 80     LDA #$80                        A:00 X:DA Y:80 P:A5 SP:FB CYC:214 SL:49
D7E2  8D 78 06  STA $0678 = 00                  A:80 X:DA Y:80 P:A5 SP:FB CYC:220 SL:49
D7E5  CC 78 06  CPY $0678 = 80                  A:80 X:DA Y:80 P:A5 SP:FB CYC:232 SL:49
D7E8  20 13 F9  JSR $F913                       A:80 X:DA Y:80 P:27 SP:FB CYC:244 SL:49
F913  D0 05     BNE $F91A                       A:80 X:DA Y:80 P:27 SP:F9 CYC:262 SL:49
F915  30 03     BMI $F91A                       A:80 X:DA Y:80 P:27 SP:F9 CYC:268 SL:49
F917  90 01     BCC $F91A                       A:80 X:DA Y:80 P:27 SP:F9 CYC:274 SL:49
F919  60        RTS                             A:80 X:DA Y:80 P:27 SP:F9 CYC:280 SL:49
D7EB  E8        INX                             A:80 X:DA Y:80 P:27 SP:FB CYC:298 SL:49
D7EC  A9 81     LDA #$81                        A:80 X:DB Y:80 P:A5 SP:FB CYC:304 SL:49
D7EE  8D 78 06  STA $0678 = 80                  A:81 X:DB Y:80 P:A5 SP:FB CYC:310 SL:49
D7F1  CC 78 06  CPY $0678 = 81                  A:81 X:DB Y:80 P:A5 SP:FB CYC:322 SL:49
D7F4  20 1D F9  JSR $F91D                       A:81 X:DB Y:80 P:A4 SP:FB CYC:334 SL:49
F91D  B0 05     BCS $F924                       A:81 X:DB Y:80 P:A4 SP:F9 CYC: 11 SL:50
F91F  F0 03     BEQ $F924                       A:81 X:DB Y:80 P:A4 SP:F9 CYC: 17 SL:50
F921  10 01     BPL $F924                       A:81 X:DB Y:80 P:A4 SP:F9 CYC: 23 SL:50
F923  60        RTS                             A:81 X:DB Y:80 P:A4 SP:F9 CYC: 29 SL:50
D7F7  E8        INX                             A:81 X:DB Y:80 P:A4 SP:FB CYC: 47 SL:50
D7F8  A9 7F     LDA #$7F                        A:81 X:DC Y:80 P:A4 SP:FB CYC: 53 SL:50
D7FA  8D 78 06  STA $0678 = 81                  A:7F X:DC Y:80 P:24 SP:FB CYC: 59 SL:50
D7FD  CC 78 06  CPY $0678 = 7F                  A:7F X:DC Y:80 P:24 SP:FB CYC: 71 SL:50
D800  20 27 F9  JSR $F927                       A:7F X:DC Y:80 P:25 SP:FB CYC: 83 SL:50
F927  90 05     BCC $F92E                       A:7F X:DC Y:80 P:25 SP:F9 CYC:101 SL:50
F929  F0 03     BEQ $F92E                       A:7F X:DC Y:80 P:25 SP:F9 CYC:107 SL:50
F92B  30 01     BMI $F92E                       A:7F X:DC Y:80 P:25 SP:F9 CYC:113 SL:50
F92D  60        RTS                             A:7F X:DC Y:80 P:25 SP:F9 CYC:119 SL:50
D803  E8        INX                             A:7F X:DC Y:80 P:25 SP:FB CYC:137 SL:50
D804  8A        TXA                             A:7F X:DD Y:80 P:A5 SP:FB CYC:143 SL:50
D805  A8        TAY                             A:DD X:DD Y:80 P:A5 SP:FB CYC:149 SL:50
D806  20 90 F9  JSR $F990                       A:DD X:DD Y:DD P:A5 SP:FB CYC:155 SL:50
F990  A2 55     LDX #$55                        A:DD X:DD Y:DD P:A5 SP:F9 CYC:173 SL:50
F992  A9 FF     LDA #$FF                        A:DD X:55 Y:DD P:25 SP:F9 CYC:179 SL:50
F994  85 01     STA $01 = FF                    A:FF X:55 Y:DD P:A5 SP:F9 CYC:185 SL:50
F996  EA        NOP                             A:FF X:55 Y:DD P:A5 SP:F9 CYC:194 SL:50
F997  24 01     BIT $01 = FF                    A:FF X:55 Y:DD P:A5 SP:F9 CYC:200 SL:50
F999  38        SEC                             A:FF X:55 Y:DD P:E5 SP:F9 CYC:209 SL:50
F99A  A9 01     LDA #$01                        A:FF X:55 Y:DD P:E5 SP:F9 CYC:215 SL:50
F99C  60        RTS                             A:01 X:55 Y:DD P:65 SP:F9 CYC:221 SL:50
D809  8D 78 06  STA $0678 = 7F                  A:01 X:55 Y:DD P:65 SP:FB CYC:239 SL:50
D80C  4E 78 06  LSR $0678 = 01                  A:01 X:55 Y:DD P:65 SP:FB CYC:251 SL:50
D80F  AD 78 06  LDA $0678 = 00                  A:01 X:55 Y:DD P:67 SP:FB CYC:269 SL:50
D812  20 9D F9  JSR $F99D                       A:00 X:55 Y:DD P:67 SP:FB CYC:281 SL:50
F99D  90 1B     BCC $F9BA                       A:00 X:55 Y:DD P:67 SP:F9 CYC:299 SL:50
F99F  D0 19     BNE $F9BA                       A:00 X:55 Y:DD P:67 SP:F9 CYC:305 SL:50
F9A1  30 17     BMI $F9BA                       A:00 X:55 Y:DD P:67 SP:F9 CYC:311 SL:50
F9A3  50 15     BVC $F9BA                       A:00 X:55 Y:DD P:67 SP:F9 CYC:317 SL:50
F9A5  C9 00     CMP #$00                        A:00 X:55 Y:DD P:67 SP:F9 CYC:323 SL:50
F9A7  D0 11     BNE $F9BA                       A:00 X:55 Y:DD P:67 SP:F9 CYC:329 SL:50
F9A9  B8        CLV                             A:00 X:55 Y:DD P:67 SP:F9 CYC:335 SL:50
F9AA  A9 AA     LDA #$AA                        A:00 X:55 Y:DD P:27 SP:F9 CYC:  0 SL:51
F9AC  60        RTS                             A:AA X:55 Y:DD P:A5 SP:F9 CYC:  6 SL:51
D815  C8        INY                             A:AA X:55 Y:DD P:A5 SP:FB CYC: 24 SL:51
D816  8D 78 06  STA $0678 = 00                  A:AA X:55 Y:DE P:A5 SP:FB CYC: 30 SL:51
D819  4E 78 06  LSR $0678 = AA                  A:AA X:55 Y:DE P:A5 SP:FB CYC: 42 SL:51
D81C  AD 78 06  LDA $0678 = 55                  A:AA X:55 Y:DE P:24 SP:FB CYC: 60 SL:51
D81F  20 AD F9  JSR $F9AD                       A:55 X:55 Y:DE P:24 SP:FB CYC: 72 SL:51
F9AD  B0 0B     BCS $F9BA                       A:55 X:55 Y:DE P:24 SP:F9 CYC: 90 SL:51
F9AF  F0 09     BEQ $F9BA                       A:55 X:55 Y:DE P:24 SP:F9 CYC: 96 SL:51
F9B1  30 07     BMI $F9BA                       A:55 X:55 Y:DE P:24 SP:F9 CYC:102 SL:51
F9B3  70 05     BVS $F9BA                       A:55 X:55 Y:DE P:24 SP:F9 CYC:108 SL:51
F9B5  C9 55     CMP #$55                        A:55 X:55 Y:DE P:24 SP:F9 CYC:114 SL:51
F9B7  D0 01     BNE $F9BA                       A:55 X:55 Y:DE P:27 SP:F9 CYC:120 SL:51
F9B9  60        RTS                             A:55 X:55 Y:DE P:27 SP:F9 CYC:126 SL:51
D822  C8        INY                             A:55 X:55 Y:DE P:27 SP:FB CYC:144 SL:51
D823  20 BD F9  JSR $F9BD                       A:55 X:55 Y:DF P:A5 SP:FB CYC:150 SL:51
F9BD  24 01     BIT $01 = FF                    A:55 X:55 Y:DF P:A5 SP:F9 CYC:168 SL:51
F9BF  38        SEC                             A:55 X:55 Y:DF P:E5 SP:F9 CYC:177 SL:51
F9C0  A9 80     LDA #$80                        A:55 X:55 Y:DF P:E5 SP:F9 CYC:183 SL:51
F9C2  60        RTS                             A:80 X:55 Y:DF P:E5 SP:F9 CYC:189 SL:51
D826  8D 78 06  STA $0678 = 55                  A:80 X:55 Y:DF P:E5 SP:FB CYC:207 SL:51
D829  0E 78 06  ASL $0678 = 80                  A:80 X:55 Y:DF P:E5 SP:FB CYC:219 SL:51
D82C  AD 78 06  LDA $0678 = 00                  A:80 X:55 Y:DF P:67 SP:FB CYC:237 SL:51
D82F  20 C3 F9  JSR $F9C3                       A:00 X:55 Y:DF P:67 SP:FB CYC:249 SL:51
F9C3  90 1C     BCC $F9E1                       A:00 X:55 Y:DF P:67 SP:F9 CYC:267 SL:51
F9C5  D0 1A     BNE $F9E1                       A:00 X:55 Y:DF P:67 SP:F9 CYC:273 SL:51
F9C7  30 18     BMI $F9E1                       A:00 X:55 Y:DF P:67 SP:F9 CYC:279 SL:51
F9C9  50 16     BVC $F9E1                       A:00 X:55 Y:DF P:67 SP:F9 CYC:285 SL:51
F9CB  C9 00     CMP #$00                        A:00 X:55 Y:DF P:67 SP:F9 CYC:291 SL:51
F9CD  D0 12     BNE $F9E1                       A:00 X:55 Y:DF P:67 SP:F9 CYC:297 SL:51
F9CF  B8        CLV                             A:00 X:55 Y:DF P:67 SP:F9 CYC:303 SL:51
F9D0  A9 55     LDA #$55                        A:00 X:55 Y:DF P:27 SP:F9 CYC:309 SL:51
F9D2  38        SEC                             A:55 X:55 Y:DF P:25 SP:F9 CYC:315 SL:51
F9D3  60        RTS                             A:55 X:55 Y:DF P:25 SP:F9 CYC:321 SL:51
D832  C8        INY                             A:55 X:55 Y:DF P:25 SP:FB CYC:339 SL:51
D833  8D 78 06  STA $0678 = 00                  A:55 X:55 Y:E0 P:A5 SP:FB CYC:  4 SL:52
D836  0E 78 06  ASL $0678 = 55                  A:55 X:55 Y:E0 P:A5 SP:FB CYC: 16 SL:52
D839  AD 78 06  LDA $0678 = AA                  A:55 X:55 Y:E0 P:A4 SP:FB CYC: 34 SL:52
D83C  20 D4 F9  JSR $F9D4                       A:AA X:55 Y:E0 P:A4 SP:FB CYC: 46 SL:52
F9D4  B0 0B     BCS $F9E1                       A:AA X:55 Y:E0 P:A4 SP:F9 CYC: 64 SL:52
F9D6  F0 09     BEQ $F9E1                       A:AA X:55 Y:E0 P:A4 SP:F9 CYC: 70 SL:52
F9D8  10 07     BPL $F9E1                       A:AA X:55 Y:E0 P:A4 SP:F9 CYC: 76 SL:52
F9DA  70 05     BVS $F9E1                       A:AA X:55 Y:E0 P:A4 SP:F9 CYC: 82 SL:52
F9DC  C9 AA     CMP #$AA                        A:AA X:55 Y:E0 P:A4 SP:F9 CYC: 88 SL:52
F9DE  D0 01     BNE $F9E1                       A:AA X:55 Y:E0 P:27 SP:F9 CYC: 94 SL:52
F9E0  60        RTS                             A:AA X:55 Y:E0 P:27 SP:F9 CYC:100 SL:52
D83F  C8        INY                             A:AA X:55 Y:E0 P:27 SP:FB CYC:118 SL:52
D840  20 E4 F9  JSR $F9E4                       A:AA X:55 Y:E1 P:A5 SP:FB CYC:124 SL:52
F9E4  24 01     BIT $01 = FF                    A:AA X:55 Y:E1 P:A5 SP:F9 CYC:142 SL:52
F9E6  38        SEC                             A:AA X:55 Y:E1 P:E5 SP:F9 CYC:151 SL:52
F9E7  A9 01     LDA #$01                        A:AA X:55 Y:E1 P:E5 SP:F9 CYC:157 SL:52
F9E9  60        RTS                             A:01 X:55 Y:E1 P:65 SP:F9 CYC:163 SL:52
D843  8D 78 06  STA $0678 = AA                  A:01 X:55 Y:E1 P:65 SP:FB CYC:181 SL:52
D846  6E 78 06  ROR $0678 = 01                  A:01 X:55 Y:E1 P:65 SP:FB CYC:193 SL:52
D849  AD 78 06  LDA $0678 = 80                  A:01 X:55 Y:E1 P:E5 SP:FB CYC:211 SL:52
D84C  20 EA F9  JSR $F9EA                       A:80 X:55 Y:E1 P:E5 SP:FB CYC:223 SL:52
F9EA  90 1C     BCC $FA08                       A:80 X:55 Y:E1 P:E5 SP:F9 CYC:241 SL:52
F9EC  F0 1A     BEQ $FA08                       A:80 X:55 Y:E1 P:E5 SP:F9 CYC:247 SL:52
F9EE  10 18     BPL $FA08                       A:80 X:55 Y:E1 P:E5 SP:F9 CYC:253 SL:52
F9F0  50 16     BVC $FA08                       A:80 X:55 Y:E1 P:E5 SP:F9 CYC:259 SL:52
F9F2  C9 80     CMP #$80                        A:80 X:55 Y:E1 P:E5 SP:F9 CYC:265 SL:52
F9F4  D0 12     BNE $FA08                       A:80 X:55 Y:E1 P:67 SP:F9 CYC:271 SL:52
F9F6  B8        CLV                             A:80 X:55 Y:E1 P:67 SP:F9 CYC:277 SL:52
F9F7  18        CLC                             A:80 X:55 Y:E1 P:27 SP:F9 CYC:283 SL:52
F9F8  A9 55     LDA #$55                        A:80 X:55 Y:E1 P:26 SP:F9 CYC:289 SL:52
F9FA  60        RTS                             A:55 X:55 Y:E1 P:24 SP:F9 CYC:295 SL:52
D84F  C8        INY                             A:55 X:55 Y:E1 P:24 SP:FB CYC:313 SL:52
D850  8D 78 06  STA $0678 = 80                  A:55 X:55 Y:E2 P:A4 SP:FB CYC:319 SL:52
D853  6E 78 06  ROR $0678 = 55                  A:55 X:55 Y:E2 P:A4 SP:FB CYC:331 SL:52
D856  AD 78 06  LDA $0678 = 2A                  A:55 X:55 Y:E2 P:25 SP:FB CYC:  8 SL:53
D859  20 FB F9  JSR $F9FB                       A:2A X:55 Y:E2 P:25 SP:FB CYC: 20 SL:53
F9FB  90 0B     BCC $FA08                       A:2A X:55 Y:E2 P:25 SP:F9 CYC: 38 SL:53
F9FD  F0 09     BEQ $FA08                       A:2A X:55 Y:E2 P:25 SP:F9 CYC: 44 SL:53
F9FF  30 07     BMI $FA08                       A:2A X:55 Y:E2 P:25 SP:F9 CYC: 50 SL:53
FA01  70 05     BVS $FA08                       A:2A X:55 Y:E2 P:25 SP:F9 CYC: 56 SL:53
FA03  C9 2A     CMP #$2A                        A:2A X:55 Y:E2 P:25 SP:F9 CYC: 62 SL:53
FA05  D0 01     BNE $FA08                       A:2A X:55 Y:E2 P:27 SP:F9 CYC: 68 SL:53
FA07  60        RTS                             A:2A X:55 Y:E2 P:27 SP:F9 CYC: 74 SL:53
D85C  C8        INY                             A:2A X:55 Y:E2 P:27 SP:FB CYC: 92 SL:53
D85D  20 0A FA  JSR $FA0A                       A:2A X:55 Y:E3 P:A5 SP:FB CYC: 98 SL:53
FA0A  24 01     BIT $01 = FF                    A:2A X:55 Y:E3 P:A5 SP:F9 CYC:116 SL:53
FA0C  38        SEC                             A:2A X:55 Y:E3 P:E5 SP:F9 CYC:125 SL:53
FA0D  A9 80     LDA #$80                        A:2A X:55 Y:E3 P:E5 SP:F9 CYC:131 SL:53
FA0F  60        RTS                             A:80 X:55 Y:E3 P:E5 SP:F9 CYC:137 SL:53
D860  8D 78 06  STA $0678 = 2A                  A:80 X:55 Y:E3 P:E5 SP:FB CYC:155 SL:53
D863  2E 78 06  ROL $0678 = 80                  A:80 X:55 Y:E3 P:E5 SP:FB CYC:167 SL:53
D866  AD 78 06  LDA $0678 = 01                  A:80 X:55 Y:E3 P:65 SP:FB CYC:185 SL:53
D869  20 10 FA  JSR $FA10                       A:01 X:55 Y:E3 P:65 SP:FB CYC:197 SL:53
FA10  90 1C     BCC $FA2E                       A:01 X:55 Y:E3 P:65 SP:F9 CYC:215 SL:53
FA12  F0 1A     BEQ $FA2E                       A:01 X:55 Y:E3 P:65 SP:F9 CYC:221 SL:53
FA14  30 18     BMI $FA2E                       A:01 X:55 Y:E3 P:65 SP:F9 CYC:227 SL:53
FA16  50 16     BVC $FA2E                       A:01 X:55 Y:E3 P:65 SP:F9 CYC:233 SL:53
FA18  C9 01     CMP #$01                        A:01 X:55 Y:E3 P:65 SP:F9 CYC:239 SL:53
FA1A  D0 12     BNE $FA2E                       A:01 X:55 Y:E3 P:67 SP:F9 CYC:245 SL:53
FA1C  B8        CLV                             A:01 X:55 Y:E3 P:67 SP:F9 CYC:251 SL:53
FA1D  18        CLC                             A:01 X:55 Y:E3 P:27 SP:F9 CYC:257 SL:53
FA1E  A9 55     LDA #$55                        A:01 X:55 Y:E3 P:26 SP:F9 CYC:263 SL:53
FA20  60        RTS                             A:55 X:55 Y:E3 P:24 SP:F9 CYC:269 SL:53
D86C  C8        INY                             A:55 X:55 Y:E3 P:24 SP:FB CYC:287 SL:53
D86D  8D 78 06  STA $0678 = 01                  A:55 X:55 Y:E4 P:A4 SP:FB CYC:293 SL:53
D870  2E 78 06  ROL $0678 = 55                  A:55 X:55 Y:E4 P:A4 SP:FB CYC:305 SL:53
D873  AD 78 06  LDA $0678 = AA                  A:55 X:55 Y:E4 P:A4 SP:FB CYC:323 SL:53
D876  20 21 FA  JSR $FA21                       A:AA X:55 Y:E4 P:A4 SP:FB CYC:335 SL:53
FA21  B0 0B     BCS $FA2E                       A:AA X:55 Y:E4 P:A4 SP:F9 CYC: 12 SL:54
FA23  F0 09     BEQ $FA2E                       A:AA X:55 Y:E4 P:A4 SP:F9 CYC: 18 SL:54
FA25  10 07     BPL $FA2E                       A:AA X:55 Y:E4 P:A4 SP:F9 CYC: 24 SL:54
FA27  70 05     BVS $FA2E                       A:AA X:55 Y:E4 P:A4 SP:F9 CYC: 30 SL:54
FA29  C9 AA     CMP #$AA                        A:AA X:55 Y:E4 P:A4 SP:F9 CYC: 36 SL:54
FA2B  D0 01     BNE $FA2E                       A:AA X:55 Y:E4 P:27 SP:F9 CYC: 42 SL:54
FA2D  60        RTS                             A:AA X:55 Y:E4 P:27 SP:F9 CYC: 48 SL:54
D879  A9 FF     LDA #$FF                        A:AA X:55 Y:E4 P:27 SP:FB CYC: 66 SL:54
D87B  8D 78 06  STA $0678 = AA                  A:FF X:55 Y:E4 P:A5 SP:FB CYC: 72 SL:54
D87E  85 01     STA $01 = FF                    A:FF X:55 Y:E4 P:A5 SP:FB CYC: 84 SL:54
D880  24 01     BIT $01 = FF                    A:FF X:55 Y:E4 P:A5 SP:FB CYC: 93 SL:54
D882  38        SEC                             A:FF X:55 Y:E4 P:E5 SP:FB CYC:102 SL:54
D883  EE 78 06  INC $0678 = FF                  A:FF X:55 Y:E4 P:E5 SP:FB CYC:108 SL:54
D886  D0 0D     BNE $D895                       A:FF X:55 Y:E4 P:67 SP:FB CYC:126 SL:54
D888  30 0B     BMI $D895                       A:FF X:55 Y:E4 P:67 SP:FB CYC:132 SL:54
D88A  50 09     BVC $D895                       A:FF X:55 Y:E4 P:67 SP:FB CYC:138 SL:54
D88C  90 07     BCC $D895                       A:FF X:55 Y:E4 P:67 SP:FB CYC:144 SL:54
D88E  AD 78 06  LDA $0678 = 00                  A:FF X:55 Y:E4 P:67 SP:FB CYC:150 SL:54
D891  C9 00     CMP #$00                        A:00 X:55 Y:E4 P:67 SP:FB CYC:162 SL:54
D893  F0 04     BEQ $D899                       A:00 X:55 Y:E4 P:67 SP:FB CYC:168 SL:54
D899  A9 7F     LDA #$7F                        A:00 X:55 Y:E4 P:67 SP:FB CYC:177 SL:54
D89B  8D 78 06  STA $0678 = 00                  A:7F X:55 Y:E4 P:65 SP:FB CYC:183 SL:54
D89E  B8        CLV                             A:7F X:55 Y:E4 P:65 SP:FB CYC:195 SL:54
D89F  18        CLC                             A:7F X:55 Y:E4 P:25 SP:FB CYC:201 SL:54
D8A0  EE 78 06  INC $0678 = 7F                  A:7F X:55 Y:E4 P:24 SP:FB CYC:207 SL:54
D8A3  F0 0D     BEQ $D8B2                       A:7F X:55 Y:E4 P:A4 SP:FB CYC:225 SL:54
D8A5  10 0B     BPL $D8B2                       A:7F X:55 Y:E4 P:A4 SP:FB CYC:231 SL:54
D8A7  70 09     BVS $D8B2                       A:7F X:55 Y:E4 P:A4 SP:FB CYC:237 SL:54
D8A9  B0 07     BCS $D8B2                       A:7F X:55 Y:E4 P:A4 SP:FB CYC:243 SL:54
D8AB  AD 78 06  LDA $0678 = 80                  A:7F X:55 Y:E4 P:A4 SP:FB CYC:249 SL:54
D8AE  C9 80     CMP #$80                        A:80 X:55 Y:E4 P:A4 SP:FB CYC:261 SL:54
D8B0  F0 04     BEQ $D8B6                       A:80 X:55 Y:E4 P:27 SP:FB CYC:267 SL:54
D8B6  A9 00     LDA #$00                        A:80 X:55 Y:E4 P:27 SP:FB CYC:276 SL:54
D8B8  8D 78 06  STA $0678 = 80                  A:00 X:55 Y:E4 P:27 SP:FB CYC:282 SL:54
D8BB  24 01     BIT $01 = FF                    A:00 X:55 Y:E4 P:27 SP:FB CYC:294 SL:54
D8BD  38        SEC                             A:00 X:55 Y:E4 P:E7 SP:FB CYC:303 SL:54
D8BE  CE 78 06  DEC $0678 = 00                  A:00 X:55 Y:E4 P:E7 SP:FB CYC:309 SL:54
D8C1  F0 0D     BEQ $D8D0                       A:00 X:55 Y:E4 P:E5 SP:FB CYC:327 SL:54
D8C3  10 0B     BPL $D8D0                       A:00 X:55 Y:E4 P:E5 SP:FB CYC:333 SL:54
D8C5  50 09     BVC $D8D0                       A:00 X:55 Y:E4 P:E5 SP:FB CYC:339 SL:54
D8C7  90 07     BCC $D8D0                       A:00 X:55 Y:E4 P:E5 SP:FB CYC:  4 SL:55
D8C9  AD 78 06  LDA $0678 = FF                  A:00 X:55 Y:E4 P:E5 SP:FB CYC: 10 SL:55
D8CC  C9 FF     CMP #$FF                        A:FF X:55 Y:E4 P:E5 SP:FB CYC: 22 SL:55
D8CE  F0 04     BEQ $D8D4                       A:FF X:55 Y:E4 P:67 SP:FB CYC: 28 SL:55
D8D4  A9 80     LDA #$80                        A:FF X:55 Y:E4 P:67 SP:FB CYC: 37 SL:55
D8D6  8D 78 06  STA $0678 = FF                  A:80 X:55 Y:E4 P:E5 SP:FB CYC: 43 SL:55
D8D9  B8        CLV                             A:80 X:55 Y:E4 P:E5 SP:FB CYC: 55 SL:55
D8DA  18        CLC                             A:80 X:55 Y:E4 P:A5 SP:FB CYC: 61 SL:55
D8DB  CE 78 06  DEC $0678 = 80                  A:80 X:55 Y:E4 P:A4 SP:FB CYC: 67 SL:55
D8DE  F0 0D     BEQ $D8ED                       A:80 X:55 Y:E4 P:24 SP:FB CYC: 85 SL:55
D8E0  30 0B     BMI $D8ED                       A:80 X:55 Y:E4 P:24 SP:FB CYC: 91 SL:55
D8E2  70 09     BVS $D8ED                       A:80 X:55 Y:E4 P:24 SP:FB CYC: 97 SL:55
D8E4  B0 07     BCS $D8ED                       A:80 X:55 Y:E4 P:24 SP:FB CYC:103 SL:55
D8E6  AD 78 06  LDA $0678 = 7F                  A:80 X:55 Y:E4 P:24 SP:FB CYC:109 SL:55
D8E9  C9 7F     CMP #$7F                        A:7F X:55 Y:E4 P:24 SP:FB CYC:121 SL:55
D8EB  F0 04     BEQ $D8F1                       A:7F X:55 Y:E4 P:27 SP:FB CYC:127 SL:55
D8F1  A9 01     LDA #$01                        A:7F X:55 Y:E4 P:27 SP:FB CYC:136 SL:55
D8F3  8D 78 06  STA $0678 = 7F                  A:01 X:55 Y:E4 P:25 SP:FB CYC:142 SL:55
D8F6  CE 78 06  DEC $0678 = 01                  A:01 X:55 Y:E4 P:25 SP:FB CYC:154 SL:55
D8F9  F0 04     BEQ $D8FF                       A:01 X:55 Y:E4 P:27 SP:FB CYC:172 SL:55
D8FF  60        RTS                             A:01 X:55 Y:E4 P:27 SP:FB CYC:181 SL:55
C618  20 00 D9  JSR $D900                       A:01 X:55 Y:E4 P:27 SP:FD CYC:199 SL:55
D900  A9 A3     LDA #$A3                        A:01 X:55 Y:E4 P:27 SP:FB CYC:217 SL:55
D902  85 33     STA $33 = 00                    A:A3 X:55 Y:E4 P:A5 SP:FB CYC:223 SL:55
D904  A9 89     LDA #$89                        A:A3 X:55 Y:E4 P:A5 SP:FB CYC:232 SL:55
D906  8D 00 03  STA $0300 = 70                  A:89 X:55 Y:E4 P:A5 SP:FB CYC:238 SL:55
D909  A9 12     LDA #$12                        A:89 X:55 Y:E4 P:A5 SP:FB CYC:250 SL:55
D90B  8D 45 02  STA $0245 = 00                  A:12 X:55 Y:E4 P:25 SP:FB CYC:256 SL:55
D90E  A9 FF     LDA #$FF                        A:12 X:55 Y:E4 P:25 SP:FB CYC:268 SL:55
D910  85 01     STA $01 = FF                    A:FF X:55 Y:E4 P:A5 SP:FB CYC:274 SL:55
D912  A2 65     LDX #$65                        A:FF X:55 Y:E4 P:A5 SP:FB CYC:283 SL:55
D914  A9 00     LDA #$00                        A:FF X:65 Y:E4 P:25 SP:FB CYC:289 SL:55
D916  85 89     STA $89 = 00                    A:00 X:65 Y:E4 P:27 SP:FB CYC:295 SL:55
D918  A9 03     LDA #$03                        A:00 X:65 Y:E4 P:27 SP:FB CYC:304 SL:55
D91A  85 8A     STA $8A = 00                    A:03 X:65 Y:E4 P:25 SP:FB CYC:310 SL:55
D91C  A0 00     LDY #$00                        A:03 X:65 Y:E4 P:25 SP:FB CYC:319 SL:55
D91E  38        SEC                             A:03 X:65 Y:00 P:27 SP:FB CYC:325 SL:55
D91F  A9 00     LDA #$00                        A:03 X:65 Y:00 P:27 SP:FB CYC:331 SL:55
D921  B8        CLV                             A:00 X:65 Y:00 P:27 SP:FB CYC:337 SL:55
D922  B1 89     LDA ($89),Y = 0300 @ 0300 = 89  A:00 X:65 Y:00 P:27 SP:FB CYC:  2 SL:56
D924  F0 0C     BEQ $D932                       A:89 X:65 Y:00 P:A5 SP:FB CYC: 17 SL:56
D926  90 0A     BCC $D932                       A:89 X:65 Y:00 P:A5 SP:FB CYC: 23 SL:56
D928  70 08     BVS $D932                       A:89 X:65 Y:00 P:A5 SP:FB CYC: 29 SL:56
D92A  C9 89     CMP #$89                        A:89 X:65 Y:00 P:A5 SP:FB CYC: 35 SL:56
D92C  D0 04     BNE $D932                       A:89 X:65 Y:00 P:27 SP:FB CYC: 41 SL:56
D92E  E0 65     CPX #$65                        A:89 X:65 Y:00 P:27 SP:FB CYC: 47 SL:56
D930  F0 04     BEQ $D936                       A:89 X:65 Y:00 P:27 SP:FB CYC: 53 SL:56
D936  A9 FF     LDA #$FF                        A:89 X:65 Y:00 P:27 SP:FB CYC: 62 SL:56
D938  85 97     STA $97 = 00                    A:FF X:65 Y:00 P:A5 SP:FB CYC: 68 SL:56
D93A  85 98     STA $98 = 00                    A:FF X:65 Y:00 P:A5 SP:FB CYC: 77 SL:56
D93C  24 98     BIT $98 = FF                    A:FF X:65 Y:00 P:A5 SP:FB CYC: 86 SL:56
D93E  A0 34     LDY #$34                        A:FF X:65 Y:00 P:E5 SP:FB CYC: 95 SL:56
D940  B1 97     LDA ($97),Y = FFFF @ 0033 = A3  A:FF X:65 Y:34 P:65 SP:FB CYC:101 SL:56
D942  C9 A3     CMP #$A3                        A:A3 X:65 Y:34 P:E5 SP:FB CYC:119 SL:56
D944  D0 02     BNE $D948                       A:A3 X:65 Y:34 P:67 SP:FB CYC:125 SL:56
D946  B0 04     BCS $D94C                       A:A3 X:65 Y:34 P:67 SP:FB CYC:131 SL:56
D94C  A5 00     LDA $00 = 00                    A:A3 X:65 Y:34 P:67 SP:FB CYC:140 SL:56
D94E  48        PHA                             A:00 X:65 Y:34 P:67 SP:FB CYC:149 SL:56
D94F  A9 46     LDA #$46                        A:00 X:65 Y:34 P:67 SP:FA CYC:158 SL:56
D951  85 FF     STA $FF = 00                    A:46 X:65 Y:34 P:65 SP:FA CYC:164 SL:56
D953  A9 01     LDA #$01                        A:46 X:65 Y:34 P:65 SP:FA CYC:173 SL:56
D955  85 00     STA $00 = 00                    A:01 X:65 Y:34 P:65 SP:FA CYC:179 SL:56
D957  A0 FF     LDY #$FF                        A:01 X:65 Y:34 P:65 SP:FA CYC:188 SL:56
D959  B1 FF     LDA ($FF),Y = 0146 @ 0245 = 12  A:01 X:65 Y:FF P:E5 SP:FA CYC:194 SL:56
D95B  C9 12     CMP #$12                        A:12 X:65 Y:FF P:65 SP:FA CYC:212 SL:56
D95D  F0 04     BEQ $D963                       A:12 X:65 Y:FF P:67 SP:FA CYC:218 SL:56
D963  68        PLA                             A:12 X:65 Y:FF P:67 SP:FA CYC:227 SL:56
D964  85 00     STA $00 = 01                    A:00 X:65 Y:FF P:67 SP:FB CYC:239 SL:56
D966  A2 ED     LDX #$ED                        A:00 X:65 Y:FF P:67 SP:FB CYC:248 SL:56
D968  A9 00     LDA #$00                        A:00 X:ED Y:FF P:E5 SP:FB CYC:254 SL:56
D96A  85 33     STA $33 = A3                    A:00 X:ED Y:FF P:67 SP:FB CYC:260 SL:56
D96C  A9 04     LDA #$04                        A:00 X:ED Y:FF P:67 SP:FB CYC:269 SL:56
D96E  85 34     STA $34 = 00                    A:04 X:ED Y:FF P:65 SP:FB CYC:275 SL:56
D970  A0 00     LDY #$00                        A:04 X:ED Y:FF P:65 SP:FB CYC:284 SL:56
D972  18        CLC                             A:04 X:ED Y:00 P:67 SP:FB CYC:290 SL:56
D973  A9 FF     LDA #$FF                        A:04 X:ED Y:00 P:66 SP:FB CYC:296 SL:56
D975  85 01     STA $01 = FF                    A:FF X:ED Y:00 P:E4 SP:FB CYC:302 SL:56
D977  24 01     BIT $01 = FF                    A:FF X:ED Y:00 P:E4 SP:FB CYC:311 SL:56
D979  A9 AA     LDA #$AA                        A:FF X:ED Y:00 P:E4 SP:FB CYC:320 SL:56
D97B  8D 00 04  STA $0400 = AD                  A:AA X:ED Y:00 P:E4 SP:FB CYC:326 SL:56
D97E  A9 55     LDA #$55                        A:AA X:ED Y:00 P:E4 SP:FB CYC:338 SL:56
D980  11 33     ORA ($33),Y = 0400 @ 0400 = AA  A:55 X:ED Y:00 P:64 SP:FB CYC:  3 SL:57
D982  B0 08     BCS $D98C                       A:FF X:ED Y:00 P:E4 SP:FB CYC: 18 SL:57
D984  10 06     BPL $D98C                       A:FF X:ED Y:00 P:E4 SP:FB CYC: 24 SL:57
D986  C9 FF     CMP #$FF                        A:FF X:ED Y:00 P:E4 SP:FB CYC: 30 SL:57
D988  D0 02     BNE $D98C                       A:FF X:ED Y:00 P:67 SP:FB CYC: 36 SL:57
D98A  70 02     BVS $D98E                       A:FF X:ED Y:00 P:67 SP:FB CYC: 42 SL:57
D98E  E8        INX                             A:FF X:ED Y:00 P:67 SP:FB CYC: 51 SL:57
D98F  38        SEC                             A:FF X:EE Y:00 P:E5 SP:FB CYC: 57 SL:57
D990  B8        CLV                             A:FF X:EE Y:00 P:E5 SP:FB CYC: 63 SL:57
D991  A9 00     LDA #$00                        A:FF X:EE Y:00 P:A5 SP:FB CYC: 69 SL:57
D993  11 33     ORA ($33),Y = 0400 @ 0400 = AA  A:00 X:EE Y:00 P:27 SP:FB CYC: 75 SL:57
D995  F0 06     BEQ $D99D                       A:AA X:EE Y:00 P:A5 SP:FB CYC: 90 SL:57
D997  70 04     BVS $D99D                       A:AA X:EE Y:00 P:A5 SP:FB CYC: 96 SL:57
D999  90 02     BCC $D99D                       A:AA X:EE Y:00 P:A5 SP:FB CYC:102 SL:57
D99B  30 02     BMI $D99F                       A:AA X:EE Y:00 P:A5 SP:FB CYC:108 SL:57
D99F  E8        INX                             A:AA X:EE Y:00 P:A5 SP:FB CYC:117 SL:57
D9A0  18        CLC                             A:AA X:EF Y:00 P:A5 SP:FB CYC:123 SL:57
D9A1  24 01     BIT $01 = FF                    A:AA X:EF Y:00 P:A4 SP:FB CYC:129 SL:57
D9A3  A9 55     LDA #$55                        A:AA X:EF Y:00 P:E4 SP:FB CYC:138 SL:57
D9A5  31 33     AND ($33),Y = 0400 @ 0400 = AA  A:55 X:EF Y:00 P:64 SP:FB CYC:144 SL:57
D9A7  D0 06     BNE $D9AF                       A:00 X:EF Y:00 P:66 SP:FB CYC:159 SL:57
D9A9  50 04     BVC $D9AF                       A:00 X:EF Y:00 P:66 SP:FB CYC:165 SL:57
D9AB  B0 02     BCS $D9AF                       A:00 X:EF Y:00 P:66 SP:FB CYC:171 SL:57
D9AD  10 02     BPL $D9B1                       A:00 X:EF Y:00 P:66 SP:FB CYC:177 SL:57
D9B1  E8        INX                             A:00 X:EF Y:00 P:66 SP:FB CYC:186 SL:57
D9B2  38        SEC                             A:00 X:F0 Y:00 P:E4 SP:FB CYC:192 SL:57
D9B3  B8        CLV                             A:00 X:F0 Y:00 P:E5 SP:FB CYC:198 SL:57
D9B4  A9 EF     LDA #$EF                        A:00 X:F0 Y:00 P:A5 SP:FB CYC:204 SL:57
D9B6  8D 00 04  STA $0400 = AA                  A:EF X:F0 Y:00 P:A5 SP:FB CYC:210 SL:57
D9B9  A9 F8     LDA #$F8                        A:EF X:F0 Y:00 P:A5 SP:FB CYC:222 SL:57
D9BB  31 33     AND ($33),Y = 0400 @ 0400 = EF  A:F8 X:F0 Y:00 P:A5 SP:FB CYC:228 SL:57
D9BD  90 08     BCC $D9C7                       A:E8 X:F0 Y:00 P:A5 SP:FB CYC:243 SL:57
D9BF  10 06     BPL $D9C7                       A:E8 X:F0 Y:00 P:A5 SP:FB CYC:249 SL:57
D9C1  C9 E8     CMP #$E8                        A:E8 X:F0 Y:00 P:A5 SP:FB CYC:255 SL:57
D9C3  D0 02     BNE $D9C7                       A:E8 X:F0 Y:00 P:27 SP:FB CYC:261 SL:57
D9C5  50 02     BVC $D9C9                       A:E8 X:F0 Y:00 P:27 SP:FB CYC:267 SL:57
D9C9  E8        INX                             A:E8 X:F0 Y:00 P:27 SP:FB CYC:276 SL:57
D9CA  18        CLC                             A:E8 X:F1 Y:00 P:A5 SP:FB CYC:282 SL:57
D9CB  24 01     BIT $01 = FF                    A:E8 X:F1 Y:00 P:A4 SP:FB CYC:288 SL:57
D9CD  A9 AA     LDA #$AA                        A:E8 X:F1 Y:00 P:E4 SP:FB CYC:297 SL:57
D9CF  8D 00 04  STA $0400 = EF                  A:AA X:F1 Y:00 P:E4 SP:FB CYC:303 SL:57
D9D2  A9 5F     LDA #$5F                        A:AA X:F1 Y:00 P:E4 SP:FB CYC:315 SL:57
D9D4  51 33     EOR ($33),Y = 0400 @ 0400 = AA  A:5F X:F1 Y:00 P:64 SP:FB CYC:321 SL:57
D9D6  B0 08     BCS $D9E0                       A:F5 X:F1 Y:00 P:E4 SP:FB CYC:336 SL:57
D9D8  10 06     BPL $D9E0                       A:F5 X:F1 Y:00 P:E4 SP:FB CYC:  1 SL:58
D9DA  C9 F5     CMP #$F5                        A:F5 X:F1 Y:00 P:E4 SP:FB CYC:  7 SL:58
D9DC  D0 02     BNE $D9E0                       A:F5 X:F1 Y:00 P:67 SP:FB CYC: 13 SL:58
D9DE  70 02     BVS $D9E2                       A:F5 X:F1 Y:00 P:67 SP:FB CYC: 19 SL:58
D9E2  E8        INX                             A:F5 X:F1 Y:00 P:67 SP:FB CYC: 28 SL:58
D9E3  38        SEC                             A:F5 X:F2 Y:00 P:E5 SP:FB CYC: 34 SL:58
D9E4  B8        CLV                             A:F5 X:F2 Y:00 P:E5 SP:FB CYC: 40 SL:58
D9E5  A9 70     LDA #$70                        A:F5 X:F2 Y:00 P:A5 SP:FB CYC: 46 SL:58
D9E7  8D 00 04  STA $0400 = AA                  A:70 X:F2 Y:00 P:25 SP:FB CYC: 52 SL:58
D9EA  51 33     EOR ($33),Y = 0400 @ 0400 = 70  A:70 X:F2 Y:00 P:25 SP:FB CYC: 64 SL:58
D9EC  D0 06     BNE $D9F4                       A:00 X:F2 Y:00 P:27 SP:FB CYC: 79 SL:58
D9EE  70 04     BVS $D9F4                       A:00 X:F2 Y:00 P:27 SP:FB CYC: 85 SL:58
D9F0  90 02     BCC $D9F4                       A:00 X:F2 Y:00 P:27 SP:FB CYC: 91 SL:58
D9F2  10 02     BPL $D9F6                       A:00 X:F2 Y:00 P:27 SP:FB CYC: 97 SL:58
D9F6  E8        INX                             A:00 X:F2 Y:00 P:27 SP:FB CYC:106 SL:58
D9F7  18        CLC                             A:00 X:F3 Y:00 P:A5 SP:FB CYC:112 SL:58
D9F8  24 01     BIT $01 = FF                    A:00 X:F3 Y:00 P:A4 SP:FB CYC:118 SL:58
D9FA  A9 69     LDA #$69                        A:00 X:F3 Y:00 P:E6 SP:FB CYC:127 SL:58
D9FC  8D 00 04  STA $0400 = 70                  A:69 X:F3 Y:00 P:64 SP:FB CYC:133 SL:58
D9FF  A9 00     LDA #$00                        A:69 X:F3 Y:00 P:64 SP:FB CYC:145 SL:58
DA01  71 33     ADC ($33),Y = 0400 @ 0400 = 69  A:00 X:F3 Y:00 P:66 SP:FB CYC:151 SL:58
DA03  30 08     BMI $DA0D                       A:69 X:F3 Y:00 P:24 SP:FB CYC:166 SL:58
DA05  B0 06     BCS $DA0D                       A:69 X:F3 Y:00 P:24 SP:FB CYC:172 SL:58
DA07  C9 69     CMP #$69                        A:69 X:F3 Y:00 P:24 SP:FB CYC:178 SL:58
DA09  D0 02     BNE $DA0D                       A:69 X:F3 Y:00 P:27 SP:FB CYC:184 SL:58
DA0B  50 02     BVC $DA0F                       A:69 X:F3 Y:00 P:27 SP:FB CYC:190 SL:58
DA0F  E8        INX                             A:69 X:F3 Y:00 P:27 SP:FB CYC:199 SL:58
DA10  38        SEC                             A:69 X:F4 Y:00 P:A5 SP:FB CYC:205 SL:58
DA11  24 01     BIT $01 = FF                    A:69 X:F4 Y:00 P:A5 SP:FB CYC:211 SL:58
DA13  A9 00     LDA #$00                        A:69 X:F4 Y:00 P:E5 SP:FB CYC:220 SL:58
DA15  71 33     ADC ($33),Y = 0400 @ 0400 = 69  A:00 X:F4 Y:00 P:67 SP:FB CYC:226 SL:58
DA17  30 08     BMI $DA21                       A:6A X:F4 Y:00 P:24 SP:FB CYC:241 SL:58
DA19  B0 06     BCS $DA21                       A:6A X:F4 Y:00 P:24 SP:FB CYC:247 SL:58
DA1B  C9 6A     CMP #$6A                        A:6A X:F4 Y:00 P:24 SP:FB CYC:253 SL:58
DA1D  D0 02     BNE $DA21                       A:6A X:F4 Y:00 P:27 SP:FB CYC:259 SL:58
DA1F  50 02     BVC $DA23                       A:6A X:F4 Y:00 P:27 SP:FB CYC:265 SL:58
DA23  E8        INX                             A:6A X:F4 Y:00 P:27 SP:FB CYC:274 SL:58
DA24  38        SEC                             A:6A X:F5 Y:00 P:A5 SP:FB CYC:280 SL:58
DA25  B8        CLV                             A:6A X:F5 Y:00 P:A5 SP:FB CYC:286 SL:58
DA26  A9 7F     LDA #$7F                        A:6A X:F5 Y:00 P:A5 SP:FB CYC:292 SL:58
DA28  8D 00 04  STA $0400 = 69                  A:7F X:F5 Y:00 P:25 SP:FB CYC:298 SL:58
DA2B  71 33     ADC ($33),Y = 0400 @ 0400 = 7F  A:7F X:F5 Y:00 P:25 SP:FB CYC:310 SL:58
DA2D  10 08     BPL $DA37                       A:FF X:F5 Y:00 P:E4 SP:FB CYC:325 SL:58
DA2F  B0 06     BCS $DA37                       A:FF X:F5 Y:00 P:E4 SP:FB CYC:331 SL:58
DA31  C9 FF     CMP #$FF                        A:FF X:F5 Y:00 P:E4 SP:FB CYC:337 SL:58
DA33  D0 02     BNE $DA37                       A:FF X:F5 Y:00 P:67 SP:FB CYC:  2 SL:59
DA35  70 02     BVS $DA39                       A:FF X:F5 Y:00 P:67 SP:FB CYC:  8 SL:59
DA39  E8        INX                             A:FF X:F5 Y:00 P:67 SP:FB CYC: 17 SL:59
DA3A  18        CLC                             A:FF X:F6 Y:00 P:E5 SP:FB CYC: 23 SL:59
DA3B  24 01     BIT $01 = FF                    A:FF X:F6 Y:00 P:E4 SP:FB CYC: 29 SL:59
DA3D  A9 80     LDA #$80                        A:FF X:F6 Y:00 P:E4 SP:FB CYC: 38 SL:59
DA3F  8D 00 04  STA $0400 = 7F                  A:80 X:F6 Y:00 P:E4 SP:FB CYC: 44 SL:59
DA42  A9 7F     LDA #$7F                        A:80 X:F6 Y:00 P:E4 SP:FB CYC: 56 SL:59
DA44  71 33     ADC ($33),Y = 0400 @ 0400 = 80  A:7F X:F6 Y:00 P:64 SP:FB CYC: 62 SL:59
DA46  10 08     BPL $DA50                       A:FF X:F6 Y:00 P:A4 SP:FB CYC: 77 SL:59
DA48  B0 06     BCS $DA50                       A:FF X:F6 Y:00 P:A4 SP:FB CYC: 83 SL:59
DA4A  C9 FF     CMP #$FF                        A:FF X:F6 Y:00 P:A4 SP:FB CYC: 89 SL:59
DA4C  D0 02     BNE $DA50                       A:FF X:F6 Y:00 P:27 SP:FB CYC: 95 SL:59
DA4E  50 02     BVC $DA52                       A:FF X:F6 Y:00 P:27 SP:FB CYC:101 SL:59
DA52  E8        INX                             A:FF X:F6 Y:00 P:27 SP:FB CYC:110 SL:59
DA53  38        SEC                             A:FF X:F7 Y:00 P:A5 SP:FB CYC:116 SL:59
DA54  B8        CLV                             A:FF X:F7 Y:00 P:A5 SP:FB CYC:122 SL:59
DA55  A9 80     LDA #$80                        A:FF X:F7 Y:00 P:A5 SP:FB CYC:128 SL:59
DA57  8D 00 04  STA $0400 = 80                  A:80 X:F7 Y:00 P:A5 SP:FB CYC:134 SL:59
DA5A  A9 7F     LDA #$7F                        A:80 X:F7 Y:00 P:A5 SP:FB CYC:146 SL:59
DA5C  71 33     ADC ($33),Y = 0400 @ 0400 = 80  A:7F X:F7 Y:00 P:25 SP:FB CYC:152 SL:59
DA5E  D0 06     BNE $DA66                       A:00 X:F7 Y:00 P:27 SP:FB CYC:167 SL:59
DA60  30 04     BMI $DA66                       A:00 X:F7 Y:00 P:27 SP:FB CYC:173 SL:59
DA62  70 02     BVS $DA66                       A:00 X:F7 Y:00 P:27 SP:FB CYC:179 SL:59
DA64  B0 02     BCS $DA68                       A:00 X:F7 Y:00 P:27 SP:FB CYC:185 SL:59
DA68  E8        INX                             A:00 X:F7 Y:00 P:27 SP:FB CYC:194 SL:59
DA69  24 01     BIT $01 = FF                    A:00 X:F8 Y:00 P:A5 SP:FB CYC:200 SL:59
DA6B  A9 40     LDA #$40                        A:00 X:F8 Y:00 P:E7 SP:FB CYC:209 SL:59
DA6D  8D 00 04  STA $0400 = 80                  A:40 X:F8 Y:00 P:65 SP:FB CYC:215 SL:59
DA70  D1 33     CMP ($33),Y = 0400 @ 0400 = 40  A:40 X:F8 Y:00 P:65 SP:FB CYC:227 SL:59
DA72  30 06     BMI $DA7A                       A:40 X:F8 Y:00 P:67 SP:FB CYC:242 SL:59
DA74  90 04     BCC $DA7A                       A:40 X:F8 Y:00 P:67 SP:FB CYC:248 SL:59
DA76  D0 02     BNE $DA7A                       A:40 X:F8 Y:00 P:67 SP:FB CYC:254 SL:59
DA78  70 02     BVS $DA7C                       A:40 X:F8 Y:00 P:67 SP:FB CYC:260 SL:59
DA7C  E8        INX                             A:40 X:F8 Y:00 P:67 SP:FB CYC:269 SL:59
DA7D  B8        CLV                             A:40 X:F9 Y:00 P:E5 SP:FB CYC:275 SL:59
DA7E  CE 00 04  DEC $0400 = 40                  A:40 X:F9 Y:00 P:A5 SP:FB CYC:281 SL:59
DA81  D1 33     CMP ($33),Y = 0400 @ 0400 = 3F  A:40 X:F9 Y:00 P:25 SP:FB CYC:299 SL:59
DA83  F0 06     BEQ $DA8B                       A:40 X:F9 Y:00 P:25 SP:FB CYC:314 SL:59
DA85  30 04     BMI $DA8B                       A:40 X:F9 Y:00 P:25 SP:FB CYC:320 SL:59
DA87  90 02     BCC $DA8B                       A:40 X:F9 Y:00 P:25 SP:FB CYC:326 SL:59
DA89  50 02     BVC $DA8D                       A:40 X:F9 Y:00 P:25 SP:FB CYC:332 SL:59
DA8D  E8        INX                             A:40 X:F9 Y:00 P:25 SP:FB CYC:  0 SL:60
DA8E  EE 00 04  INC $0400 = 3F                  A:40 X:FA Y:00 P:A5 SP:FB CYC:  6 SL:60
DA91  EE 00 04  INC $0400 = 40                  A:40 X:FA Y:00 P:25 SP:FB CYC: 24 SL:60
DA94  D1 33     CMP ($33),Y = 0400 @ 0400 = 41  A:40 X:FA Y:00 P:25 SP:FB CYC: 42 SL:60
DA96  F0 02     BEQ $DA9A                       A:40 X:FA Y:00 P:A4 SP:FB CYC: 57 SL:60
DA98  30 02     BMI $DA9C                       A:40 X:FA Y:00 P:A4 SP:FB CYC: 63 SL:60
DA9C  E8        INX                             A:40 X:FA Y:00 P:A4 SP:FB CYC: 72 SL:60
DA9D  A9 00     LDA #$00                        A:40 X:FB Y:00 P:A4 SP:FB CYC: 78 SL:60
DA9F  8D 00 04  STA $0400 = 41                  A:00 X:FB Y:00 P:26 SP:FB CYC: 84 SL:60
DAA2  A9 80     LDA #$80                        A:00 X:FB Y:00 P:26 SP:FB CYC: 96 SL:60
DAA4  D1 33     CMP ($33),Y = 0400 @ 0400 = 00  A:80 X:FB Y:00 P:A4 SP:FB CYC:102 SL:60
DAA6  F0 04     BEQ $DAAC                       A:80 X:FB Y:00 P:A5 SP:FB CYC:117 SL:60
DAA8  10 02     BPL $DAAC                       A:80 X:FB Y:00 P:A5 SP:FB CYC:123 SL:60
DAAA  B0 02     BCS $DAAE                       A:80 X:FB Y:00 P:A5 SP:FB CYC:129 SL:60
DAAE  E8        INX                             A:80 X:FB Y:00 P:A5 SP:FB CYC:138 SL:60
DAAF  A0 80     LDY #$80                        A:80 X:FC Y:00 P:A5 SP:FB CYC:144 SL:60
DAB1  8C 00 04  STY $0400 = 00                  A:80 X:FC Y:80 P:A5 SP:FB CYC:150 SL:60
DAB4  A0 00     LDY #$00                        A:80 X:FC Y:80 P:A5 SP:FB CYC:162 SL:60
DAB6  D1 33     CMP ($33),Y = 0400 @ 0400 = 80  A:80 X:FC Y:00 P:27 SP:FB CYC:168 SL:60
DAB8  D0 04     BNE $DABE                       A:80 X:FC Y:00 P:27 SP:FB CYC:183 SL:60
DABA  30 02     BMI $DABE                       A:80 X:FC Y:00 P:27 SP:FB CYC:189 SL:60
DABC  B0 02     BCS $DAC0                       A:80 X:FC Y:00 P:27 SP:FB CYC:195 SL:60
DAC0  E8        INX                             A:80 X:FC Y:00 P:27 SP:FB CYC:204 SL:60
DAC1  EE 00 04  INC $0400 = 80                  A:80 X:FD Y:00 P:A5 SP:FB CYC:210 SL:60
DAC4  D1 33     CMP ($33),Y = 0400 @ 0400 = 81  A:80 X:FD Y:00 P:A5 SP:FB CYC:228 SL:60
DAC6  B0 04     BCS $DACC                       A:80 X:FD Y:00 P:A4 SP:FB CYC:243 SL:60
DAC8  F0 02     BEQ $DACC                       A:80 X:FD Y:00 P:A4 SP:FB CYC:249 SL:60
DACA  30 02     BMI $DACE                       A:80 X:FD Y:00 P:A4 SP:FB CYC:255 SL:60
DACE  E8        INX                             A:80 X:FD Y:00 P:A4 SP:FB CYC:264 SL:60
DACF  CE 00 04  DEC $0400 = 81                  A:80 X:FE Y:00 P:A4 SP:FB CYC:270 SL:60
DAD2  CE 00 04  DEC $0400 = 80                  A:80 X:FE Y:00 P:A4 SP:FB CYC:288 SL:60
DAD5  D1 33     CMP ($33),Y = 0400 @ 0400 = 7F  A:80 X:FE Y:00 P:24 SP:FB CYC:306 SL:60
DAD7  90 04     BCC $DADD                       A:80 X:FE Y:00 P:25 SP:FB CYC:321 SL:60
DAD9  F0 02     BEQ $DADD                       A:80 X:FE Y:00 P:25 SP:FB CYC:327 SL:60
DADB  10 02     BPL $DADF                       A:80 X:FE Y:00 P:25 SP:FB CYC:333 SL:60
DADF  60        RTS                             A:80 X:FE Y:00 P:25 SP:FB CYC:  1 SL:61
C61B  A5 00     LDA $00 = 00                    A:80 X:FE Y:00 P:25 SP:FD CYC: 19 SL:61
C61D  85 10     STA $10 = 00                    A:00 X:FE Y:00 P:27 SP:FD CYC: 28 SL:61
C61F  A9 00     LDA #$00                        A:00 X:FE Y:00 P:27 SP:FD CYC: 37 SL:61
C621  85 00     STA $00 = 00                    A:00 X:FE Y:00 P:27 SP:FD CYC: 43 SL:61
C623  20 E0 DA  JSR $DAE0                       A:00 X:FE Y:00 P:27 SP:FD CYC: 52 SL:61
DAE0  A9 00     LDA #$00                        A:00 X:FE Y:00 P:27 SP:FB CYC: 70 SL:61
DAE2  85 33     STA $33 = 00                    A:00 X:FE Y:00 P:27 SP:FB CYC: 76 SL:61
DAE4  A9 04     LDA #$04                        A:00 X:FE Y:00 P:27 SP:FB CYC: 85 SL:61
DAE6  85 34     STA $34 = 04                    A:04 X:FE Y:00 P:25 SP:FB CYC: 91 SL:61
DAE8  A0 00     LDY #$00                        A:04 X:FE Y:00 P:25 SP:FB CYC:100 SL:61
DAEA  A2 01     LDX #$01                        A:04 X:FE Y:00 P:27 SP:FB CYC:106 SL:61
DAEC  24 01     BIT $01 = FF                    A:04 X:01 Y:00 P:25 SP:FB CYC:112 SL:61
DAEE  A9 40     LDA #$40                        A:04 X:01 Y:00 P:E5 SP:FB CYC:121 SL:61
DAF0  8D 00 04  STA $0400 = 7F                  A:40 X:01 Y:00 P:65 SP:FB CYC:127 SL:61
DAF3  38        SEC                             A:40 X:01 Y:00 P:65 SP:FB CYC:139 SL:61
DAF4  F1 33     SBC ($33),Y = 0400 @ 0400 = 40  A:40 X:01 Y:00 P:65 SP:FB CYC:145 SL:61
DAF6  30 0A     BMI $DB02                       A:00 X:01 Y:00 P:27 SP:FB CYC:160 SL:61
DAF8  90 08     BCC $DB02                       A:00 X:01 Y:00 P:27 SP:FB CYC:166 SL:61
DAFA  D0 06     BNE $DB02                       A:00 X:01 Y:00 P:27 SP:FB CYC:172 SL:61
DAFC  70 04     BVS $DB02                       A:00 X:01 Y:00 P:27 SP:FB CYC:178 SL:61
DAFE  C9 00     CMP #$00                        A:00 X:01 Y:00 P:27 SP:FB CYC:184 SL:61
DB00  F0 02     BEQ $DB04                       A:00 X:01 Y:00 P:27 SP:FB CYC:190 SL:61
DB04  E8        INX                             A:00 X:01 Y:00 P:27 SP:FB CYC:199 SL:61
DB05  B8        CLV                             A:00 X:02 Y:00 P:25 SP:FB CYC:205 SL:61
DB06  38        SEC                             A:00 X:02 Y:00 P:25 SP:FB CYC:211 SL:61
DB07  A9 40     LDA #$40                        A:00 X:02 Y:00 P:25 SP:FB CYC:217 SL:61
DB09  CE 00 04  DEC $0400 = 40                  A:40 X:02 Y:00 P:25 SP:FB CYC:223 SL:61
DB0C  F1 33     SBC ($33),Y = 0400 @ 0400 = 3F  A:40 X:02 Y:00 P:25 SP:FB CYC:241 SL:61
DB0E  F0 0A     BEQ $DB1A                       A:01 X:02 Y:00 P:25 SP:FB CYC:256 SL:61
DB10  30 08     BMI $DB1A                       A:01 X:02 Y:00 P:25 SP:FB CYC:262 SL:61
DB12  90 06     BCC $DB1A                       A:01 X:02 Y:00 P:25 SP:FB CYC:268 SL:61
DB14  70 04     BVS $DB1A                       A:01 X:02 Y:00 P:25 SP:FB CYC:274 SL:61
DB16  C9 01     CMP #$01                        A:01 X:02 Y:00 P:25 SP:FB CYC:280 SL:61
DB18  F0 02     BEQ $DB1C                       A:01 X:02 Y:00 P:27 SP:FB CYC:286 SL:61
DB1C  E8        INX                             A:01 X:02 Y:00 P:27 SP:FB CYC:295 SL:61
DB1D  A9 40     LDA #$40                        A:01 X:03 Y:00 P:25 SP:FB CYC:301 SL:61
DB1F  38        SEC                             A:40 X:03 Y:00 P:25 SP:FB CYC:307 SL:61
DB20  24 01     BIT $01 = FF                    A:40 X:03 Y:00 P:25 SP:FB CYC:313 SL:61
DB22  EE 00 04  INC $0400 = 3F                  A:40 X:03 Y:00 P:E5 SP:FB CYC:322 SL:61
DB25  EE 00 04  INC $0400 = 40                  A:40 X:03 Y:00 P:65 SP:FB CYC:340 SL:61
DB28  F1 33     SBC ($33),Y = 0400 @ 0400 = 41  A:40 X:03 Y:00 P:65 SP:FB CYC: 17 SL:62
DB2A  B0 0A     BCS $DB36                       A:FF X:03 Y:00 P:A4 SP:FB CYC: 32 SL:62
DB2C  F0 08     BEQ $DB36                       A:FF X:03 Y:00 P:A4 SP:FB CYC: 38 SL:62
DB2E  10 06     BPL $DB36                       A:FF X:03 Y:00 P:A4 SP:FB CYC: 44 SL:62
DB30  70 04     BVS $DB36                       A:FF X:03 Y:00 P:A4 SP:FB CYC: 50 SL:62
DB32  C9 FF     CMP #$FF                        A:FF X:03 Y:00 P:A4 SP:FB CYC: 56 SL:62
DB34  F0 02     BEQ $DB38                       A:FF X:03 Y:00 P:27 SP:FB CYC: 62 SL:62
DB38  E8        INX                             A:FF X:03 Y:00 P:27 SP:FB CYC: 71 SL:62
DB39  18        CLC                             A:FF X:04 Y:00 P:25 SP:FB CYC: 77 SL:62
DB3A  A9 00     LDA #$00                        A:FF X:04 Y:00 P:24 SP:FB CYC: 83 SL:62
DB3C  8D 00 04  STA $0400 = 41                  A:00 X:04 Y:00 P:26 SP:FB CYC: 89 SL:62
DB3F  A9 80     LDA #$80                        A:00 X:04 Y:00 P:26 SP:FB CYC:101 SL:62
DB41  F1 33     SBC ($33),Y = 0400 @ 0400 = 00  A:80 X:04 Y:00 P:A4 SP:FB CYC:107 SL:62
DB43  90 04     BCC $DB49                       A:7F X:04 Y:00 P:65 SP:FB CYC:122 SL:62
DB45  C9 7F     CMP #$7F                        A:7F X:04 Y:00 P:65 SP:FB CYC:128 SL:62
DB47  F0 02     BEQ $DB4B                       A:7F X:04 Y:00 P:67 SP:FB CYC:134 SL:62
DB4B  E8        INX                             A:7F X:04 Y:00 P:67 SP:FB CYC:143 SL:62
DB4C  38        SEC                             A:7F X:05 Y:00 P:65 SP:FB CYC:149 SL:62
DB4D  A9 7F     LDA #$7F                        A:7F X:05 Y:00 P:65 SP:FB CYC:155 SL:62
DB4F  8D 00 04  STA $0400 = 00                  A:7F X:05 Y:00 P:65 SP:FB CYC:161 SL:62
DB52  A9 81     LDA #$81                        A:7F X:05 Y:00 P:65 SP:FB CYC:173 SL:62
DB54  F1 33     SBC ($33),Y = 0400 @ 0400 = 7F  A:81 X:05 Y:00 P:E5 SP:FB CYC:179 SL:62
DB56  50 06     BVC $DB5E                       A:02 X:05 Y:00 P:65 SP:FB CYC:194 SL:62
DB58  90 04     BCC $DB5E                       A:02 X:05 Y:00 P:65 SP:FB CYC:200 SL:62
DB5A  C9 02     CMP #$02                        A:02 X:05 Y:00 P:65 SP:FB CYC:206 SL:62
DB5C  F0 02     BEQ $DB60                       A:02 X:05 Y:00 P:67 SP:FB CYC:212 SL:62
DB60  E8        INX                             A:02 X:05 Y:00 P:67 SP:FB CYC:221 SL:62
DB61  A9 00     LDA #$00                        A:02 X:06 Y:00 P:65 SP:FB CYC:227 SL:62
DB63  A9 87     LDA #$87                        A:00 X:06 Y:00 P:67 SP:FB CYC:233 SL:62
DB65  91 33     STA ($33),Y = 0400 @ 0400 = 7F  A:87 X:06 Y:00 P:E5 SP:FB CYC:239 SL:62
DB67  AD 00 04  LDA $0400 = 87                  A:87 X:06 Y:00 P:E5 SP:FB CYC:257 SL:62
DB6A  C9 87     CMP #$87                        A:87 X:06 Y:00 P:E5 SP:FB CYC:269 SL:62
DB6C  F0 02     BEQ $DB70                       A:87 X:06 Y:00 P:67 SP:FB CYC:275 SL:62
DB70  E8        INX                             A:87 X:06 Y:00 P:67 SP:FB CYC:284 SL:62
DB71  A9 7E     LDA #$7E                        A:87 X:07 Y:00 P:65 SP:FB CYC:290 SL:62
DB73  8D 00 02  STA $0200 = 7F                  A:7E X:07 Y:00 P:65 SP:FB CYC:296 SL:62
DB76  A9 DB     LDA #$DB                        A:7E X:07 Y:00 P:65 SP:FB CYC:308 SL:62
DB78  8D 01 02  STA $0201 = 00                  A:DB X:07 Y:00 P:E5 SP:FB CYC:314 SL:62
DB7B  6C 00 02  JMP ($0200) = DB7E              A:DB X:07 Y:00 P:E5 SP:FB CYC:326 SL:62
DB7E  A9 00     LDA #$00                        A:DB X:07 Y:00 P:E5 SP:FB CYC:  0 SL:63
DB80  8D FF 02  STA $02FF = 00                  A:00 X:07 Y:00 P:67 SP:FB CYC:  6 SL:63
DB83  A9 01     LDA #$01                        A:00 X:07 Y:00 P:67 SP:FB CYC: 18 SL:63
DB85  8D 00 03  STA $0300 = 89                  A:01 X:07 Y:00 P:65 SP:FB CYC: 24 SL:63
DB88  A9 03     LDA #$03                        A:01 X:07 Y:00 P:65 SP:FB CYC: 36 SL:63
DB8A  8D 00 02  STA $0200 = 7E                  A:03 X:07 Y:00 P:65 SP:FB CYC: 42 SL:63
DB8D  A9 A9     LDA #$A9                        A:03 X:07 Y:00 P:65 SP:FB CYC: 54 SL:63
DB8F  8D 00 01  STA $0100 = 00                  A:A9 X:07 Y:00 P:E5 SP:FB CYC: 60 SL:63
DB92  A9 55     LDA #$55                        A:A9 X:07 Y:00 P:E5 SP:FB CYC: 72 SL:63
DB94  8D 01 01  STA $0101 = 00                  A:55 X:07 Y:00 P:65 SP:FB CYC: 78 SL:63
DB97  A9 60     LDA #$60                        A:55 X:07 Y:00 P:65 SP:FB CYC: 90 SL:63
DB99  8D 02 01  STA $0102 = 00                  A:60 X:07 Y:00 P:65 SP:FB CYC: 96 SL:63
DB9C  A9 A9     LDA #$A9                        A:60 X:07 Y:00 P:65 SP:FB CYC:108 SL:63
DB9E  8D 00 03  STA $0300 = 01                  A:A9 X:07 Y:00 P:E5 SP:FB CYC:114 SL:63
DBA1  A9 AA     LDA #$AA                        A:A9 X:07 Y:00 P:E5 SP:FB CYC:126 SL:63
DBA3  8D 01 03  STA $0301 = 00                  A:AA X:07 Y:00 P:E5 SP:FB CYC:132 SL:63
DBA6  A9 60     LDA #$60                        A:AA X:07 Y:00 P:E5 SP:FB CYC:144 SL:63
DBA8  8D 02 03  STA $0302 = 00                  A:60 X:07 Y:00 P:65 SP:FB CYC:150 SL:63
DBAB  20 B5 DB  JSR $DBB5                       A:60 X:07 Y:00 P:65 SP:FB CYC:162 SL:63
DBB5  6C FF 02  JMP ($02FF) = A900              A:60 X:07 Y:00 P:65 SP:F9 CYC:180 SL:63
0300  A9 AA     LDA #$AA                        A:60 X:07 Y:00 P:65 SP:F9 CYC:195 SL:63
0302  60        RTS                             A:AA X:07 Y:00 P:E5 SP:F9 CYC:201 SL:63
DBAE  C9 AA     CMP #$AA                        A:AA X:07 Y:00 P:E5 SP:FB CYC:219 SL:63
DBB0  F0 02     BEQ $DBB4                       A:AA X:07 Y:00 P:67 SP:FB CYC:225 SL:63
DBB4  60        RTS                             A:AA X:07 Y:00 P:67 SP:FB CYC:234 SL:63
C626  20 4A DF  JSR $DF4A                       A:AA X:07 Y:00 P:67 SP:FD CYC:252 SL:63
DF4A  A9 89     LDA #$89                        A:AA X:07 Y:00 P:67 SP:FB CYC:270 SL:63
DF4C  8D 00 03  STA $0300 = A9                  A:89 X:07 Y:00 P:E5 SP:FB CYC:276 SL:63
DF4F  A9 A3     LDA #$A3                        A:89 X:07 Y:00 P:E5 SP:FB CYC:288 SL:63
DF51  85 33     STA $33 = 00                    A:A3 X:07 Y:00 P:E5 SP:FB CYC:294 SL:63
DF53  A9 12     LDA #$12                        A:A3 X:07 Y:00 P:E5 SP:FB CYC:303 SL:63
DF55  8D 45 02  STA $0245 = 12                  A:12 X:07 Y:00 P:65 SP:FB CYC:309 SL:63
DF58  A2 65     LDX #$65                        A:12 X:07 Y:00 P:65 SP:FB CYC:321 SL:63
DF5A  A0 00     LDY #$00                        A:12 X:65 Y:00 P:65 SP:FB CYC:327 SL:63
DF5C  38        SEC                             A:12 X:65 Y:00 P:67 SP:FB CYC:333 SL:63
DF5D  A9 00     LDA #$00                        A:12 X:65 Y:00 P:67 SP:FB CYC:339 SL:63
DF5F  B8        CLV                             A:00 X:65 Y:00 P:67 SP:FB CYC:  4 SL:64
DF60  B9 00 03  LDA $0300,Y @ 0300 = 89         A:00 X:65 Y:00 P:27 SP:FB CYC: 10 SL:64
DF63  F0 0C     BEQ $DF71                       A:89 X:65 Y:00 P:A5 SP:FB CYC: 22 SL:64
DF65  90 0A     BCC $DF71                       A:89 X:65 Y:00 P:A5 SP:FB CYC: 28 SL:64
DF67  70 08     BVS $DF71                       A:89 X:65 Y:00 P:A5 SP:FB CYC: 34 SL:64
DF69  C9 89     CMP #$89                        A:89 X:65 Y:00 P:A5 SP:FB CYC: 40 SL:64
DF6B  D0 04     BNE $DF71                       A:89 X:65 Y:00 P:27 SP:FB CYC: 46 SL:64
DF6D  E0 65     CPX #$65                        A:89 X:65 Y:00 P:27 SP:FB CYC: 52 SL:64
DF6F  F0 04     BEQ $DF75                       A:89 X:65 Y:00 P:27 SP:FB CYC: 58 SL:64
DF75  A9 FF     LDA #$FF                        A:89 X:65 Y:00 P:27 SP:FB CYC: 67 SL:64
DF77  85 01     STA $01 = FF                    A:FF X:65 Y:00 P:A5 SP:FB CYC: 73 SL:64
DF79  24 01     BIT $01 = FF                    A:FF X:65 Y:00 P:A5 SP:FB CYC: 82 SL:64
DF7B  A0 34     LDY #$34                        A:FF X:65 Y:00 P:E5 SP:FB CYC: 91 SL:64
DF7D  B9 FF FF  LDA $FFFF,Y @ 0033 = A3         A:FF X:65 Y:34 P:65 SP:FB CYC: 97 SL:64
DF80  C9 A3     CMP #$A3                        A:A3 X:65 Y:34 P:E5 SP:FB CYC:112 SL:64
DF82  D0 02     BNE $DF86                       A:A3 X:65 Y:34 P:67 SP:FB CYC:118 SL:64
DF84  B0 04     BCS $DF8A                       A:A3 X:65 Y:34 P:67 SP:FB CYC:124 SL:64
DF8A  A9 46     LDA #$46                        A:A3 X:65 Y:34 P:67 SP:FB CYC:133 SL:64
DF8C  85 FF     STA $FF = 46                    A:46 X:65 Y:34 P:65 SP:FB CYC:139 SL:64
DF8E  A0 FF     LDY #$FF                        A:46 X:65 Y:34 P:65 SP:FB CYC:148 SL:64
DF90  B9 46 01  LDA $0146,Y @ 0245 = 12         A:46 X:65 Y:FF P:E5 SP:FB CYC:154 SL:64
DF93  C9 12     CMP #$12                        A:12 X:65 Y:FF P:65 SP:FB CYC:169 SL:64
DF95  F0 04     BEQ $DF9B                       A:12 X:65 Y:FF P:67 SP:FB CYC:175 SL:64
DF9B  A2 39     LDX #$39                        A:12 X:65 Y:FF P:67 SP:FB CYC:184 SL:64
DF9D  18        CLC                             A:12 X:39 Y:FF P:65 SP:FB CYC:190 SL:64
DF9E  A9 FF     LDA #$FF                        A:12 X:39 Y:FF P:64 SP:FB CYC:196 SL:64
DFA0  85 01     STA $01 = FF                    A:FF X:39 Y:FF P:E4 SP:FB CYC:202 SL:64
DFA2  24 01     BIT $01 = FF                    A:FF X:39 Y:FF P:E4 SP:FB CYC:211 SL:64
DFA4  A9 AA     LDA #$AA                        A:FF X:39 Y:FF P:E4 SP:FB CYC:220 SL:64
DFA6  8D 00 04  STA $0400 = 87                  A:AA X:39 Y:FF P:E4 SP:FB CYC:226 SL:64
DFA9  A9 55     LDA #$55                        A:AA X:39 Y:FF P:E4 SP:FB CYC:238 SL:64
DFAB  A0 00     LDY #$00                        A:55 X:39 Y:FF P:64 SP:FB CYC:244 SL:64
DFAD  19 00 04  ORA $0400,Y @ 0400 = AA         A:55 X:39 Y:00 P:66 SP:FB CYC:250 SL:64
DFB0  B0 08     BCS $DFBA                       A:FF X:39 Y:00 P:E4 SP:FB CYC:262 SL:64
DFB2  10 06     BPL $DFBA                       A:FF X:39 Y:00 P:E4 SP:FB CYC:268 SL:64
DFB4  C9 FF     CMP #$FF                        A:FF X:39 Y:00 P:E4 SP:FB CYC:274 SL:64
DFB6  D0 02     BNE $DFBA                       A:FF X:39 Y:00 P:67 SP:FB CYC:280 SL:64
DFB8  70 02     BVS $DFBC                       A:FF X:39 Y:00 P:67 SP:FB CYC:286 SL:64
DFBC  E8        INX                             A:FF X:39 Y:00 P:67 SP:FB CYC:295 SL:64
DFBD  38        SEC                             A:FF X:3A Y:00 P:65 SP:FB CYC:301 SL:64
DFBE  B8        CLV                             A:FF X:3A Y:00 P:65 SP:FB CYC:307 SL:64
DFBF  A9 00     LDA #$00                        A:FF X:3A Y:00 P:25 SP:FB CYC:313 SL:64
DFC1  19 00 04  ORA $0400,Y @ 0400 = AA         A:00 X:3A Y:00 P:27 SP:FB CYC:319 SL:64
DFC4  F0 06     BEQ $DFCC                       A:AA X:3A Y:00 P:A5 SP:FB CYC:331 SL:64
DFC6  70 04     BVS $DFCC                       A:AA X:3A Y:00 P:A5 SP:FB CYC:337 SL:64
DFC8  90 02     BCC $DFCC                       A:AA X:3A Y:00 P:A5 SP:FB CYC:  2 SL:65
DFCA  30 02     BMI $DFCE                       A:AA X:3A Y:00 P:A5 SP:FB CYC:  8 SL:65
DFCE  E8        INX                             A:AA X:3A Y:00 P:A5 SP:FB CYC: 17 SL:65
DFCF  18        CLC                             A:AA X:3B Y:00 P:25 SP:FB CYC: 23 SL:65
DFD0  24 01     BIT $01 = FF                    A:AA X:3B Y:00 P:24 SP:FB CYC: 29 SL:65
DFD2  A9 55     LDA #$55                        A:AA X:3B Y:00 P:E4 SP:FB CYC: 38 SL:65
DFD4  39 00 04  AND $0400,Y @ 0400 = AA         A:55 X:3B Y:00 P:64 SP:FB CYC: 44 SL:65
DFD7  D0 06     BNE $DFDF                       A:00 X:3B Y:00 P:66 SP:FB CYC: 56 SL:65
DFD9  50 04     BVC $DFDF                       A:00 X:3B Y:00 P:66 SP:FB CYC: 62 SL:65
DFDB  B0 02     BCS $DFDF                       A:00 X:3B Y:00 P:66 SP:FB CYC: 68 SL:65
DFDD  10 02     BPL $DFE1                       A:00 X:3B Y:00 P:66 SP:FB CYC: 74 SL:65
DFE1  E8        INX                             A:00 X:3B Y:00 P:66 SP:FB CYC: 83 SL:65
DFE2  38        SEC                             A:00 X:3C Y:00 P:64 SP:FB CYC: 89 SL:65
DFE3  B8        CLV                             A:00 X:3C Y:00 P:65 SP:FB CYC: 95 SL:65
DFE4  A9 EF     LDA #$EF                        A:00 X:3C Y:00 P:25 SP:FB CYC:101 SL:65
DFE6  8D 00 04  STA $0400 = AA                  A:EF X:3C Y:00 P:A5 SP:FB CYC:107 SL:65
DFE9  A9 F8     LDA #$F8                        A:EF X:3C Y:00 P:A5 SP:FB CYC:119 SL:65
DFEB  39 00 04  AND $0400,Y @ 0400 = EF         A:F8 X:3C Y:00 P:A5 SP:FB CYC:125 SL:65
DFEE  90 08     BCC $DFF8                       A:E8 X:3C Y:00 P:A5 SP:FB CYC:137 SL:65
DFF0  10 06     BPL $DFF8                       A:E8 X:3C Y:00 P:A5 SP:FB CYC:143 SL:65
DFF2  C9 E8     CMP #$E8                        A:E8 X:3C Y:00 P:A5 SP:FB CYC:149 SL:65
DFF4  D0 02     BNE $DFF8                       A:E8 X:3C Y:00 P:27 SP:FB CYC:155 SL:65
DFF6  50 02     BVC $DFFA                       A:E8 X:3C Y:00 P:27 SP:FB CYC:161 SL:65
DFFA  E8        INX                             A:E8 X:3C Y:00 P:27 SP:FB CYC:170 SL:65
DFFB  18        CLC                             A:E8 X:3D Y:00 P:25 SP:FB CYC:176 SL:65
DFFC  24 01     BIT $01 = FF                    A:E8 X:3D Y:00 P:24 SP:FB CYC:182 SL:65
DFFE  A9 AA     LDA #$AA                        A:E8 X:3D Y:00 P:E4 SP:FB CYC:191 SL:65
E000  8D 00 04  STA $0400 = EF                  A:AA X:3D Y:00 P:E4 SP:FB CYC:197 SL:65
E003  A9 5F     LDA #$5F                        A:AA X:3D Y:00 P:E4 SP:FB CYC:209 SL:65
E005  59 00 04  EOR $0400,Y @ 0400 = AA         A:5F X:3D Y:00 P:64 SP:FB CYC:215 SL:65
E008  B0 08     BCS $E012                       A:F5 X:3D Y:00 P:E4 SP:FB CYC:227 SL:65
E00A  10 06     BPL $E012                       A:F5 X:3D Y:00 P:E4 SP:FB CYC:233 SL:65
E00C  C9 F5     CMP #$F5                        A:F5 X:3D Y:00 P:E4 SP:FB CYC:239 SL:65
E00E  D0 02     BNE $E012                       A:F5 X:3D Y:00 P:67 SP:FB CYC:245 SL:65
E010  70 02     BVS $E014                       A:F5 X:3D Y:00 P:67 SP:FB CYC:251 SL:65
E014  E8        INX                             A:F5 X:3D Y:00 P:67 SP:FB CYC:260 SL:65
E015  38        SEC                             A:F5 X:3E Y:00 P:65 SP:FB CYC:266 SL:65
E016  B8        CLV                             A:F5 X:3E Y:00 P:65 SP:FB CYC:272 SL:65
E017  A9 70     LDA #$70                        A:F5 X:3E Y:00 P:25 SP:FB CYC:278 SL:65
E019  8D 00 04  STA $0400 = AA                  A:70 X:3E Y:00 P:25 SP:FB CYC:284 SL:65
E01C  59 00 04  EOR $0400,Y @ 0400 = 70         A:70 X:3E Y:00 P:25 SP:FB CYC:296 SL:65
E01F  D0 06     BNE $E027                       A:00 X:3E Y:00 P:27 SP:FB CYC:308 SL:65
E021  70 04     BVS $E027                       A:00 X:3E Y:00 P:27 SP:FB CYC:314 SL:65
E023  90 02     BCC $E027                       A:00 X:3E Y:00 P:27 SP:FB CYC:320 SL:65
E025  10 02     BPL $E029                       A:00 X:3E Y:00 P:27 SP:FB CYC:326 SL:65
E029  E8        INX                             A:00 X:3E Y:00 P:27 SP:FB CYC:335 SL:65
E02A  18        CLC                             A:00 X:3F Y:00 P:25 SP:FB CYC:  0 SL:66
E02B  24 01     BIT $01 = FF                    A:00 X:3F Y:00 P:24 SP:FB CYC:  6 SL:66
E02D  A9 69     LDA #$69                        A:00 X:3F Y:00 P:E6 SP:FB CYC: 15 SL:66
E02F  8D 00 04  STA $0400 = 70                  A:69 X:3F Y:00 P:64 SP:FB CYC: 21 SL:66
E032  A9 00     LDA #$00                        A:69 X:3F Y:00 P:64 SP:FB CYC: 33 SL:66
E034  79 00 04  ADC $0400,Y @ 0400 = 69         A:00 X:3F Y:00 P:66 SP:FB CYC: 39 SL:66
E037  30 08     BMI $E041                       A:69 X:3F Y:00 P:24 SP:FB CYC: 51 SL:66
E039  B0 06     BCS $E041                       A:69 X:3F Y:00 P:24 SP:FB CYC: 57 SL:66
E03B  C9 69     CMP #$69                        A:69 X:3F Y:00 P:24 SP:FB CYC: 63 SL:66
E03D  D0 02     BNE $E041                       A:69 X:3F Y:00 P:27 SP:FB CYC: 69 SL:66
E03F  50 02     BVC $E043                       A:69 X:3F Y:00 P:27 SP:FB CYC: 75 SL:66
E043  E8        INX                             A:69 X:3F Y:00 P:27 SP:FB CYC: 84 SL:66
E044  38        SEC                             A:69 X:40 Y:00 P:25 SP:FB CYC: 90 SL:66
E045  24 01     BIT $01 = FF                    A:69 X:40 Y:00 P:25 SP:FB CYC: 96 SL:66
E047  A9 00     LDA #$00                        A:69 X:40 Y:00 P:E5 SP:FB CYC:105 SL:66
E049  79 00 04  ADC $0400,Y @ 0400 = 69         A:00 X:40 Y:00 P:67 SP:FB CYC:111 SL:66
E04C  30 08     BMI $E056                       A:6A X:40 Y:00 P:24 SP:FB CYC:123 SL:66
E04E  B0 06     BCS $E056                       A:6A X:40 Y:00 P:24 SP:FB CYC:129 SL:66
E050  C9 6A     CMP #$6A                        A:6A X:40 Y:00 P:24 SP:FB CYC:135 SL:66
E052  D0 02     BNE $E056                       A:6A X:40 Y:00 P:27 SP:FB CYC:141 SL:66
E054  50 02     BVC $E058                       A:6A X:40 Y:00 P:27 SP:FB CYC:147 SL:66
E058  E8        INX                             A:6A X:40 Y:00 P:27 SP:FB CYC:156 SL:66
E059  38        SEC                             A:6A X:41 Y:00 P:25 SP:FB CYC:162 SL:66
E05A  B8        CLV                             A:6A X:41 Y:00 P:25 SP:FB CYC:168 SL:66
E05B  A9 7F     LDA #$7F                        A:6A X:41 Y:00 P:25 SP:FB CYC:174 SL:66
E05D  8D 00 04  STA $0400 = 69                  A:7F X:41 Y:00 P:25 SP:FB CYC:180 SL:66
E060  79 00 04  ADC $0400,Y @ 0400 = 7F         A:7F X:41 Y:00 P:25 SP:FB CYC:192 SL:66
E063  10 08     BPL $E06D                       A:FF X:41 Y:00 P:E4 SP:FB CYC:204 SL:66
E065  B0 06     BCS $E06D                       A:FF X:41 Y:00 P:E4 SP:FB CYC:210 SL:66
E067  C9 FF     CMP #$FF                        A:FF X:41 Y:00 P:E4 SP:FB CYC:216 SL:66
E069  D0 02     BNE $E06D                       A:FF X:41 Y:00 P:67 SP:FB CYC:222 SL:66
E06B  70 02     BVS $E06F                       A:FF X:41 Y:00 P:67 SP:FB CYC:228 SL:66
E06F  E8        INX                             A:FF X:41 Y:00 P:67 SP:FB CYC:237 SL:66
E070  18        CLC                             A:FF X:42 Y:00 P:65 SP:FB CYC:243 SL:66
E071  24 01     BIT $01 = FF                    A:FF X:42 Y:00 P:64 SP:FB CYC:249 SL:66
E073  A9 80     LDA #$80                        A:FF X:42 Y:00 P:E4 SP:FB CYC:258 SL:66
E075  8D 00 04  STA $0400 = 7F                  A:80 X:42 Y:00 P:E4 SP:FB CYC:264 SL:66
E078  A9 7F     LDA #$7F                        A:80 X:42 Y:00 P:E4 SP:FB CYC:276 SL:66
E07A  79 00 04  ADC $0400,Y @ 0400 = 80         A:7F X:42 Y:00 P:64 SP:FB CYC:282 SL:66
E07D  10 08     BPL $E087                       A:FF X:42 Y:00 P:A4 SP:FB CYC:294 SL:66
E07F  B0 06     BCS $E087                       A:FF X:42 Y:00 P:A4 SP:FB CYC:300 SL:66
E081  C9 FF     CMP #$FF                        A:FF X:42 Y:00 P:A4 SP:FB CYC:306 SL:66
E083  D0 02     BNE $E087                       A:FF X:42 Y:00 P:27 SP:FB CYC:312 SL:66
E085  50 02     BVC $E089                       A:FF X:42 Y:00 P:27 SP:FB CYC:318 SL:66
E089  E8        INX                             A:FF X:42 Y:00 P:27 SP:FB CYC:327 SL:66
E08A  38        SEC                             A:FF X:43 Y:00 P:25 SP:FB CYC:333 SL:66
E08B  B8        CLV                             A:FF X:43 Y:00 P:25 SP:FB CYC:339 SL:66
E08C  A9 80     LDA #$80                        A:FF X:43 Y:00 P:25 SP:FB CYC:  4 SL:67
E08E  8D 00 04  STA $0400 = 80                  A:80 X:43 Y:00 P:A5 SP:FB CYC: 10 SL:67
E091  A9 7F     LDA #$7F                        A:80 X:43 Y:00 P:A5 SP:FB CYC: 22 SL:67
E093  79 00 04  ADC $0400,Y @ 0400 = 80         A:7F X:43 Y:00 P:25 SP:FB CYC: 28 SL:67
E096  D0 06     BNE $E09E                       A:00 X:43 Y:00 P:27 SP:FB CYC: 40 SL:67
E098  30 04     BMI $E09E                       A:00 X:43 Y:00 P:27 SP:FB CYC: 46 SL:67
E09A  70 02     BVS $E09E                       A:00 X:43 Y:00 P:27 SP:FB CYC: 52 SL:67
E09C  B0 02     BCS $E0A0                       A:00 X:43 Y:00 P:27 SP:FB CYC: 58 SL:67
E0A0  E8        INX                             A:00 X:43 Y:00 P:27 SP:FB CYC: 67 SL:67
E0A1  24 01     BIT $01 = FF                    A:00 X:44 Y:00 P:25 SP:FB CYC: 73 SL:67
E0A3  A9 40     LDA #$40                        A:00 X:44 Y:00 P:E7 SP:FB CYC: 82 SL:67
E0A5  8D 00 04  STA $0400 = 80                  A:40 X:44 Y:00 P:65 SP:FB CYC: 88 SL:67
E0A8  D9 00 04  CMP $0400,Y @ 0400 = 40         A:40 X:44 Y:00 P:65 SP:FB CYC:100 SL:67
E0AB  30 06     BMI $E0B3                       A:40 X:44 Y:00 P:67 SP:FB CYC:112 SL:67
E0AD  90 04     BCC $E0B3                       A:40 X:44 Y:00 P:67 SP:FB CYC:118 SL:67
E0AF  D0 02     BNE $E0B3                       A:40 X:44 Y:00 P:67 SP:FB CYC:124 SL:67
E0B1  70 02     BVS $E0B5                       A:40 X:44 Y:00 P:67 SP:FB CYC:130 SL:67
E0B5  E8        INX                             A:40 X:44 Y:00 P:67 SP:FB CYC:139 SL:67
E0B6  B8        CLV                             A:40 X:45 Y:00 P:65 SP:FB CYC:145 SL:67
E0B7  CE 00 04  DEC $0400 = 40                  A:40 X:45 Y:00 P:25 SP:FB CYC:151 SL:67
E0BA  D9 00 04  CMP $0400,Y @ 0400 = 3F         A:40 X:45 Y:00 P:25 SP:FB CYC:169 SL:67
E0BD  F0 06     BEQ $E0C5                       A:40 X:45 Y:00 P:25 SP:FB CYC:181 SL:67
E0BF  30 04     BMI $E0C5                       A:40 X:45 Y:00 P:25 SP:FB CYC:187 SL:67
E0C1  90 02     BCC $E0C5                       A:40 X:45 Y:00 P:25 SP:FB CYC:193 SL:67
E0C3  50 02     BVC $E0C7                       A:40 X:45 Y:00 P:25 SP:FB CYC:199 SL:67
E0C7  E8        INX                             A:40 X:45 Y:00 P:25 SP:FB CYC:208 SL:67
E0C8  EE 00 04  INC $0400 = 3F                  A:40 X:46 Y:00 P:25 SP:FB CYC:214 SL:67
E0CB  EE 00 04  INC $0400 = 40                  A:40 X:46 Y:00 P:25 SP:FB CYC:232 SL:67
E0CE  D9 00 04  CMP $0400,Y @ 0400 = 41         A:40 X:46 Y:00 P:25 SP:FB CYC:250 SL:67
E0D1  F0 02     BEQ $E0D5                       A:40 X:46 Y:00 P:A4 SP:FB CYC:262 SL:67
E0D3  30 02     BMI $E0D7                       A:40 X:46 Y:00 P:A4 SP:FB CYC:268 SL:67
E0D7  E8        INX                             A:40 X:46 Y:00 P:A4 SP:FB CYC:277 SL:67
E0D8  A9 00     LDA #$00                        A:40 X:47 Y:00 P:24 SP:FB CYC:283 SL:67
E0DA  8D 00 04  STA $0400 = 41                  A:00 X:47 Y:00 P:26 SP:FB CYC:289 SL:67
E0DD  A9 80     LDA #$80                        A:00 X:47 Y:00 P:26 SP:FB CYC:301 SL:67
E0DF  D9 00 04  CMP $0400,Y @ 0400 = 00         A:80 X:47 Y:00 P:A4 SP:FB CYC:307 SL:67
E0E2  F0 04     BEQ $E0E8                       A:80 X:47 Y:00 P:A5 SP:FB CYC:319 SL:67
E0E4  10 02     BPL $E0E8                       A:80 X:47 Y:00 P:A5 SP:FB CYC:325 SL:67
E0E6  B0 02     BCS $E0EA                       A:80 X:47 Y:00 P:A5 SP:FB CYC:331 SL:67
E0EA  E8        INX                             A:80 X:47 Y:00 P:A5 SP:FB CYC:340 SL:67
E0EB  A0 80     LDY #$80                        A:80 X:48 Y:00 P:25 SP:FB CYC:  5 SL:68
E0ED  8C 00 04  STY $0400 = 00                  A:80 X:48 Y:80 P:A5 SP:FB CYC: 11 SL:68
E0F0  A0 00     LDY #$00                        A:80 X:48 Y:80 P:A5 SP:FB CYC: 23 SL:68
E0F2  D9 00 04  CMP $0400,Y @ 0400 = 80         A:80 X:48 Y:00 P:27 SP:FB CYC: 29 SL:68
E0F5  D0 04     BNE $E0FB                       A:80 X:48 Y:00 P:27 SP:FB CYC: 41 SL:68
E0F7  30 02     BMI $E0FB                       A:80 X:48 Y:00 P:27 SP:FB CYC: 47 SL:68
E0F9  B0 02     BCS $E0FD                       A:80 X:48 Y:00 P:27 SP:FB CYC: 53 SL:68
E0FD  E8        INX                             A:80 X:48 Y:00 P:27 SP:FB CYC: 62 SL:68
E0FE  EE 00 04  INC $0400 = 80                  A:80 X:49 Y:00 P:25 SP:FB CYC: 68 SL:68
E101  D9 00 04  CMP $0400,Y @ 0400 = 81         A:80 X:49 Y:00 P:A5 SP:FB CYC: 86 SL:68
E104  B0 04     BCS $E10A                       A:80 X:49 Y:00 P:A4 SP:FB CYC: 98 SL:68
E106  F0 02     BEQ $E10A                       A:80 X:49 Y:00 P:A4 SP:FB CYC:104 SL:68
E108  30 02     BMI $E10C                       A:80 X:49 Y:00 P:A4 SP:FB CYC:110 SL:68
E10C  E8        INX                             A:80 X:49 Y:00 P:A4 SP:FB CYC:119 SL:68
E10D  CE 00 04  DEC $0400 = 81                  A:80 X:4A Y:00 P:24 SP:FB CYC:125 SL:68
E110  CE 00 04  DEC $0400 = 80                  A:80 X:4A Y:00 P:A4 SP:FB CYC:143 SL:68
E113  D9 00 04  CMP $0400,Y @ 0400 = 7F         A:80 X:4A Y:00 P:24 SP:FB CYC:161 SL:68
E116  90 04     BCC $E11C                       A:80 X:4A Y:00 P:25 SP:FB CYC:173 SL:68
E118  F0 02     BEQ $E11C                       A:80 X:4A Y:00 P:25 SP:FB CYC:179 SL:68
E11A  10 02     BPL $E11E                       A:80 X:4A Y:00 P:25 SP:FB CYC:185 SL:68
E11E  E8        INX                             A:80 X:4A Y:00 P:25 SP:FB CYC:194 SL:68
E11F  24 01     BIT $01 = FF                    A:80 X:4B Y:00 P:25 SP:FB CYC:200 SL:68
E121  A9 40     LDA #$40                        A:80 X:4B Y:00 P:E5 SP:FB CYC:209 SL:68
E123  8D 00 04  STA $0400 = 7F                  A:40 X:4B Y:00 P:65 SP:FB CYC:215 SL:68
E126  38        SEC                             A:40 X:4B Y:00 P:65 SP:FB CYC:227 SL:68
E127  F9 00 04  SBC $0400,Y @ 0400 = 40         A:40 X:4B Y:00 P:65 SP:FB CYC:233 SL:68
E12A  30 0A     BMI $E136                       A:00 X:4B Y:00 P:27 SP:FB CYC:245 SL:68
E12C  90 08     BCC $E136                       A:00 X:4B Y:00 P:27 SP:FB CYC:251 SL:68
E12E  D0 06     BNE $E136                       A:00 X:4B Y:00 P:27 SP:FB CYC:257 SL:68
E130  70 04     BVS $E136                       A:00 X:4B Y:00 P:27 SP:FB CYC:263 SL:68
E132  C9 00     CMP #$00                        A:00 X:4B Y:00 P:27 SP:FB CYC:269 SL:68
E134  F0 02     BEQ $E138                       A:00 X:4B Y:00 P:27 SP:FB CYC:275 SL:68
E138  E8        INX                             A:00 X:4B Y:00 P:27 SP:FB CYC:284 SL:68
E139  B8        CLV                             A:00 X:4C Y:00 P:25 SP:FB CYC:290 SL:68
E13A  38        SEC                             A:00 X:4C Y:00 P:25 SP:FB CYC:296 SL:68
E13B  A9 40     LDA #$40                        A:00 X:4C Y:00 P:25 SP:FB CYC:302 SL:68
E13D  CE 00 04  DEC $0400 = 40                  A:40 X:4C Y:00 P:25 SP:FB CYC:308 SL:68
E140  F9 00 04  SBC $0400,Y @ 0400 = 3F         A:40 X:4C Y:00 P:25 SP:FB CYC:326 SL:68
E143  F0 0A     BEQ $E14F                       A:01 X:4C Y:00 P:25 SP:FB CYC:338 SL:68
E145  30 08     BMI $E14F                       A:01 X:4C Y:00 P:25 SP:FB CYC:  3 SL:69
E147  90 06     BCC $E14F                       A:01 X:4C Y:00 P:25 SP:FB CYC:  9 SL:69
E149  70 04     BVS $E14F                       A:01 X:4C Y:00 P:25 SP:FB CYC: 15 SL:69
E14B  C9 01     CMP #$01                        A:01 X:4C Y:00 P:25 SP:FB CYC: 21 SL:69
E14D  F0 02     BEQ $E151                       A:01 X:4C Y:00 P:27 SP:FB CYC: 27 SL:69
E151  E8        INX                             A:01 X:4C Y:00 P:27 SP:FB CYC: 36 SL:69
E152  A9 40     LDA #$40                        A:01 X:4D Y:00 P:25 SP:FB CYC: 42 SL:69
E154  38        SEC                             A:40 X:4D Y:00 P:25 SP:FB CYC: 48 SL:69
E155  24 01     BIT $01 = FF                    A:40 X:4D Y:00 P:25 SP:FB CYC: 54 SL:69
E157  EE 00 04  INC $0400 = 3F                  A:40 X:4D Y:00 P:E5 SP:FB CYC: 63 SL:69
E15A  EE 00 04  INC $0400 = 40                  A:40 X:4D Y:00 P:65 SP:FB CYC: 81 SL:69
E15D  F9 00 04  SBC $0400,Y @ 0400 = 41         A:40 X:4D Y:00 P:65 SP:FB CYC: 99 SL:69
E160  B0 0A     BCS $E16C                       A:FF X:4D Y:00 P:A4 SP:FB CYC:111 SL:69
E162  F0 08     BEQ $E16C                       A:FF X:4D Y:00 P:A4 SP:FB CYC:117 SL:69
E164  10 06     BPL $E16C                       A:FF X:4D Y:00 P:A4 SP:FB CYC:123 SL:69
E166  70 04     BVS $E16C                       A:FF X:4D Y:00 P:A4 SP:FB CYC:129 SL:69
E168  C9 FF     CMP #$FF                        A:FF X:4D Y:00 P:A4 SP:FB CYC:135 SL:69
E16A  F0 02     BEQ $E16E                       A:FF X:4D Y:00 P:27 SP:FB CYC:141 SL:69
E16E  E8        INX                             A:FF X:4D Y:00 P:27 SP:FB CYC:150 SL:69
E16F  18        CLC                             A:FF X:4E Y:00 P:25 SP:FB CYC:156 SL:69
E170  A9 00     LDA #$00                        A:FF X:4E Y:00 P:24 SP:FB CYC:162 SL:69
E172  8D 00 04  STA $0400 = 41                  A:00 X:4E Y:00 P:26 SP:FB CYC:168 SL:69
E175  A9 80     LDA #$80                        A:00 X:4E Y:00 P:26 SP:FB CYC:180 SL:69
E177  F9 00 04  SBC $0400,Y @ 0400 = 00         A:80 X:4E Y:00 P:A4 SP:FB CYC:186 SL:69
E17A  90 04     BCC $E180                       A:7F X:4E Y:00 P:65 SP:FB CYC:198 SL:69
E17C  C9 7F     CMP #$7F                        A:7F X:4E Y:00 P:65 SP:FB CYC:204 SL:69
E17E  F0 02     BEQ $E182                       A:7F X:4E Y:00 P:67 SP:FB CYC:210 SL:69
E182  E8        INX                             A:7F X:4E Y:00 P:67 SP:FB CYC:219 SL:69
E183  38        SEC                             A:7F X:4F Y:00 P:65 SP:FB CYC:225 SL:69
E184  A9 7F     LDA #$7F                        A:7F X:4F Y:00 P:65 SP:FB CYC:231 SL:69
E186  8D 00 04  STA $0400 = 00                  A:7F X:4F Y:00 P:65 SP:FB CYC:237 SL:69
E189  A9 81     LDA #$81                        A:7F X:4F Y:00 P:65 SP:FB CYC:249 SL:69
E18B  F9 00 04  SBC $0400,Y @ 0400 = 7F         A:81 X:4F Y:00 P:E5 SP:FB CYC:255 SL:69
E18E  50 06     BVC $E196                       A:02 X:4F Y:00 P:65 SP:FB CYC:267 SL:69
E190  90 04     BCC $E196                       A:02 X:4F Y:00 P:65 SP:FB CYC:273 SL:69
E192  C9 02     CMP #$02                        A:02 X:4F Y:00 P:65 SP:FB CYC:279 SL:69
E194  F0 02     BEQ $E198                       A:02 X:4F Y:00 P:67 SP:FB CYC:285 SL:69
E198  E8        INX                             A:02 X:4F Y:00 P:67 SP:FB CYC:294 SL:69
E199  A9 00     LDA #$00                        A:02 X:50 Y:00 P:65 SP:FB CYC:300 SL:69
E19B  A9 87     LDA #$87                        A:00 X:50 Y:00 P:67 SP:FB CYC:306 SL:69
E19D  99 00 04  STA $0400,Y @ 0400 = 7F         A:87 X:50 Y:00 P:E5 SP:FB CYC:312 SL:69
E1A0  AD 00 04  LDA $0400 = 87                  A:87 X:50 Y:00 P:E5 SP:FB CYC:327 SL:69
E1A3  C9 87     CMP #$87                        A:87 X:50 Y:00 P:E5 SP:FB CYC:339 SL:69
E1A5  F0 02     BEQ $E1A9                       A:87 X:50 Y:00 P:67 SP:FB CYC:  4 SL:70
E1A9  60        RTS                             A:87 X:50 Y:00 P:67 SP:FB CYC: 13 SL:70
C629  20 B8 DB  JSR $DBB8                       A:87 X:50 Y:00 P:67 SP:FD CYC: 31 SL:70
DBB8  A9 FF     LDA #$FF                        A:87 X:50 Y:00 P:67 SP:FB CYC: 49 SL:70
DBBA  85 01     STA $01 = FF                    A:FF X:50 Y:00 P:E5 SP:FB CYC: 55 SL:70
DBBC  A9 AA     LDA #$AA                        A:FF X:50 Y:00 P:E5 SP:FB CYC: 64 SL:70
DBBE  85 33     STA $33 = A3                    A:AA X:50 Y:00 P:E5 SP:FB CYC: 70 SL:70
DBC0  A9 BB     LDA #$BB                        A:AA X:50 Y:00 P:E5 SP:FB CYC: 79 SL:70
DBC2  85 89     STA $89 = 00                    A:BB X:50 Y:00 P:E5 SP:FB CYC: 85 SL:70
DBC4  A2 00     LDX #$00                        A:BB X:50 Y:00 P:E5 SP:FB CYC: 94 SL:70
DBC6  A9 66     LDA #$66                        A:BB X:00 Y:00 P:67 SP:FB CYC:100 SL:70
DBC8  24 01     BIT $01 = FF                    A:66 X:00 Y:00 P:65 SP:FB CYC:106 SL:70
DBCA  38        SEC                             A:66 X:00 Y:00 P:E5 SP:FB CYC:115 SL:70
DBCB  A0 00     LDY #$00                        A:66 X:00 Y:00 P:E5 SP:FB CYC:121 SL:70
DBCD  B4 33     LDY $33,X @ 33 = AA             A:66 X:00 Y:00 P:67 SP:FB CYC:127 SL:70
DBCF  10 12     BPL $DBE3                       A:66 X:00 Y:AA P:E5 SP:FB CYC:139 SL:70
DBD1  F0 10     BEQ $DBE3                       A:66 X:00 Y:AA P:E5 SP:FB CYC:145 SL:70
DBD3  50 0E     BVC $DBE3                       A:66 X:00 Y:AA P:E5 SP:FB CYC:151 SL:70
DBD5  90 0C     BCC $DBE3                       A:66 X:00 Y:AA P:E5 SP:FB CYC:157 SL:70
DBD7  C9 66     CMP #$66                        A:66 X:00 Y:AA P:E5 SP:FB CYC:163 SL:70
DBD9  D0 08     BNE $DBE3                       A:66 X:00 Y:AA P:67 SP:FB CYC:169 SL:70
DBDB  E0 00     CPX #$00                        A:66 X:00 Y:AA P:67 SP:FB CYC:175 SL:70
DBDD  D0 04     BNE $DBE3                       A:66 X:00 Y:AA P:67 SP:FB CYC:181 SL:70
DBDF  C0 AA     CPY #$AA                        A:66 X:00 Y:AA P:67 SP:FB CYC:187 SL:70
DBE1  F0 04     BEQ $DBE7                       A:66 X:00 Y:AA P:67 SP:FB CYC:193 SL:70
DBE7  A2 8A     LDX #$8A                        A:66 X:00 Y:AA P:67 SP:FB CYC:202 SL:70
DBE9  A9 66     LDA #$66                        A:66 X:8A Y:AA P:E5 SP:FB CYC:208 SL:70
DBEB  B8        CLV                             A:66 X:8A Y:AA P:65 SP:FB CYC:214 SL:70
DBEC  18        CLC                             A:66 X:8A Y:AA P:25 SP:FB CYC:220 SL:70
DBED  A0 00     LDY #$00                        A:66 X:8A Y:AA P:24 SP:FB CYC:226 SL:70
DBEF  B4 FF     LDY $FF,X @ 89 = BB             A:66 X:8A Y:00 P:26 SP:FB CYC:232 SL:70
DBF1  10 12     BPL $DC05                       A:66 X:8A Y:BB P:A4 SP:FB CYC:244 SL:70
DBF3  F0 10     BEQ $DC05                       A:66 X:8A Y:BB P:A4 SP:FB CYC:250 SL:70
DBF5  70 0E     BVS $DC05                       A:66 X:8A Y:BB P:A4 SP:FB CYC:256 SL:70
DBF7  B0 0C     BCS $DC05                       A:66 X:8A Y:BB P:A4 SP:FB CYC:262 SL:70
DBF9  C0 BB     CPY #$BB                        A:66 X:8A Y:BB P:A4 SP:FB CYC:268 SL:70
DBFB  D0 08     BNE $DC05                       A:66 X:8A Y:BB P:27 SP:FB CYC:274 SL:70
DBFD  C9 66     CMP #$66                        A:66 X:8A Y:BB P:27 SP:FB CYC:280 SL:70
DBFF  D0 04     BNE $DC05                       A:66 X:8A Y:BB P:27 SP:FB CYC:286 SL:70
DC01  E0 8A     CPX #$8A                        A:66 X:8A Y:BB P:27 SP:FB CYC:292 SL:70
DC03  F0 04     BEQ $DC09                       A:66 X:8A Y:BB P:27 SP:FB CYC:298 SL:70
DC09  24 01     BIT $01 = FF                    A:66 X:8A Y:BB P:27 SP:FB CYC:307 SL:70
DC0B  38        SEC                             A:66 X:8A Y:BB P:E5 SP:FB CYC:316 SL:70
DC0C  A0 44     LDY #$44                        A:66 X:8A Y:BB P:E5 SP:FB CYC:322 SL:70
DC0E  A2 00     LDX #$00                        A:66 X:8A Y:44 P:65 SP:FB CYC:328 SL:70
DC10  94 33     STY $33,X @ 33 = AA             A:66 X:00 Y:44 P:67 SP:FB CYC:334 SL:70
DC12  A5 33     LDA $33 = 44                    A:66 X:00 Y:44 P:67 SP:FB CYC:  5 SL:71
DC14  90 18     BCC $DC2E                       A:44 X:00 Y:44 P:65 SP:FB CYC: 14 SL:71
DC16  C9 44     CMP #$44                        A:44 X:00 Y:44 P:65 SP:FB CYC: 20 SL:71
DC18  D0 14     BNE $DC2E                       A:44 X:00 Y:44 P:67 SP:FB CYC: 26 SL:71
DC1A  50 12     BVC $DC2E                       A:44 X:00 Y:44 P:67 SP:FB CYC: 32 SL:71
DC1C  18        CLC                             A:44 X:00 Y:44 P:67 SP:FB CYC: 38 SL:71
DC1D  B8        CLV                             A:44 X:00 Y:44 P:66 SP:FB CYC: 44 SL:71
DC1E  A0 99     LDY #$99                        A:44 X:00 Y:44 P:26 SP:FB CYC: 50 SL:71
DC20  A2 80     LDX #$80                        A:44 X:00 Y:99 P:A4 SP:FB CYC: 56 SL:71
DC22  94 85     STY $85,X @ 05 = 00             A:44 X:80 Y:99 P:A4 SP:FB CYC: 62 SL:71
DC24  A5 05     LDA $05 = 99                    A:44 X:80 Y:99 P:A4 SP:FB CYC: 74 SL:71
DC26  B0 06     BCS $DC2E                       A:99 X:80 Y:99 P:A4 SP:FB CYC: 83 SL:71
DC28  C9 99     CMP #$99                        A:99 X:80 Y:99 P:A4 SP:FB CYC: 89 SL:71
DC2A  D0 02     BNE $DC2E                       A:99 X:80 Y:99 P:27 SP:FB CYC: 95 SL:71
DC2C  50 04     BVC $DC32                       A:99 X:80 Y:99 P:27 SP:FB CYC:101 SL:71
DC32  A0 0B     LDY #$0B                        A:99 X:80 Y:99 P:27 SP:FB CYC:110 SL:71
DC34  A9 AA     LDA #$AA                        A:99 X:80 Y:0B P:25 SP:FB CYC:116 SL:71
DC36  A2 78     LDX #$78                        A:AA X:80 Y:0B P:A5 SP:FB CYC:122 SL:71
DC38  85 78     STA $78 = 00                    A:AA X:78 Y:0B P:25 SP:FB CYC:128 SL:71
DC3A  20 B6 F7  JSR $F7B6                       A:AA X:78 Y:0B P:25 SP:FB CYC:137 SL:71
F7B6  18        CLC                             A:AA X:78 Y:0B P:25 SP:F9 CYC:155 SL:71
F7B7  A9 FF     LDA #$FF                        A:AA X:78 Y:0B P:24 SP:F9 CYC:161 SL:71
F7B9  85 01     STA $01 = FF                    A:FF X:78 Y:0B P:A4 SP:F9 CYC:167 SL:71
F7BB  24 01     BIT $01 = FF                    A:FF X:78 Y:0B P:A4 SP:F9 CYC:176 SL:71
F7BD  A9 55     LDA #$55                        A:FF X:78 Y:0B P:E4 SP:F9 CYC:185 SL:71
F7BF  60        RTS                             A:55 X:78 Y:0B P:64 SP:F9 CYC:191 SL:71
DC3D  15 00     ORA $00,X @ 78 = AA             A:55 X:78 Y:0B P:64 SP:FB CYC:209 SL:71
DC3F  20 C0 F7  JSR $F7C0                       A:FF X:78 Y:0B P:E4 SP:FB CYC:221 SL:71
F7C0  B0 09     BCS $F7CB                       A:FF X:78 Y:0B P:E4 SP:F9 CYC:239 SL:71
F7C2  10 07     BPL $F7CB                       A:FF X:78 Y:0B P:E4 SP:F9 CYC:245 SL:71
F7C4  C9 FF     CMP #$FF                        A:FF X:78 Y:0B P:E4 SP:F9 CYC:251 SL:71
F7C6  D0 03     BNE $F7CB                       A:FF X:78 Y:0B P:67 SP:F9 CYC:257 SL:71
F7C8  50 01     BVC $F7CB                       A:FF X:78 Y:0B P:67 SP:F9 CYC:263 SL:71
F7CA  60        RTS                             A:FF X:78 Y:0B P:67 SP:F9 CYC:269 SL:71
DC42  C8        INY                             A:FF X:78 Y:0B P:67 SP:FB CYC:287 SL:71
DC43  A9 00     LDA #$00                        A:FF X:78 Y:0C P:65 SP:FB CYC:293 SL:71
DC45  85 78     STA $78 = AA                    A:00 X:78 Y:0C P:67 SP:FB CYC:299 SL:71
DC47  20 CE F7  JSR $F7CE                       A:00 X:78 Y:0C P:67 SP:FB CYC:308 SL:71
F7CE  38        SEC                             A:00 X:78 Y:0C P:67 SP:F9 CYC:326 SL:71
F7CF  B8        CLV                             A:00 X:78 Y:0C P:67 SP:F9 CYC:332 SL:71
F7D0  A9 00     LDA #$00                        A:00 X:78 Y:0C P:27 SP:F9 CYC:338 SL:71
F7D2  60        RTS                             A:00 X:78 Y:0C P:27 SP:F9 CYC:  3 SL:72
DC4A  15 00     ORA $00,X @ 78 = 00             A:00 X:78 Y:0C P:27 SP:FB CYC: 21 SL:72
DC4C  20 D3 F7  JSR $F7D3                       A:00 X:78 Y:0C P:27 SP:FB CYC: 33 SL:72
F7D3  D0 07     BNE $F7DC                       A:00 X:78 Y:0C P:27 SP:F9 CYC: 51 SL:72
F7D5  70 05     BVS $F7DC                       A:00 X:78 Y:0C P:27 SP:F9 CYC: 57 SL:72
F7D7  90 03     BCC $F7DC                       A:00 X:78 Y:0C P:27 SP:F9 CYC: 63 SL:72
F7D9  30 01     BMI $F7DC                       A:00 X:78 Y:0C P:27 SP:F9 CYC: 69 SL:72
F7DB  60        RTS                             A:00 X:78 Y:0C P:27 SP:F9 CYC: 75 SL:72
DC4F  C8        INY                             A:00 X:78 Y:0C P:27 SP:FB CYC: 93 SL:72
DC50  A9 AA     LDA #$AA                        A:00 X:78 Y:0D P:25 SP:FB CYC: 99 SL:72
DC52  85 78     STA $78 = 00                    A:AA X:78 Y:0D P:A5 SP:FB CYC:105 SL:72
DC54  20 DF F7  JSR $F7DF                       A:AA X:78 Y:0D P:A5 SP:FB CYC:114 SL:72
F7DF  18        CLC                             A:AA X:78 Y:0D P:A5 SP:F9 CYC:132 SL:72
F7E0  24 01     BIT $01 = FF                    A:AA X:78 Y:0D P:A4 SP:F9 CYC:138 SL:72
F7E2  A9 55     LDA #$55                        A:AA X:78 Y:0D P:E4 SP:F9 CYC:147 SL:72
F7E4  60        RTS                             A:55 X:78 Y:0D P:64 SP:F9 CYC:153 SL:72
DC57  35 00     AND $00,X @ 78 = AA             A:55 X:78 Y:0D P:64 SP:FB CYC:171 SL:72
DC59  20 E5 F7  JSR $F7E5                       A:00 X:78 Y:0D P:66 SP:FB CYC:183 SL:72
F7E5  D0 07     BNE $F7EE                       A:00 X:78 Y:0D P:66 SP:F9 CYC:201 SL:72
F7E7  50 05     BVC $F7EE                       A:00 X:78 Y:0D P:66 SP:F9 CYC:207 SL:72
F7E9  B0 03     BCS $F7EE                       A:00 X:78 Y:0D P:66 SP:F9 CYC:213 SL:72
F7EB  30 01     BMI $F7EE                       A:00 X:78 Y:0D P:66 SP:F9 CYC:219 SL:72
F7ED  60        RTS                             A:00 X:78 Y:0D P:66 SP:F9 CYC:225 SL:72
DC5C  C8        INY                             A:00 X:78 Y:0D P:66 SP:FB CYC:243 SL:72
DC5D  A9 EF     LDA #$EF                        A:00 X:78 Y:0E P:64 SP:FB CYC:249 SL:72
DC5F  85 78     STA $78 = AA                    A:EF X:78 Y:0E P:E4 SP:FB CYC:255 SL:72
DC61  20 F1 F7  JSR $F7F1                       A:EF X:78 Y:0E P:E4 SP:FB CYC:264 SL:72
F7F1  38        SEC                             A:EF X:78 Y:0E P:E4 SP:F9 CYC:282 SL:72
F7F2  B8        CLV                             A:EF X:78 Y:0E P:E5 SP:F9 CYC:288 SL:72
F7F3  A9 F8     LDA #$F8                        A:EF X:78 Y:0E P:A5 SP:F9 CYC:294 SL:72
F7F5  60        RTS                             A:F8 X:78 Y:0E P:A5 SP:F9 CYC:300 SL:72
DC64  35 00     AND $00,X @ 78 = EF             A:F8 X:78 Y:0E P:A5 SP:FB CYC:318 SL:72
DC66  20 F6 F7  JSR $F7F6                       A:E8 X:78 Y:0E P:A5 SP:FB CYC:330 SL:72
F7F6  90 09     BCC $F801                       A:E8 X:78 Y:0E P:A5 SP:F9 CYC:  7 SL:73
F7F8  10 07     BPL $F801                       A:E8 X:78 Y:0E P:A5 SP:F9 CYC: 13 SL:73
F7FA  C9 E8     CMP #$E8                        A:E8 X:78 Y:0E P:A5 SP:F9 CYC: 19 SL:73
F7FC  D0 03     BNE $F801                       A:E8 X:78 Y:0E P:27 SP:F9 CYC: 25 SL:73
F7FE  70 01     BVS $F801                       A:E8 X:78 Y:0E P:27 SP:F9 CYC: 31 SL:73
F800  60        RTS                             A:E8 X:78 Y:0E P:27 SP:F9 CYC: 37 SL:73
DC69  C8        INY                             A:E8 X:78 Y:0E P:27 SP:FB CYC: 55 SL:73
DC6A  A9 AA     LDA #$AA                        A:E8 X:78 Y:0F P:25 SP:FB CYC: 61 SL:73
DC6C  85 78     STA $78 = EF                    A:AA X:78 Y:0F P:A5 SP:FB CYC: 67 SL:73
DC6E  20 04 F8  JSR $F804                       A:AA X:78 Y:0F P:A5 SP:FB CYC: 76 SL:73
F804  18        CLC                             A:AA X:78 Y:0F P:A5 SP:F9 CYC: 94 SL:73
F805  24 01     BIT $01 = FF                    A:AA X:78 Y:0F P:A4 SP:F9 CYC:100 SL:73
F807  A9 5F     LDA #$5F                        A:AA X:78 Y:0F P:E4 SP:F9 CYC:109 SL:73
F809  60        RTS                             A:5F X:78 Y:0F P:64 SP:F9 CYC:115 SL:73
DC71  55 00     EOR $00,X @ 78 = AA             A:5F X:78 Y:0F P:64 SP:FB CYC:133 SL:73
DC73  20 0A F8  JSR $F80A                       A:F5 X:78 Y:0F P:E4 SP:FB CYC:145 SL:73
F80A  B0 09     BCS $F815                       A:F5 X:78 Y:0F P:E4 SP:F9 CYC:163 SL:73
F80C  10 07     BPL $F815                       A:F5 X:78 Y:0F P:E4 SP:F9 CYC:169 SL:73
F80E  C9 F5     CMP #$F5                        A:F5 X:78 Y:0F P:E4 SP:F9 CYC:175 SL:73
F810  D0 03     BNE $F815                       A:F5 X:78 Y:0F P:67 SP:F9 CYC:181 SL:73
F812  50 01     BVC $F815                       A:F5 X:78 Y:0F P:67 SP:F9 CYC:187 SL:73
F814  60        RTS                             A:F5 X:78 Y:0F P:67 SP:F9 CYC:193 SL:73
DC76  C8        INY                             A:F5 X:78 Y:0F P:67 SP:FB CYC:211 SL:73
DC77  A9 70     LDA #$70                        A:F5 X:78 Y:10 P:65 SP:FB CYC:217 SL:73
DC79  85 78     STA $78 = AA                    A:70 X:78 Y:10 P:65 SP:FB CYC:223 SL:73
DC7B  20 18 F8  JSR $F818                       A:70 X:78 Y:10 P:65 SP:FB CYC:232 SL:73
F818  38        SEC                             A:70 X:78 Y:10 P:65 SP:F9 CYC:250 SL:73
F819  B8        CLV                             A:70 X:78 Y:10 P:65 SP:F9 CYC:256 SL:73
F81A  A9 70     LDA #$70                        A:70 X:78 Y:10 P:25 SP:F9 CYC:262 SL:73
F81C  60        RTS                             A:70 X:78 Y:10 P:25 SP:F9 CYC:268 SL:73
DC7E  55 00     EOR $00,X @ 78 = 70             A:70 X:78 Y:10 P:25 SP:FB CYC:286 SL:73
DC80  20 1D F8  JSR $F81D                       A:00 X:78 Y:10 P:27 SP:FB CYC:298 SL:73
F81D  D0 07     BNE $F826                       A:00 X:78 Y:10 P:27 SP:F9 CYC:316 SL:73
F81F  70 05     BVS $F826                       A:00 X:78 Y:10 P:27 SP:F9 CYC:322 SL:73
F821  90 03     BCC $F826                       A:00 X:78 Y:10 P:27 SP:F9 CYC:328 SL:73
F823  30 01     BMI $F826                       A:00 X:78 Y:10 P:27 SP:F9 CYC:334 SL:73
F825  60        RTS                             A:00 X:78 Y:10 P:27 SP:F9 CYC:340 SL:73
DC83  C8        INY                             A:00 X:78 Y:10 P:27 SP:FB CYC: 17 SL:74
DC84  A9 69     LDA #$69                        A:00 X:78 Y:11 P:25 SP:FB CYC: 23 SL:74
DC86  85 78     STA $78 = 70                    A:69 X:78 Y:11 P:25 SP:FB CYC: 29 SL:74
DC88  20 29 F8  JSR $F829                       A:69 X:78 Y:11 P:25 SP:FB CYC: 38 SL:74
F829  18        CLC                             A:69 X:78 Y:11 P:25 SP:F9 CYC: 56 SL:74
F82A  24 01     BIT $01 = FF                    A:69 X:78 Y:11 P:24 SP:F9 CYC: 62 SL:74
F82C  A9 00     LDA #$00                        A:69 X:78 Y:11 P:E4 SP:F9 CYC: 71 SL:74
F82E  60        RTS                             A:00 X:78 Y:11 P:66 SP:F9 CYC: 77 SL:74
DC8B  75 00     ADC $00,X @ 78 = 69             A:00 X:78 Y:11 P:66 SP:FB CYC: 95 SL:74
DC8D  20 2F F8  JSR $F82F                       A:69 X:78 Y:11 P:24 SP:FB CYC:107 SL:74
F82F  30 09     BMI $F83A                       A:69 X:78 Y:11 P:24 SP:F9 CYC:125 SL:74
F831  B0 07     BCS $F83A                       A:69 X:78 Y:11 P:24 SP:F9 CYC:131 SL:74
F833  C9 69     CMP #$69                        A:69 X:78 Y:11 P:24 SP:F9 CYC:137 SL:74
F835  D0 03     BNE $F83A                       A:69 X:78 Y:11 P:27 SP:F9 CYC:143 SL:74
F837  70 01     BVS $F83A                       A:69 X:78 Y:11 P:27 SP:F9 CYC:149 SL:74
F839  60        RTS                             A:69 X:78 Y:11 P:27 SP:F9 CYC:155 SL:74
DC90  C8        INY                             A:69 X:78 Y:11 P:27 SP:FB CYC:173 SL:74
DC91  20 3D F8  JSR $F83D                       A:69 X:78 Y:12 P:25 SP:FB CYC:179 SL:74
F83D  38        SEC                             A:69 X:78 Y:12 P:25 SP:F9 CYC:197 SL:74
F83E  24 01     BIT $01 = FF                    A:69 X:78 Y:12 P:25 SP:F9 CYC:203 SL:74
F840  A9 00     LDA #$00                        A:69 X:78 Y:12 P:E5 SP:F9 CYC:212 SL:74
F842  60        RTS                             A:00 X:78 Y:12 P:67 SP:F9 CYC:218 SL:74
DC94  75 00     ADC $00,X @ 78 = 69             A:00 X:78 Y:12 P:67 SP:FB CYC:236 SL:74
DC96  20 43 F8  JSR $F843                       A:6A X:78 Y:12 P:24 SP:FB CYC:248 SL:74
F843  30 09     BMI $F84E                       A:6A X:78 Y:12 P:24 SP:F9 CYC:266 SL:74
F845  B0 07     BCS $F84E                       A:6A X:78 Y:12 P:24 SP:F9 CYC:272 SL:74
F847  C9 6A     CMP #$6A                        A:6A X:78 Y:12 P:24 SP:F9 CYC:278 SL:74
F849  D0 03     BNE $F84E                       A:6A X:78 Y:12 P:27 SP:F9 CYC:284 SL:74
F84B  70 01     BVS $F84E                       A:6A X:78 Y:12 P:27 SP:F9 CYC:290 SL:74
F84D  60        RTS                             A:6A X:78 Y:12 P:27 SP:F9 CYC:296 SL:74
DC99  C8        INY                             A:6A X:78 Y:12 P:27 SP:FB CYC:314 SL:74
DC9A  A9 7F     LDA #$7F                        A:6A X:78 Y:13 P:25 SP:FB CYC:320 SL:74
DC9C  85 78     STA $78 = 69                    A:7F X:78 Y:13 P:25 SP:FB CYC:326 SL:74
DC9E  20 51 F8  JSR $F851                       A:7F X:78 Y:13 P:25 SP:FB CYC:335 SL:74
F851  38        SEC                             A:7F X:78 Y:13 P:25 SP:F9 CYC: 12 SL:75
F852  B8        CLV                             A:7F X:78 Y:13 P:25 SP:F9 CYC: 18 SL:75
F853  A9 7F     LDA #$7F                        A:7F X:78 Y:13 P:25 SP:F9 CYC: 24 SL:75
F855  60        RTS                             A:7F X:78 Y:13 P:25 SP:F9 CYC: 30 SL:75
DCA1  75 00     ADC $00,X @ 78 = 7F             A:7F X:78 Y:13 P:25 SP:FB CYC: 48 SL:75
DCA3  20 56 F8  JSR $F856                       A:FF X:78 Y:13 P:E4 SP:FB CYC: 60 SL:75
F856  10 09     BPL $F861                       A:FF X:78 Y:13 P:E4 SP:F9 CYC: 78 SL:75
F858  B0 07     BCS $F861                       A:FF X:78 Y:13 P:E4 SP:F9 CYC: 84 SL:75
F85A  C9 FF     CMP #$FF                        A:FF X:78 Y:13 P:E4 SP:F9 CYC: 90 SL:75
F85C  D0 03     BNE $F861                       A:FF X:78 Y:13 P:67 SP:F9 CYC: 96 SL:75
F85E  50 01     BVC $F861                       A:FF X:78 Y:13 P:67 SP:F9 CYC:102 SL:75
F860  60        RTS                             A:FF X:78 Y:13 P:67 SP:F9 CYC:108 SL:75
DCA6  C8        INY                             A:FF X:78 Y:13 P:67 SP:FB CYC:126 SL:75
DCA7  A9 80     LDA #$80                        A:FF X:78 Y:14 P:65 SP:FB CYC:132 SL:75
DCA9  85 78     STA $78 = 7F                    A:80 X:78 Y:14 P:E5 SP:FB CYC:138 SL:75
DCAB  20 64 F8  JSR $F864                       A:80 X:78 Y:14 P:E5 SP:FB CYC:147 SL:75
F864  18        CLC                             A:80 X:78 Y:14 P:E5 SP:F9 CYC:165 SL:75
F865  24 01     BIT $01 = FF                    A:80 X:78 Y:14 P:E4 SP:F9 CYC:171 SL:75
F867  A9 7F     LDA #$7F                        A:80 X:78 Y:14 P:E4 SP:F9 CYC:180 SL:75
F869  60        RTS                             A:7F X:78 Y:14 P:64 SP:F9 CYC:186 SL:75
DCAE  75 00     ADC $00,X @ 78 = 80             A:7F X:78 Y:14 P:64 SP:FB CYC:204 SL:75
DCB0  20 6A F8  JSR $F86A                       A:FF X:78 Y:14 P:A4 SP:FB CYC:216 SL:75
F86A  10 09     BPL $F875                       A:FF X:78 Y:14 P:A4 SP:F9 CYC:234 SL:75
F86C  B0 07     BCS $F875                       A:FF X:78 Y:14 P:A4 SP:F9 CYC:240 SL:75
F86E  C9 FF     CMP #$FF                        A:FF X:78 Y:14 P:A4 SP:F9 CYC:246 SL:75
F870  D0 03     BNE $F875                       A:FF X:78 Y:14 P:27 SP:F9 CYC:252 SL:75
F872  70 01     BVS $F875                       A:FF X:78 Y:14 P:27 SP:F9 CYC:258 SL:75
F874  60        RTS                             A:FF X:78 Y:14 P:27 SP:F9 CYC:264 SL:75
DCB3  C8        INY                             A:FF X:78 Y:14 P:27 SP:FB CYC:282 SL:75
DCB4  20 78 F8  JSR $F878                       A:FF X:78 Y:15 P:25 SP:FB CYC:288 SL:75
F878  38        SEC                             A:FF X:78 Y:15 P:25 SP:F9 CYC:306 SL:75
F879  B8        CLV                             A:FF X:78 Y:15 P:25 SP:F9 CYC:312 SL:75
F87A  A9 7F     LDA #$7F                        A:FF X:78 Y:15 P:25 SP:F9 CYC:318 SL:75
F87C  60        RTS                             A:7F X:78 Y:15 P:25 SP:F9 CYC:324 SL:75
DCB7  75 00     ADC $00,X @ 78 = 80             A:7F X:78 Y:15 P:25 SP:FB CYC:  1 SL:76
DCB9  20 7D F8  JSR $F87D                       A:00 X:78 Y:15 P:27 SP:FB CYC: 13 SL:76
F87D  D0 07     BNE $F886                       A:00 X:78 Y:15 P:27 SP:F9 CYC: 31 SL:76
F87F  30 05     BMI $F886                       A:00 X:78 Y:15 P:27 SP:F9 CYC: 37 SL:76
F881  70 03     BVS $F886                       A:00 X:78 Y:15 P:27 SP:F9 CYC: 43 SL:76
F883  90 01     BCC $F886                       A:00 X:78 Y:15 P:27 SP:F9 CYC: 49 SL:76
F885  60        RTS                             A:00 X:78 Y:15 P:27 SP:F9 CYC: 55 SL:76
DCBC  C8        INY                             A:00 X:78 Y:15 P:27 SP:FB CYC: 73 SL:76
DCBD  A9 40     LDA #$40                        A:00 X:78 Y:16 P:25 SP:FB CYC: 79 SL:76
DCBF  85 78     STA $78 = 80                    A:40 X:78 Y:16 P:25 SP:FB CYC: 85 SL:76
DCC1  20 89 F8  JSR $F889                       A:40 X:78 Y:16 P:25 SP:FB CYC: 94 SL:76
F889  24 01     BIT $01 = FF                    A:40 X:78 Y:16 P:25 SP:F9 CYC:112 SL:76
F88B  A9 40     LDA #$40                        A:40 X:78 Y:16 P:E5 SP:F9 CYC:121 SL:76
F88D  60        RTS                             A:40 X:78 Y:16 P:65 SP:F9 CYC:127 SL:76
DCC4  D5 00     CMP $00,X @ 78 = 40             A:40 X:78 Y:16 P:65 SP:FB CYC:145 SL:76
DCC6  20 8E F8  JSR $F88E                       A:40 X:78 Y:16 P:67 SP:FB CYC:157 SL:76
F88E  30 07     BMI $F897                       A:40 X:78 Y:16 P:67 SP:F9 CYC:175 SL:76
F890  90 05     BCC $F897                       A:40 X:78 Y:16 P:67 SP:F9 CYC:181 SL:76
F892  D0 03     BNE $F897                       A:40 X:78 Y:16 P:67 SP:F9 CYC:187 SL:76
F894  50 01     BVC $F897                       A:40 X:78 Y:16 P:67 SP:F9 CYC:193 SL:76
F896  60        RTS                             A:40 X:78 Y:16 P:67 SP:F9 CYC:199 SL:76
DCC9  C8        INY                             A:40 X:78 Y:16 P:67 SP:FB CYC:217 SL:76
DCCA  48        PHA                             A:40 X:78 Y:17 P:65 SP:FB CYC:223 SL:76
DCCB  A9 3F     LDA #$3F                        A:40 X:78 Y:17 P:65 SP:FA CYC:232 SL:76
DCCD  85 78     STA $78 = 40                    A:3F X:78 Y:17 P:65 SP:FA CYC:238 SL:76
DCCF  68        PLA                             A:3F X:78 Y:17 P:65 SP:FA CYC:247 SL:76
DCD0  20 9A F8  JSR $F89A                       A:40 X:78 Y:17 P:65 SP:FB CYC:259 SL:76
F89A  B8        CLV                             A:40 X:78 Y:17 P:65 SP:F9 CYC:277 SL:76
F89B  60        RTS                             A:40 X:78 Y:17 P:25 SP:F9 CYC:283 SL:76
DCD3  D5 00     CMP $00,X @ 78 = 3F             A:40 X:78 Y:17 P:25 SP:FB CYC:301 SL:76
DCD5  20 9C F8  JSR $F89C                       A:40 X:78 Y:17 P:25 SP:FB CYC:313 SL:76
F89C  F0 07     BEQ $F8A5                       A:40 X:78 Y:17 P:25 SP:F9 CYC:331 SL:76
F89E  30 05     BMI $F8A5                       A:40 X:78 Y:17 P:25 SP:F9 CYC:337 SL:76
F8A0  90 03     BCC $F8A5                       A:40 X:78 Y:17 P:25 SP:F9 CYC:  2 SL:77
F8A2  70 01     BVS $F8A5                       A:40 X:78 Y:17 P:25 SP:F9 CYC:  8 SL:77
F8A4  60        RTS                             A:40 X:78 Y:17 P:25 SP:F9 CYC: 14 SL:77
DCD8  C8        INY                             A:40 X:78 Y:17 P:25 SP:FB CYC: 32 SL:77
DCD9  48        PHA                             A:40 X:78 Y:18 P:25 SP:FB CYC: 38 SL:77
DCDA  A9 41     LDA #$41                        A:40 X:78 Y:18 P:25 SP:FA CYC: 47 SL:77
DCDC  85 78     STA $78 = 3F                    A:41 X:78 Y:18 P:25 SP:FA CYC: 53 SL:77
DCDE  68        PLA                             A:41 X:78 Y:18 P:25 SP:FA CYC: 62 SL:77
DCDF  D5 00     CMP $00,X @ 78 = 41             A:40 X:78 Y:18 P:25 SP:FB CYC: 74 SL:77
DCE1  20 A8 F8  JSR $F8A8                       A:40 X:78 Y:18 P:A4 SP:FB CYC: 86 SL:77
F8A8  F0 05     BEQ $F8AF                       A:40 X:78 Y:18 P:A4 SP:F9 CYC:104 SL:77
F8AA  10 03     BPL $F8AF                       A:40 X:78 Y:18 P:A4 SP:F9 CYC:110 SL:77
F8AC  10 01     BPL $F8AF                       A:40 X:78 Y:18 P:A4 SP:F9 CYC:116 SL:77
F8AE  60        RTS                             A:40 X:78 Y:18 P:A4 SP:F9 CYC:122 SL:77
DCE4  C8        INY                             A:40 X:78 Y:18 P:A4 SP:FB CYC:140 SL:77
DCE5  48        PHA                             A:40 X:78 Y:19 P:24 SP:FB CYC:146 SL:77
DCE6  A9 00     LDA #$00                        A:40 X:78 Y:19 P:24 SP:FA CYC:155 SL:77
DCE8  85 78     STA $78 = 41                    A:00 X:78 Y:19 P:26 SP:FA CYC:161 SL:77
DCEA  68        PLA                             A:00 X:78 Y:19 P:26 SP:FA CYC:170 SL:77
DCEB  20 B2 F8  JSR $F8B2                       A:40 X:78 Y:19 P:24 SP:FB CYC:182 SL:77
F8B2  A9 80     LDA #$80                        A:40 X:78 Y:19 P:24 SP:F9 CYC:200 SL:77
F8B4  60        RTS                             A:80 X:78 Y:19 P:A4 SP:F9 CYC:206 SL:77
DCEE  D5 00     CMP $00,X @ 78 = 00             A:80 X:78 Y:19 P:A4 SP:FB CYC:224 SL:77
DCF0  20 B5 F8  JSR $F8B5                       A:80 X:78 Y:19 P:A5 SP:FB CYC:236 SL:77
F8B5  F0 05     BEQ $F8BC                       A:80 X:78 Y:19 P:A5 SP:F9 CYC:254 SL:77
F8B7  10 03     BPL $F8BC                       A:80 X:78 Y:19 P:A5 SP:F9 CYC:260 SL:77
F8B9  90 01     BCC $F8BC                       A:80 X:78 Y:19 P:A5 SP:F9 CYC:266 SL:77
F8BB  60        RTS                             A:80 X:78 Y:19 P:A5 SP:F9 CYC:272 SL:77
DCF3  C8        INY                             A:80 X:78 Y:19 P:A5 SP:FB CYC:290 SL:77
DCF4  48        PHA                             A:80 X:78 Y:1A P:25 SP:FB CYC:296 SL:77
DCF5  A9 80     LDA #$80                        A:80 X:78 Y:1A P:25 SP:FA CYC:305 SL:77
DCF7  85 78     STA $78 = 00                    A:80 X:78 Y:1A P:A5 SP:FA CYC:311 SL:77
DCF9  68        PLA                             A:80 X:78 Y:1A P:A5 SP:FA CYC:320 SL:77
DCFA  D5 00     CMP $00,X @ 78 = 80             A:80 X:78 Y:1A P:A5 SP:FB CYC:332 SL:77
DCFC  20 BF F8  JSR $F8BF                       A:80 X:78 Y:1A P:27 SP:FB CYC:  3 SL:78
F8BF  D0 05     BNE $F8C6                       A:80 X:78 Y:1A P:27 SP:F9 CYC: 21 SL:78
F8C1  30 03     BMI $F8C6                       A:80 X:78 Y:1A P:27 SP:F9 CYC: 27 SL:78
F8C3  90 01     BCC $F8C6                       A:80 X:78 Y:1A P:27 SP:F9 CYC: 33 SL:78
F8C5  60        RTS                             A:80 X:78 Y:1A P:27 SP:F9 CYC: 39 SL:78
DCFF  C8        INY                             A:80 X:78 Y:1A P:27 SP:FB CYC: 57 SL:78
DD00  48        PHA                             A:80 X:78 Y:1B P:25 SP:FB CYC: 63 SL:78
DD01  A9 81     LDA #$81                        A:80 X:78 Y:1B P:25 SP:FA CYC: 72 SL:78
DD03  85 78     STA $78 = 80                    A:81 X:78 Y:1B P:A5 SP:FA CYC: 78 SL:78
DD05  68        PLA                             A:81 X:78 Y:1B P:A5 SP:FA CYC: 87 SL:78
DD06  D5 00     CMP $00,X @ 78 = 81             A:80 X:78 Y:1B P:A5 SP:FB CYC: 99 SL:78
DD08  20 C9 F8  JSR $F8C9                       A:80 X:78 Y:1B P:A4 SP:FB CYC:111 SL:78
F8C9  B0 05     BCS $F8D0                       A:80 X:78 Y:1B P:A4 SP:F9 CYC:129 SL:78
F8CB  F0 03     BEQ $F8D0                       A:80 X:78 Y:1B P:A4 SP:F9 CYC:135 SL:78
F8CD  10 01     BPL $F8D0                       A:80 X:78 Y:1B P:A4 SP:F9 CYC:141 SL:78
F8CF  60        RTS                             A:80 X:78 Y:1B P:A4 SP:F9 CYC:147 SL:78
DD0B  C8        INY                             A:80 X:78 Y:1B P:A4 SP:FB CYC:165 SL:78
DD0C  48        PHA                             A:80 X:78 Y:1C P:24 SP:FB CYC:171 SL:78
DD0D  A9 7F     LDA #$7F                        A:80 X:78 Y:1C P:24 SP:FA CYC:180 SL:78
DD0F  85 78     STA $78 = 81                    A:7F X:78 Y:1C P:24 SP:FA CYC:186 SL:78
DD11  68        PLA                             A:7F X:78 Y:1C P:24 SP:FA CYC:195 SL:78
DD12  D5 00     CMP $00,X @ 78 = 7F             A:80 X:78 Y:1C P:A4 SP:FB CYC:207 SL:78
DD14  20 D3 F8  JSR $F8D3                       A:80 X:78 Y:1C P:25 SP:FB CYC:219 SL:78
F8D3  90 05     BCC $F8DA                       A:80 X:78 Y:1C P:25 SP:F9 CYC:237 SL:78
F8D5  F0 03     BEQ $F8DA                       A:80 X:78 Y:1C P:25 SP:F9 CYC:243 SL:78
F8D7  30 01     BMI $F8DA                       A:80 X:78 Y:1C P:25 SP:F9 CYC:249 SL:78
F8D9  60        RTS                             A:80 X:78 Y:1C P:25 SP:F9 CYC:255 SL:78
DD17  C8        INY                             A:80 X:78 Y:1C P:25 SP:FB CYC:273 SL:78
DD18  A9 40     LDA #$40                        A:80 X:78 Y:1D P:25 SP:FB CYC:279 SL:78
DD1A  85 78     STA $78 = 7F                    A:40 X:78 Y:1D P:25 SP:FB CYC:285 SL:78
DD1C  20 31 F9  JSR $F931                       A:40 X:78 Y:1D P:25 SP:FB CYC:294 SL:78
F931  24 01     BIT $01 = FF                    A:40 X:78 Y:1D P:25 SP:F9 CYC:312 SL:78
F933  A9 40     LDA #$40                        A:40 X:78 Y:1D P:E5 SP:F9 CYC:321 SL:78
F935  38        SEC                             A:40 X:78 Y:1D P:65 SP:F9 CYC:327 SL:78
F936  60        RTS                             A:40 X:78 Y:1D P:65 SP:F9 CYC:333 SL:78
DD1F  F5 00     SBC $00,X @ 78 = 40             A:40 X:78 Y:1D P:65 SP:FB CYC: 10 SL:79
DD21  20 37 F9  JSR $F937                       A:00 X:78 Y:1D P:27 SP:FB CYC: 22 SL:79
F937  30 0B     BMI $F944                       A:00 X:78 Y:1D P:27 SP:F9 CYC: 40 SL:79
F939  90 09     BCC $F944                       A:00 X:78 Y:1D P:27 SP:F9 CYC: 46 SL:79
F93B  D0 07     BNE $F944                       A:00 X:78 Y:1D P:27 SP:F9 CYC: 52 SL:79
F93D  70 05     BVS $F944                       A:00 X:78 Y:1D P:27 SP:F9 CYC: 58 SL:79
F93F  C9 00     CMP #$00                        A:00 X:78 Y:1D P:27 SP:F9 CYC: 64 SL:79
F941  D0 01     BNE $F944                       A:00 X:78 Y:1D P:27 SP:F9 CYC: 70 SL:79
F943  60        RTS                             A:00 X:78 Y:1D P:27 SP:F9 CYC: 76 SL:79
DD24  C8        INY                             A:00 X:78 Y:1D P:27 SP:FB CYC: 94 SL:79
DD25  A9 3F     LDA #$3F                        A:00 X:78 Y:1E P:25 SP:FB CYC:100 SL:79
DD27  85 78     STA $78 = 40                    A:3F X:78 Y:1E P:25 SP:FB CYC:106 SL:79
DD29  20 47 F9  JSR $F947                       A:3F X:78 Y:1E P:25 SP:FB CYC:115 SL:79
F947  B8        CLV                             A:3F X:78 Y:1E P:25 SP:F9 CYC:133 SL:79
F948  38        SEC                             A:3F X:78 Y:1E P:25 SP:F9 CYC:139 SL:79
F949  A9 40     LDA #$40                        A:3F X:78 Y:1E P:25 SP:F9 CYC:145 SL:79
F94B  60        RTS                             A:40 X:78 Y:1E P:25 SP:F9 CYC:151 SL:79
DD2C  F5 00     SBC $00,X @ 78 = 3F             A:40 X:78 Y:1E P:25 SP:FB CYC:169 SL:79
DD2E  20 4C F9  JSR $F94C                       A:01 X:78 Y:1E P:25 SP:FB CYC:181 SL:79
F94C  F0 0B     BEQ $F959                       A:01 X:78 Y:1E P:25 SP:F9 CYC:199 SL:79
F94E  30 09     BMI $F959                       A:01 X:78 Y:1E P:25 SP:F9 CYC:205 SL:79
F950  90 07     BCC $F959                       A:01 X:78 Y:1E P:25 SP:F9 CYC:211 SL:79
F952  70 05     BVS $F959                       A:01 X:78 Y:1E P:25 SP:F9 CYC:217 SL:79
F954  C9 01     CMP #$01                        A:01 X:78 Y:1E P:25 SP:F9 CYC:223 SL:79
F956  D0 01     BNE $F959                       A:01 X:78 Y:1E P:27 SP:F9 CYC:229 SL:79
F958  60        RTS                             A:01 X:78 Y:1E P:27 SP:F9 CYC:235 SL:79
DD31  C8        INY                             A:01 X:78 Y:1E P:27 SP:FB CYC:253 SL:79
DD32  A9 41     LDA #$41                        A:01 X:78 Y:1F P:25 SP:FB CYC:259 SL:79
DD34  85 78     STA $78 = 3F                    A:41 X:78 Y:1F P:25 SP:FB CYC:265 SL:79
DD36  20 5C F9  JSR $F95C                       A:41 X:78 Y:1F P:25 SP:FB CYC:274 SL:79
F95C  A9 40     LDA #$40                        A:41 X:78 Y:1F P:25 SP:F9 CYC:292 SL:79
F95E  38        SEC                             A:40 X:78 Y:1F P:25 SP:F9 CYC:298 SL:79
F95F  24 01     BIT $01 = FF                    A:40 X:78 Y:1F P:25 SP:F9 CYC:304 SL:79
F961  60        RTS                             A:40 X:78 Y:1F P:E5 SP:F9 CYC:313 SL:79
DD39  F5 00     SBC $00,X @ 78 = 41             A:40 X:78 Y:1F P:E5 SP:FB CYC:331 SL:79
DD3B  20 62 F9  JSR $F962                       A:FF X:78 Y:1F P:A4 SP:FB CYC:  2 SL:80
F962  B0 0B     BCS $F96F                       A:FF X:78 Y:1F P:A4 SP:F9 CYC: 20 SL:80
F964  F0 09     BEQ $F96F                       A:FF X:78 Y:1F P:A4 SP:F9 CYC: 26 SL:80
F966  10 07     BPL $F96F                       A:FF X:78 Y:1F P:A4 SP:F9 CYC: 32 SL:80
F968  70 05     BVS $F96F                       A:FF X:78 Y:1F P:A4 SP:F9 CYC: 38 SL:80
F96A  C9 FF     CMP #$FF                        A:FF X:78 Y:1F P:A4 SP:F9 CYC: 44 SL:80
F96C  D0 01     BNE $F96F                       A:FF X:78 Y:1F P:27 SP:F9 CYC: 50 SL:80
F96E  60        RTS                             A:FF X:78 Y:1F P:27 SP:F9 CYC: 56 SL:80
DD3E  C8        INY                             A:FF X:78 Y:1F P:27 SP:FB CYC: 74 SL:80
DD3F  A9 00     LDA #$00                        A:FF X:78 Y:20 P:25 SP:FB CYC: 80 SL:80
DD41  85 78     STA $78 = 41                    A:00 X:78 Y:20 P:27 SP:FB CYC: 86 SL:80
DD43  20 72 F9  JSR $F972                       A:00 X:78 Y:20 P:27 SP:FB CYC: 95 SL:80
F972  18        CLC                             A:00 X:78 Y:20 P:27 SP:F9 CYC:113 SL:80
F973  A9 80     LDA #$80                        A:00 X:78 Y:20 P:26 SP:F9 CYC:119 SL:80
F975  60        RTS                             A:80 X:78 Y:20 P:A4 SP:F9 CYC:125 SL:80
DD46  F5 00     SBC $00,X @ 78 = 00             A:80 X:78 Y:20 P:A4 SP:FB CYC:143 SL:80
DD48  20 76 F9  JSR $F976                       A:7F X:78 Y:20 P:65 SP:FB CYC:155 SL:80
F976  90 05     BCC $F97D                       A:7F X:78 Y:20 P:65 SP:F9 CYC:173 SL:80
F978  C9 7F     CMP #$7F                        A:7F X:78 Y:20 P:65 SP:F9 CYC:179 SL:80
F97A  D0 01     BNE $F97D                       A:7F X:78 Y:20 P:67 SP:F9 CYC:185 SL:80
F97C  60        RTS                             A:7F X:78 Y:20 P:67 SP:F9 CYC:191 SL:80
DD4B  C8        INY                             A:7F X:78 Y:20 P:67 SP:FB CYC:209 SL:80
DD4C  A9 7F     LDA #$7F                        A:7F X:78 Y:21 P:65 SP:FB CYC:215 SL:80
DD4E  85 78     STA $78 = 00                    A:7F X:78 Y:21 P:65 SP:FB CYC:221 SL:80
DD50  20 80 F9  JSR $F980                       A:7F X:78 Y:21 P:65 SP:FB CYC:230 SL:80
F980  38        SEC                             A:7F X:78 Y:21 P:65 SP:F9 CYC:248 SL:80
F981  A9 81     LDA #$81                        A:7F X:78 Y:21 P:65 SP:F9 CYC:254 SL:80
F983  60        RTS                             A:81 X:78 Y:21 P:E5 SP:F9 CYC:260 SL:80
DD53  F5 00     SBC $00,X @ 78 = 7F             A:81 X:78 Y:21 P:E5 SP:FB CYC:278 SL:80
DD55  20 84 F9  JSR $F984                       A:02 X:78 Y:21 P:65 SP:FB CYC:290 SL:80
F984  50 07     BVC $F98D                       A:02 X:78 Y:21 P:65 SP:F9 CYC:308 SL:80
F986  90 05     BCC $F98D                       A:02 X:78 Y:21 P:65 SP:F9 CYC:314 SL:80
F988  C9 02     CMP #$02                        A:02 X:78 Y:21 P:65 SP:F9 CYC:320 SL:80
F98A  D0 01     BNE $F98D                       A:02 X:78 Y:21 P:67 SP:F9 CYC:326 SL:80
F98C  60        RTS                             A:02 X:78 Y:21 P:67 SP:F9 CYC:332 SL:80
DD58  A9 AA     LDA #$AA                        A:02 X:78 Y:21 P:67 SP:FB CYC:  9 SL:81
DD5A  85 33     STA $33 = 44                    A:AA X:78 Y:21 P:E5 SP:FB CYC: 15 SL:81
DD5C  A9 BB     LDA #$BB                        A:AA X:78 Y:21 P:E5 SP:FB CYC: 24 SL:81
DD5E  85 89     STA $89 = BB                    A:BB X:78 Y:21 P:E5 SP:FB CYC: 30 SL:81
DD60  A2 00     LDX #$00                        A:BB X:78 Y:21 P:E5 SP:FB CYC: 39 SL:81
DD62  A0 66     LDY #$66                        A:BB X:00 Y:21 P:67 SP:FB CYC: 45 SL:81
DD64  24 01     BIT $01 = FF                    A:BB X:00 Y:66 P:65 SP:FB CYC: 51 SL:81
DD66  38        SEC                             A:BB X:00 Y:66 P:E5 SP:FB CYC: 60 SL:81
DD67  A9 00     LDA #$00                        A:BB X:00 Y:66 P:E5 SP:FB CYC: 66 SL:81
DD69  B5 33     LDA $33,X @ 33 = AA             A:00 X:00 Y:66 P:67 SP:FB CYC: 72 SL:81
DD6B  10 12     BPL $DD7F                       A:AA X:00 Y:66 P:E5 SP:FB CYC: 84 SL:81
DD6D  F0 10     BEQ $DD7F                       A:AA X:00 Y:66 P:E5 SP:FB CYC: 90 SL:81
DD6F  50 0E     BVC $DD7F                       A:AA X:00 Y:66 P:E5 SP:FB CYC: 96 SL:81
DD71  90 0C     BCC $DD7F                       A:AA X:00 Y:66 P:E5 SP:FB CYC:102 SL:81
DD73  C0 66     CPY #$66                        A:AA X:00 Y:66 P:E5 SP:FB CYC:108 SL:81
DD75  D0 08     BNE $DD7F                       A:AA X:00 Y:66 P:67 SP:FB CYC:114 SL:81
DD77  E0 00     CPX #$00                        A:AA X:00 Y:66 P:67 SP:FB CYC:120 SL:81
DD79  D0 04     BNE $DD7F                       A:AA X:00 Y:66 P:67 SP:FB CYC:126 SL:81
DD7B  C9 AA     CMP #$AA                        A:AA X:00 Y:66 P:67 SP:FB CYC:132 SL:81
DD7D  F0 04     BEQ $DD83                       A:AA X:00 Y:66 P:67 SP:FB CYC:138 SL:81
DD83  A2 8A     LDX #$8A                        A:AA X:00 Y:66 P:67 SP:FB CYC:147 SL:81
DD85  A0 66     LDY #$66                        A:AA X:8A Y:66 P:E5 SP:FB CYC:153 SL:81
DD87  B8        CLV                             A:AA X:8A Y:66 P:65 SP:FB CYC:159 SL:81
DD88  18        CLC                             A:AA X:8A Y:66 P:25 SP:FB CYC:165 SL:81
DD89  A9 00     LDA #$00                        A:AA X:8A Y:66 P:24 SP:FB CYC:171 SL:81
DD8B  B5 FF     LDA $FF,X @ 89 = BB             A:00 X:8A Y:66 P:26 SP:FB CYC:177 SL:81
DD8D  10 12     BPL $DDA1                       A:BB X:8A Y:66 P:A4 SP:FB CYC:189 SL:81
DD8F  F0 10     BEQ $DDA1                       A:BB X:8A Y:66 P:A4 SP:FB CYC:195 SL:81
DD91  70 0E     BVS $DDA1                       A:BB X:8A Y:66 P:A4 SP:FB CYC:201 SL:81
DD93  B0 0C     BCS $DDA1                       A:BB X:8A Y:66 P:A4 SP:FB CYC:207 SL:81
DD95  C9 BB     CMP #$BB                        A:BB X:8A Y:66 P:A4 SP:FB CYC:213 SL:81
DD97  D0 08     BNE $DDA1                       A:BB X:8A Y:66 P:27 SP:FB CYC:219 SL:81
DD99  C0 66     CPY #$66                        A:BB X:8A Y:66 P:27 SP:FB CYC:225 SL:81
DD9B  D0 04     BNE $DDA1                       A:BB X:8A Y:66 P:27 SP:FB CYC:231 SL:81
DD9D  E0 8A     CPX #$8A                        A:BB X:8A Y:66 P:27 SP:FB CYC:237 SL:81
DD9F  F0 04     BEQ $DDA5                       A:BB X:8A Y:66 P:27 SP:FB CYC:243 SL:81
DDA5  24 01     BIT $01 = FF                    A:BB X:8A Y:66 P:27 SP:FB CYC:252 SL:81
DDA7  38        SEC                             A:BB X:8A Y:66 P:E5 SP:FB CYC:261 SL:81
DDA8  A9 44     LDA #$44                        A:BB X:8A Y:66 P:E5 SP:FB CYC:267 SL:81
DDAA  A2 00     LDX #$00                        A:44 X:8A Y:66 P:65 SP:FB CYC:273 SL:81
DDAC  95 33     STA $33,X @ 33 = AA             A:44 X:00 Y:66 P:67 SP:FB CYC:279 SL:81
DDAE  A5 33     LDA $33 = 44                    A:44 X:00 Y:66 P:67 SP:FB CYC:291 SL:81
DDB0  90 18     BCC $DDCA                       A:44 X:00 Y:66 P:65 SP:FB CYC:300 SL:81
DDB2  C9 44     CMP #$44                        A:44 X:00 Y:66 P:65 SP:FB CYC:306 SL:81
DDB4  D0 14     BNE $DDCA                       A:44 X:00 Y:66 P:67 SP:FB CYC:312 SL:81
DDB6  50 12     BVC $DDCA                       A:44 X:00 Y:66 P:67 SP:FB CYC:318 SL:81
DDB8  18        CLC                             A:44 X:00 Y:66 P:67 SP:FB CYC:324 SL:81
DDB9  B8        CLV                             A:44 X:00 Y:66 P:66 SP:FB CYC:330 SL:81
DDBA  A9 99     LDA #$99                        A:44 X:00 Y:66 P:26 SP:FB CYC:336 SL:81
DDBC  A2 80     LDX #$80                        A:99 X:00 Y:66 P:A4 SP:FB CYC:  1 SL:82
DDBE  95 85     STA $85,X @ 05 = 99             A:99 X:80 Y:66 P:A4 SP:FB CYC:  7 SL:82
DDC0  A5 05     LDA $05 = 99                    A:99 X:80 Y:66 P:A4 SP:FB CYC: 19 SL:82
DDC2  B0 06     BCS $DDCA                       A:99 X:80 Y:66 P:A4 SP:FB CYC: 28 SL:82
DDC4  C9 99     CMP #$99                        A:99 X:80 Y:66 P:A4 SP:FB CYC: 34 SL:82
DDC6  D0 02     BNE $DDCA                       A:99 X:80 Y:66 P:27 SP:FB CYC: 40 SL:82
DDC8  50 04     BVC $DDCE                       A:99 X:80 Y:66 P:27 SP:FB CYC: 46 SL:82
DDCE  A0 25     LDY #$25                        A:99 X:80 Y:66 P:27 SP:FB CYC: 55 SL:82
DDD0  A2 78     LDX #$78                        A:99 X:80 Y:25 P:25 SP:FB CYC: 61 SL:82
DDD2  20 90 F9  JSR $F990                       A:99 X:78 Y:25 P:25 SP:FB CYC: 67 SL:82
F990  A2 55     LDX #$55                        A:99 X:78 Y:25 P:25 SP:F9 CYC: 85 SL:82
F992  A9 FF     LDA #$FF                        A:99 X:55 Y:25 P:25 SP:F9 CYC: 91 SL:82
F994  85 01     STA $01 = FF                    A:FF X:55 Y:25 P:A5 SP:F9 CYC: 97 SL:82
F996  EA        NOP                             A:FF X:55 Y:25 P:A5 SP:F9 CYC:106 SL:82
F997  24 01     BIT $01 = FF                    A:FF X:55 Y:25 P:A5 SP:F9 CYC:112 SL:82
F999  38        SEC                             A:FF X:55 Y:25 P:E5 SP:F9 CYC:121 SL:82
F99A  A9 01     LDA #$01                        A:FF X:55 Y:25 P:E5 SP:F9 CYC:127 SL:82
F99C  60        RTS                             A:01 X:55 Y:25 P:65 SP:F9 CYC:133 SL:82
DDD5  95 00     STA $00,X @ 55 = 00             A:01 X:55 Y:25 P:65 SP:FB CYC:151 SL:82
DDD7  56 00     LSR $00,X @ 55 = 01             A:01 X:55 Y:25 P:65 SP:FB CYC:163 SL:82
DDD9  B5 00     LDA $00,X @ 55 = 00             A:01 X:55 Y:25 P:67 SP:FB CYC:181 SL:82
DDDB  20 9D F9  JSR $F99D                       A:00 X:55 Y:25 P:67 SP:FB CYC:193 SL:82
F99D  90 1B     BCC $F9BA                       A:00 X:55 Y:25 P:67 SP:F9 CYC:211 SL:82
F99F  D0 19     BNE $F9BA                       A:00 X:55 Y:25 P:67 SP:F9 CYC:217 SL:82
F9A1  30 17     BMI $F9BA                       A:00 X:55 Y:25 P:67 SP:F9 CYC:223 SL:82
F9A3  50 15     BVC $F9BA                       A:00 X:55 Y:25 P:67 SP:F9 CYC:229 SL:82
F9A5  C9 00     CMP #$00                        A:00 X:55 Y:25 P:67 SP:F9 CYC:235 SL:82
F9A7  D0 11     BNE $F9BA                       A:00 X:55 Y:25 P:67 SP:F9 CYC:241 SL:82
F9A9  B8        CLV                             A:00 X:55 Y:25 P:67 SP:F9 CYC:247 SL:82
F9AA  A9 AA     LDA #$AA                        A:00 X:55 Y:25 P:27 SP:F9 CYC:253 SL:82
F9AC  60        RTS                             A:AA X:55 Y:25 P:A5 SP:F9 CYC:259 SL:82
DDDE  C8        INY                             A:AA X:55 Y:25 P:A5 SP:FB CYC:277 SL:82
DDDF  95 00     STA $00,X @ 55 = 00             A:AA X:55 Y:26 P:25 SP:FB CYC:283 SL:82
DDE1  56 00     LSR $00,X @ 55 = AA             A:AA X:55 Y:26 P:25 SP:FB CYC:295 SL:82
DDE3  B5 00     LDA $00,X @ 55 = 55             A:AA X:55 Y:26 P:24 SP:FB CYC:313 SL:82
DDE5  20 AD F9  JSR $F9AD                       A:55 X:55 Y:26 P:24 SP:FB CYC:325 SL:82
F9AD  B0 0B     BCS $F9BA                       A:55 X:55 Y:26 P:24 SP:F9 CYC:  2 SL:83
F9AF  F0 09     BEQ $F9BA                       A:55 X:55 Y:26 P:24 SP:F9 CYC:  8 SL:83
F9B1  30 07     BMI $F9BA                       A:55 X:55 Y:26 P:24 SP:F9 CYC: 14 SL:83
F9B3  70 05     BVS $F9BA                       A:55 X:55 Y:26 P:24 SP:F9 CYC: 20 SL:83
F9B5  C9 55     CMP #$55                        A:55 X:55 Y:26 P:24 SP:F9 CYC: 26 SL:83
F9B7  D0 01     BNE $F9BA                       A:55 X:55 Y:26 P:27 SP:F9 CYC: 32 SL:83
F9B9  60        RTS                             A:55 X:55 Y:26 P:27 SP:F9 CYC: 38 SL:83
DDE8  C8        INY                             A:55 X:55 Y:26 P:27 SP:FB CYC: 56 SL:83
DDE9  20 BD F9  JSR $F9BD                       A:55 X:55 Y:27 P:25 SP:FB CYC: 62 SL:83
F9BD  24 01     BIT $01 = FF                    A:55 X:55 Y:27 P:25 SP:F9 CYC: 80 SL:83
F9BF  38        SEC                             A:55 X:55 Y:27 P:E5 SP:F9 CYC: 89 SL:83
F9C0  A9 80     LDA #$80                        A:55 X:55 Y:27 P:E5 SP:F9 CYC: 95 SL:83
F9C2  60        RTS                             A:80 X:55 Y:27 P:E5 SP:F9 CYC:101 SL:83
DDEC  95 00     STA $00,X @ 55 = 55             A:80 X:55 Y:27 P:E5 SP:FB CYC:119 SL:83
DDEE  16 00     ASL $00,X @ 55 = 80             A:80 X:55 Y:27 P:E5 SP:FB CYC:131 SL:83
DDF0  B5 00     LDA $00,X @ 55 = 00             A:80 X:55 Y:27 P:67 SP:FB CYC:149 SL:83
DDF2  20 C3 F9  JSR $F9C3                       A:00 X:55 Y:27 P:67 SP:FB CYC:161 SL:83
F9C3  90 1C     BCC $F9E1                       A:00 X:55 Y:27 P:67 SP:F9 CYC:179 SL:83
F9C5  D0 1A     BNE $F9E1                       A:00 X:55 Y:27 P:67 SP:F9 CYC:185 SL:83
F9C7  30 18     BMI $F9E1                       A:00 X:55 Y:27 P:67 SP:F9 CYC:191 SL:83
F9C9  50 16     BVC $F9E1                       A:00 X:55 Y:27 P:67 SP:F9 CYC:197 SL:83
F9CB  C9 00     CMP #$00                        A:00 X:55 Y:27 P:67 SP:F9 CYC:203 SL:83
F9CD  D0 12     BNE $F9E1                       A:00 X:55 Y:27 P:67 SP:F9 CYC:209 SL:83
F9CF  B8        CLV                             A:00 X:55 Y:27 P:67 SP:F9 CYC:215 SL:83
F9D0  A9 55     LDA #$55                        A:00 X:55 Y:27 P:27 SP:F9 CYC:221 SL:83
F9D2  38        SEC                             A:55 X:55 Y:27 P:25 SP:F9 CYC:227 SL:83
F9D3  60        RTS                             A:55 X:55 Y:27 P:25 SP:F9 CYC:233 SL:83
DDF5  C8        INY                             A:55 X:55 Y:27 P:25 SP:FB CYC:251 SL:83
DDF6  95 00     STA $00,X @ 55 = 00             A:55 X:55 Y:28 P:25 SP:FB CYC:257 SL:83
DDF8  16 00     ASL $00,X @ 55 = 55             A:55 X:55 Y:28 P:25 SP:FB CYC:269 SL:83
DDFA  B5 00     LDA $00,X @ 55 = AA             A:55 X:55 Y:28 P:A4 SP:FB CYC:287 SL:83
DDFC  20 D4 F9  JSR $F9D4                       A:AA X:55 Y:28 P:A4 SP:FB CYC:299 SL:83
F9D4  B0 0B     BCS $F9E1                       A:AA X:55 Y:28 P:A4 SP:F9 CYC:317 SL:83
F9D6  F0 09     BEQ $F9E1                       A:AA X:55 Y:28 P:A4 SP:F9 CYC:323 SL:83
F9D8  10 07     BPL $F9E1                       A:AA X:55 Y:28 P:A4 SP:F9 CYC:329 SL:83
F9DA  70 05     BVS $F9E1                       A:AA X:55 Y:28 P:A4 SP:F9 CYC:335 SL:83
F9DC  C9 AA     CMP #$AA                        A:AA X:55 Y:28 P:A4 SP:F9 CYC:  0 SL:84
F9DE  D0 01     BNE $F9E1                       A:AA X:55 Y:28 P:27 SP:F9 CYC:  6 SL:84
F9E0  60        RTS                             A:AA X:55 Y:28 P:27 SP:F9 CYC: 12 SL:84
DDFF  C8        INY                             A:AA X:55 Y:28 P:27 SP:FB CYC: 30 SL:84
DE00  20 E4 F9  JSR $F9E4                       A:AA X:55 Y:29 P:25 SP:FB CYC: 36 SL:84
F9E4  24 01     BIT $01 = FF                    A:AA X:55 Y:29 P:25 SP:F9 CYC: 54 SL:84
F9E6  38        SEC                             A:AA X:55 Y:29 P:E5 SP:F9 CYC: 63 SL:84
F9E7  A9 01     LDA #$01                        A:AA X:55 Y:29 P:E5 SP:F9 CYC: 69 SL:84
F9E9  60        RTS                             A:01 X:55 Y:29 P:65 SP:F9 CYC: 75 SL:84
DE03  95 00     STA $00,X @ 55 = AA             A:01 X:55 Y:29 P:65 SP:FB CYC: 93 SL:84
DE05  76 00     ROR $00,X @ 55 = 01             A:01 X:55 Y:29 P:65 SP:FB CYC:105 SL:84
DE07  B5 00     LDA $00,X @ 55 = 80             A:01 X:55 Y:29 P:E5 SP:FB CYC:123 SL:84
DE09  20 EA F9  JSR $F9EA                       A:80 X:55 Y:29 P:E5 SP:FB CYC:135 SL:84
F9EA  90 1C     BCC $FA08                       A:80 X:55 Y:29 P:E5 SP:F9 CYC:153 SL:84
F9EC  F0 1A     BEQ $FA08                       A:80 X:55 Y:29 P:E5 SP:F9 CYC:159 SL:84
F9EE  10 18     BPL $FA08                       A:80 X:55 Y:29 P:E5 SP:F9 CYC:165 SL:84
F9F0  50 16     BVC $FA08                       A:80 X:55 Y:29 P:E5 SP:F9 CYC:171 SL:84
F9F2  C9 80     CMP #$80                        A:80 X:55 Y:29 P:E5 SP:F9 CYC:177 SL:84
F9F4  D0 12     BNE $FA08                       A:80 X:55 Y:29 P:67 SP:F9 CYC:183 SL:84
F9F6  B8        CLV                             A:80 X:55 Y:29 P:67 SP:F9 CYC:189 SL:84
F9F7  18        CLC                             A:80 X:55 Y:29 P:27 SP:F9 CYC:195 SL:84
F9F8  A9 55     LDA #$55                        A:80 X:55 Y:29 P:26 SP:F9 CYC:201 SL:84
F9FA  60        RTS                             A:55 X:55 Y:29 P:24 SP:F9 CYC:207 SL:84
DE0C  C8        INY                             A:55 X:55 Y:29 P:24 SP:FB CYC:225 SL:84
DE0D  95 00     STA $00,X @ 55 = 80             A:55 X:55 Y:2A P:24 SP:FB CYC:231 SL:84
DE0F  76 00     ROR $00,X @ 55 = 55             A:55 X:55 Y:2A P:24 SP:FB CYC:243 SL:84
DE11  B5 00     LDA $00,X @ 55 = 2A             A:55 X:55 Y:2A P:25 SP:FB CYC:261 SL:84
DE13  20 FB F9  JSR $F9FB                       A:2A X:55 Y:2A P:25 SP:FB CYC:273 SL:84
F9FB  90 0B     BCC $FA08                       A:2A X:55 Y:2A P:25 SP:F9 CYC:291 SL:84
F9FD  F0 09     BEQ $FA08                       A:2A X:55 Y:2A P:25 SP:F9 CYC:297 SL:84
F9FF  30 07     BMI $FA08                       A:2A X:55 Y:2A P:25 SP:F9 CYC:303 SL:84
FA01  70 05     BVS $FA08                       A:2A X:55 Y:2A P:25 SP:F9 CYC:309 SL:84
FA03  C9 2A     CMP #$2A                        A:2A X:55 Y:2A P:25 SP:F9 CYC:315 SL:84
FA05  D0 01     BNE $FA08                       A:2A X:55 Y:2A P:27 SP:F9 CYC:321 SL:84
FA07  60        RTS                             A:2A X:55 Y:2A P:27 SP:F9 CYC:327 SL:84
DE16  C8        INY                             A:2A X:55 Y:2A P:27 SP:FB CYC:  4 SL:85
DE17  20 0A FA  JSR $FA0A                       A:2A X:55 Y:2B P:25 SP:FB CYC: 10 SL:85
FA0A  24 01     BIT $01 = FF                    A:2A X:55 Y:2B P:25 SP:F9 CYC: 28 SL:85
FA0C  38        SEC                             A:2A X:55 Y:2B P:E5 SP:F9 CYC: 37 SL:85
FA0D  A9 80     LDA #$80                        A:2A X:55 Y:2B P:E5 SP:F9 CYC: 43 SL:85
FA0F  60        RTS                             A:80 X:55 Y:2B P:E5 SP:F9 CYC: 49 SL:85
DE1A  95 00     STA $00,X @ 55 = 2A             A:80 X:55 Y:2B P:E5 SP:FB CYC: 67 SL:85
DE1C  36 00     ROL $00,X @ 55 = 80             A:80 X:55 Y:2B P:E5 SP:FB CYC: 79 SL:85
DE1E  B5 00     LDA $00,X @ 55 = 01             A:80 X:55 Y:2B P:65 SP:FB CYC: 97 SL:85
DE20  20 10 FA  JSR $FA10                       A:01 X:55 Y:2B P:65 SP:FB CYC:109 SL:85
FA10  90 1C     BCC $FA2E                       A:01 X:55 Y:2B P:65 SP:F9 CYC:127 SL:85
FA12  F0 1A     BEQ $FA2E                       A:01 X:55 Y:2B P:65 SP:F9 CYC:133 SL:85
FA14  30 18     BMI $FA2E                       A:01 X:55 Y:2B P:65 SP:F9 CYC:139 SL:85
FA16  50 16     BVC $FA2E                       A:01 X:55 Y:2B P:65 SP:F9 CYC:145 SL:85
FA18  C9 01     CMP #$01                        A:01 X:55 Y:2B P:65 SP:F9 CYC:151 SL:85
FA1A  D0 12     BNE $FA2E                       A:01 X:55 Y:2B P:67 SP:F9 CYC:157 SL:85
FA1C  B8        CLV                             A:01 X:55 Y:2B P:67 SP:F9 CYC:163 SL:85
FA1D  18        CLC                             A:01 X:55 Y:2B P:27 SP:F9 CYC:169 SL:85
FA1E  A9 55     LDA #$55                        A:01 X:55 Y:2B P:26 SP:F9 CYC:175 SL:85
FA20  60        RTS                             A:55 X:55 Y:2B P:24 SP:F9 CYC:181 SL:85
DE23  C8        INY                             A:55 X:55 Y:2B P:24 SP:FB CYC:199 SL:85
DE24  95 00     STA $00,X @ 55 = 01             A:55 X:55 Y:2C P:24 SP:FB CYC:205 SL:85
DE26  36 00     ROL $00,X @ 55 = 55             A:55 X:55 Y:2C P:24 SP:FB CYC:217 SL:85
DE28  B5 00     LDA $00,X @ 55 = AA             A:55 X:55 Y:2C P:A4 SP:FB CYC:235 SL:85
DE2A  20 21 FA  JSR $FA21                       A:AA X:55 Y:2C P:A4 SP:FB CYC:247 SL:85
FA21  B0 0B     BCS $FA2E                       A:AA X:55 Y:2C P:A4 SP:F9 CYC:265 SL:85
FA23  F0 09     BEQ $FA2E                       A:AA X:55 Y:2C P:A4 SP:F9 CYC:271 SL:85
FA25  10 07     BPL $FA2E                       A:AA X:55 Y:2C P:A4 SP:F9 CYC:277 SL:85
FA27  70 05     BVS $FA2E                       A:AA X:55 Y:2C P:A4 SP:F9 CYC:283 SL:85
FA29  C9 AA     CMP #$AA                        A:AA X:55 Y:2C P:A4 SP:F9 CYC:289 SL:85
FA2B  D0 01     BNE $FA2E                       A:AA X:55 Y:2C P:27 SP:F9 CYC:295 SL:85
FA2D  60        RTS                             A:AA X:55 Y:2C P:27 SP:F9 CYC:301 SL:85
DE2D  A9 FF     LDA #$FF                        A:AA X:55 Y:2C P:27 SP:FB CYC:319 SL:85
DE2F  95 00     STA $00,X @ 55 = AA             A:FF X:55 Y:2C P:A5 SP:FB CYC:325 SL:85
DE31  85 01     STA $01 = FF                    A:FF X:55 Y:2C P:A5 SP:FB CYC:337 SL:85
DE33  24 01     BIT $01 = FF                    A:FF X:55 Y:2C P:A5 SP:FB CYC:  5 SL:86
DE35  38        SEC                             A:FF X:55 Y:2C P:E5 SP:FB CYC: 14 SL:86
DE36  F6 00     INC $00,X @ 55 = FF             A:FF X:55 Y:2C P:E5 SP:FB CYC: 20 SL:86
DE38  D0 0C     BNE $DE46                       A:FF X:55 Y:2C P:67 SP:FB CYC: 38 SL:86
DE3A  30 0A     BMI $DE46                       A:FF X:55 Y:2C P:67 SP:FB CYC: 44 SL:86
DE3C  50 08     BVC $DE46                       A:FF X:55 Y:2C P:67 SP:FB CYC: 50 SL:86
DE3E  90 06     BCC $DE46                       A:FF X:55 Y:2C P:67 SP:FB CYC: 56 SL:86
DE40  B5 00     LDA $00,X @ 55 = 00             A:FF X:55 Y:2C P:67 SP:FB CYC: 62 SL:86
DE42  C9 00     CMP #$00                        A:00 X:55 Y:2C P:67 SP:FB CYC: 74 SL:86
DE44  F0 04     BEQ $DE4A                       A:00 X:55 Y:2C P:67 SP:FB CYC: 80 SL:86
DE4A  A9 7F     LDA #$7F                        A:00 X:55 Y:2C P:67 SP:FB CYC: 89 SL:86
DE4C  95 00     STA $00,X @ 55 = 00             A:7F X:55 Y:2C P:65 SP:FB CYC: 95 SL:86
DE4E  B8        CLV                             A:7F X:55 Y:2C P:65 SP:FB CYC:107 SL:86
DE4F  18        CLC                             A:7F X:55 Y:2C P:25 SP:FB CYC:113 SL:86
DE50  F6 00     INC $00,X @ 55 = 7F             A:7F X:55 Y:2C P:24 SP:FB CYC:119 SL:86
DE52  F0 0C     BEQ $DE60                       A:7F X:55 Y:2C P:A4 SP:FB CYC:137 SL:86
DE54  10 0A     BPL $DE60                       A:7F X:55 Y:2C P:A4 SP:FB CYC:143 SL:86
DE56  70 08     BVS $DE60                       A:7F X:55 Y:2C P:A4 SP:FB CYC:149 SL:86
DE58  B0 06     BCS $DE60                       A:7F X:55 Y:2C P:A4 SP:FB CYC:155 SL:86
DE5A  B5 00     LDA $00,X @ 55 = 80             A:7F X:55 Y:2C P:A4 SP:FB CYC:161 SL:86
DE5C  C9 80     CMP #$80                        A:80 X:55 Y:2C P:A4 SP:FB CYC:173 SL:86
DE5E  F0 04     BEQ $DE64                       A:80 X:55 Y:2C P:27 SP:FB CYC:179 SL:86
DE64  A9 00     LDA #$00                        A:80 X:55 Y:2C P:27 SP:FB CYC:188 SL:86
DE66  95 00     STA $00,X @ 55 = 80             A:00 X:55 Y:2C P:27 SP:FB CYC:194 SL:86
DE68  24 01     BIT $01 = FF                    A:00 X:55 Y:2C P:27 SP:FB CYC:206 SL:86
DE6A  38        SEC                             A:00 X:55 Y:2C P:E7 SP:FB CYC:215 SL:86
DE6B  D6 00     DEC $00,X @ 55 = 00             A:00 X:55 Y:2C P:E7 SP:FB CYC:221 SL:86
DE6D  F0 0C     BEQ $DE7B                       A:00 X:55 Y:2C P:E5 SP:FB CYC:239 SL:86
DE6F  10 0A     BPL $DE7B                       A:00 X:55 Y:2C P:E5 SP:FB CYC:245 SL:86
DE71  50 08     BVC $DE7B                       A:00 X:55 Y:2C P:E5 SP:FB CYC:251 SL:86
DE73  90 06     BCC $DE7B                       A:00 X:55 Y:2C P:E5 SP:FB CYC:257 SL:86
DE75  B5 00     LDA $00,X @ 55 = FF             A:00 X:55 Y:2C P:E5 SP:FB CYC:263 SL:86
DE77  C9 FF     CMP #$FF                        A:FF X:55 Y:2C P:E5 SP:FB CYC:275 SL:86
DE79  F0 04     BEQ $DE7F                       A:FF X:55 Y:2C P:67 SP:FB CYC:281 SL:86
DE7F  A9 80     LDA #$80                        A:FF X:55 Y:2C P:67 SP:FB CYC:290 SL:86
DE81  95 00     STA $00,X @ 55 = FF             A:80 X:55 Y:2C P:E5 SP:FB CYC:296 SL:86
DE83  B8        CLV                             A:80 X:55 Y:2C P:E5 SP:FB CYC:308 SL:86
DE84  18        CLC                             A:80 X:55 Y:2C P:A5 SP:FB CYC:314 SL:86
DE85  D6 00     DEC $00,X @ 55 = 80             A:80 X:55 Y:2C P:A4 SP:FB CYC:320 SL:86
DE87  F0 0C     BEQ $DE95                       A:80 X:55 Y:2C P:24 SP:FB CYC:338 SL:86
DE89  30 0A     BMI $DE95                       A:80 X:55 Y:2C P:24 SP:FB CYC:  3 SL:87
DE8B  70 08     BVS $DE95                       A:80 X:55 Y:2C P:24 SP:FB CYC:  9 SL:87
DE8D  B0 06     BCS $DE95                       A:80 X:55 Y:2C P:24 SP:FB CYC: 15 SL:87
DE8F  B5 00     LDA $00,X @ 55 = 7F             A:80 X:55 Y:2C P:24 SP:FB CYC: 21 SL:87
DE91  C9 7F     CMP #$7F                        A:7F X:55 Y:2C P:24 SP:FB CYC: 33 SL:87
DE93  F0 04     BEQ $DE99                       A:7F X:55 Y:2C P:27 SP:FB CYC: 39 SL:87
DE99  A9 01     LDA #$01                        A:7F X:55 Y:2C P:27 SP:FB CYC: 48 SL:87
DE9B  95 00     STA $00,X @ 55 = 7F             A:01 X:55 Y:2C P:25 SP:FB CYC: 54 SL:87
DE9D  D6 00     DEC $00,X @ 55 = 01             A:01 X:55 Y:2C P:25 SP:FB CYC: 66 SL:87
DE9F  F0 04     BEQ $DEA5                       A:01 X:55 Y:2C P:27 SP:FB CYC: 84 SL:87
DEA5  A9 33     LDA #$33                        A:01 X:55 Y:2C P:27 SP:FB CYC: 93 SL:87
DEA7  85 78     STA $78 = 7F                    A:33 X:55 Y:2C P:25 SP:FB CYC: 99 SL:87
DEA9  A9 44     LDA #$44                        A:33 X:55 Y:2C P:25 SP:FB CYC:108 SL:87
DEAB  A0 78     LDY #$78                        A:44 X:55 Y:2C P:25 SP:FB CYC:114 SL:87
DEAD  A2 00     LDX #$00                        A:44 X:55 Y:78 P:25 SP:FB CYC:120 SL:87
DEAF  38        SEC                             A:44 X:00 Y:78 P:27 SP:FB CYC:126 SL:87
DEB0  24 01     BIT $01 = FF                    A:44 X:00 Y:78 P:27 SP:FB CYC:132 SL:87
DEB2  B6 00     LDX $00,Y @ 78 = 33             A:44 X:00 Y:78 P:E5 SP:FB CYC:141 SL:87
DEB4  90 12     BCC $DEC8                       A:44 X:33 Y:78 P:65 SP:FB CYC:153 SL:87
DEB6  50 10     BVC $DEC8                       A:44 X:33 Y:78 P:65 SP:FB CYC:159 SL:87
DEB8  30 0E     BMI $DEC8                       A:44 X:33 Y:78 P:65 SP:FB CYC:165 SL:87
DEBA  F0 0C     BEQ $DEC8                       A:44 X:33 Y:78 P:65 SP:FB CYC:171 SL:87
DEBC  E0 33     CPX #$33                        A:44 X:33 Y:78 P:65 SP:FB CYC:177 SL:87
DEBE  D0 08     BNE $DEC8                       A:44 X:33 Y:78 P:67 SP:FB CYC:183 SL:87
DEC0  C0 78     CPY #$78                        A:44 X:33 Y:78 P:67 SP:FB CYC:189 SL:87
DEC2  D0 04     BNE $DEC8                       A:44 X:33 Y:78 P:67 SP:FB CYC:195 SL:87
DEC4  C9 44     CMP #$44                        A:44 X:33 Y:78 P:67 SP:FB CYC:201 SL:87
DEC6  F0 04     BEQ $DECC                       A:44 X:33 Y:78 P:67 SP:FB CYC:207 SL:87
DECC  A9 97     LDA #$97                        A:44 X:33 Y:78 P:67 SP:FB CYC:216 SL:87
DECE  85 7F     STA $7F = 00                    A:97 X:33 Y:78 P:E5 SP:FB CYC:222 SL:87
DED0  A9 47     LDA #$47                        A:97 X:33 Y:78 P:E5 SP:FB CYC:231 SL:87
DED2  A0 FF     LDY #$FF                        A:47 X:33 Y:78 P:65 SP:FB CYC:237 SL:87
DED4  A2 00     LDX #$00                        A:47 X:33 Y:FF P:E5 SP:FB CYC:243 SL:87
DED6  18        CLC                             A:47 X:00 Y:FF P:67 SP:FB CYC:249 SL:87
DED7  B8        CLV                             A:47 X:00 Y:FF P:66 SP:FB CYC:255 SL:87
DED8  B6 80     LDX $80,Y @ 7F = 97             A:47 X:00 Y:FF P:26 SP:FB CYC:261 SL:87
DEDA  B0 12     BCS $DEEE                       A:47 X:97 Y:FF P:A4 SP:FB CYC:273 SL:87
DEDC  70 10     BVS $DEEE                       A:47 X:97 Y:FF P:A4 SP:FB CYC:279 SL:87
DEDE  10 0E     BPL $DEEE                       A:47 X:97 Y:FF P:A4 SP:FB CYC:285 SL:87
DEE0  F0 0C     BEQ $DEEE                       A:47 X:97 Y:FF P:A4 SP:FB CYC:291 SL:87
DEE2  E0 97     CPX #$97                        A:47 X:97 Y:FF P:A4 SP:FB CYC:297 SL:87
DEE4  D0 08     BNE $DEEE                       A:47 X:97 Y:FF P:27 SP:FB CYC:303 SL:87
DEE6  C0 FF     CPY #$FF                        A:47 X:97 Y:FF P:27 SP:FB CYC:309 SL:87
DEE8  D0 04     BNE $DEEE                       A:47 X:97 Y:FF P:27 SP:FB CYC:315 SL:87
DEEA  C9 47     CMP #$47                        A:47 X:97 Y:FF P:27 SP:FB CYC:321 SL:87
DEEC  F0 04     BEQ $DEF2                       A:47 X:97 Y:FF P:27 SP:FB CYC:327 SL:87
DEF2  A9 00     LDA #$00                        A:47 X:97 Y:FF P:27 SP:FB CYC:336 SL:87
DEF4  85 7F     STA $7F = 97                    A:00 X:97 Y:FF P:27 SP:FB CYC:  1 SL:88
DEF6  A9 47     LDA #$47                        A:00 X:97 Y:FF P:27 SP:FB CYC: 10 SL:88
DEF8  A0 FF     LDY #$FF                        A:47 X:97 Y:FF P:25 SP:FB CYC: 16 SL:88
DEFA  A2 69     LDX #$69                        A:47 X:97 Y:FF P:A5 SP:FB CYC: 22 SL:88
DEFC  18        CLC                             A:47 X:69 Y:FF P:25 SP:FB CYC: 28 SL:88
DEFD  B8        CLV                             A:47 X:69 Y:FF P:24 SP:FB CYC: 34 SL:88
DEFE  96 80     STX $80,Y @ 7F = 00             A:47 X:69 Y:FF P:24 SP:FB CYC: 40 SL:88
DF00  B0 18     BCS $DF1A                       A:47 X:69 Y:FF P:24 SP:FB CYC: 52 SL:88
DF02  70 16     BVS $DF1A                       A:47 X:69 Y:FF P:24 SP:FB CYC: 58 SL:88
DF04  30 14     BMI $DF1A                       A:47 X:69 Y:FF P:24 SP:FB CYC: 64 SL:88
DF06  F0 12     BEQ $DF1A                       A:47 X:69 Y:FF P:24 SP:FB CYC: 70 SL:88
DF08  E0 69     CPX #$69                        A:47 X:69 Y:FF P:24 SP:FB CYC: 76 SL:88
DF0A  D0 0E     BNE $DF1A                       A:47 X:69 Y:FF P:27 SP:FB CYC: 82 SL:88
DF0C  C0 FF     CPY #$FF                        A:47 X:69 Y:FF P:27 SP:FB CYC: 88 SL:88
DF0E  D0 0A     BNE $DF1A                       A:47 X:69 Y:FF P:27 SP:FB CYC: 94 SL:88
DF10  C9 47     CMP #$47                        A:47 X:69 Y:FF P:27 SP:FB CYC:100 SL:88
DF12  D0 06     BNE $DF1A                       A:47 X:69 Y:FF P:27 SP:FB CYC:106 SL:88
DF14  A5 7F     LDA $7F = 69                    A:47 X:69 Y:FF P:27 SP:FB CYC:112 SL:88
DF16  C9 69     CMP #$69                        A:69 X:69 Y:FF P:25 SP:FB CYC:121 SL:88
DF18  F0 04     BEQ $DF1E                       A:69 X:69 Y:FF P:27 SP:FB CYC:127 SL:88
DF1E  A9 F5     LDA #$F5                        A:69 X:69 Y:FF P:27 SP:FB CYC:136 SL:88
DF20  85 4F     STA $4F = 00                    A:F5 X:69 Y:FF P:A5 SP:FB CYC:142 SL:88
DF22  A9 47     LDA #$47                        A:F5 X:69 Y:FF P:A5 SP:FB CYC:151 SL:88
DF24  A0 4F     LDY #$4F                        A:47 X:69 Y:FF P:25 SP:FB CYC:157 SL:88
DF26  24 01     BIT $01 = FF                    A:47 X:69 Y:4F P:25 SP:FB CYC:163 SL:88
DF28  A2 00     LDX #$00                        A:47 X:69 Y:4F P:E5 SP:FB CYC:172 SL:88
DF2A  38        SEC                             A:47 X:00 Y:4F P:67 SP:FB CYC:178 SL:88
DF2B  96 00     STX $00,Y @ 4F = F5             A:47 X:00 Y:4F P:67 SP:FB CYC:184 SL:88
DF2D  90 16     BCC $DF45                       A:47 X:00 Y:4F P:67 SP:FB CYC:196 SL:88
DF2F  50 14     BVC $DF45                       A:47 X:00 Y:4F P:67 SP:FB CYC:202 SL:88
DF31  30 12     BMI $DF45                       A:47 X:00 Y:4F P:67 SP:FB CYC:208 SL:88
DF33  D0 10     BNE $DF45                       A:47 X:00 Y:4F P:67 SP:FB CYC:214 SL:88
DF35  E0 00     CPX #$00                        A:47 X:00 Y:4F P:67 SP:FB CYC:220 SL:88
DF37  D0 0C     BNE $DF45                       A:47 X:00 Y:4F P:67 SP:FB CYC:226 SL:88
DF39  C0 4F     CPY #$4F                        A:47 X:00 Y:4F P:67 SP:FB CYC:232 SL:88
DF3B  D0 08     BNE $DF45                       A:47 X:00 Y:4F P:67 SP:FB CYC:238 SL:88
DF3D  C9 47     CMP #$47                        A:47 X:00 Y:4F P:67 SP:FB CYC:244 SL:88
DF3F  D0 04     BNE $DF45                       A:47 X:00 Y:4F P:67 SP:FB CYC:250 SL:88
DF41  A5 4F     LDA $4F = 00                    A:47 X:00 Y:4F P:67 SP:FB CYC:256 SL:88
DF43  F0 04     BEQ $DF49                       A:00 X:00 Y:4F P:67 SP:FB CYC:265 SL:88
DF49  60        RTS                             A:00 X:00 Y:4F P:67 SP:FB CYC:274 SL:88
C62C  20 AA E1  JSR $E1AA                       A:00 X:00 Y:4F P:67 SP:FD CYC:292 SL:88
E1AA  A9 FF     LDA #$FF                        A:00 X:00 Y:4F P:67 SP:FB CYC:310 SL:88
E1AC  85 01     STA $01 = FF                    A:FF X:00 Y:4F P:E5 SP:FB CYC:316 SL:88
E1AE  A9 AA     LDA #$AA                        A:FF X:00 Y:4F P:E5 SP:FB CYC:325 SL:88
E1B0  8D 33 06  STA $0633 = 00                  A:AA X:00 Y:4F P:E5 SP:FB CYC:331 SL:88
E1B3  A9 BB     LDA #$BB                        A:AA X:00 Y:4F P:E5 SP:FB CYC:  2 SL:89
E1B5  8D 89 06  STA $0689 = 00                  A:BB X:00 Y:4F P:E5 SP:FB CYC:  8 SL:89
E1B8  A2 00     LDX #$00                        A:BB X:00 Y:4F P:E5 SP:FB CYC: 20 SL:89
E1BA  A9 66     LDA #$66                        A:BB X:00 Y:4F P:67 SP:FB CYC: 26 SL:89
E1BC  24 01     BIT $01 = FF                    A:66 X:00 Y:4F P:65 SP:FB CYC: 32 SL:89
E1BE  38        SEC                             A:66 X:00 Y:4F P:E5 SP:FB CYC: 41 SL:89
E1BF  A0 00     LDY #$00                        A:66 X:00 Y:4F P:E5 SP:FB CYC: 47 SL:89
E1C1  BC 33 06  LDY $0633,X @ 0633 = AA         A:66 X:00 Y:00 P:67 SP:FB CYC: 53 SL:89
E1C4  10 12     BPL $E1D8                       A:66 X:00 Y:AA P:E5 SP:FB CYC: 65 SL:89
E1C6  F0 10     BEQ $E1D8                       A:66 X:00 Y:AA P:E5 SP:FB CYC: 71 SL:89
E1C8  50 0E     BVC $E1D8                       A:66 X:00 Y:AA P:E5 SP:FB CYC: 77 SL:89
E1CA  90 0C     BCC $E1D8                       A:66 X:00 Y:AA P:E5 SP:FB CYC: 83 SL:89
E1CC  C9 66     CMP #$66                        A:66 X:00 Y:AA P:E5 SP:FB CYC: 89 SL:89
E1CE  D0 08     BNE $E1D8                       A:66 X:00 Y:AA P:67 SP:FB CYC: 95 SL:89
E1D0  E0 00     CPX #$00                        A:66 X:00 Y:AA P:67 SP:FB CYC:101 SL:89
E1D2  D0 04     BNE $E1D8                       A:66 X:00 Y:AA P:67 SP:FB CYC:107 SL:89
E1D4  C0 AA     CPY #$AA                        A:66 X:00 Y:AA P:67 SP:FB CYC:113 SL:89
E1D6  F0 04     BEQ $E1DC                       A:66 X:00 Y:AA P:67 SP:FB CYC:119 SL:89
E1DC  A2 8A     LDX #$8A                        A:66 X:00 Y:AA P:67 SP:FB CYC:128 SL:89
E1DE  A9 66     LDA #$66                        A:66 X:8A Y:AA P:E5 SP:FB CYC:134 SL:89
E1E0  B8        CLV                             A:66 X:8A Y:AA P:65 SP:FB CYC:140 SL:89
E1E1  18        CLC                             A:66 X:8A Y:AA P:25 SP:FB CYC:146 SL:89
E1E2  A0 00     LDY #$00                        A:66 X:8A Y:AA P:24 SP:FB CYC:152 SL:89
E1E4  BC FF 05  LDY $05FF,X @ 0689 = BB         A:66 X:8A Y:00 P:26 SP:FB CYC:158 SL:89
E1E7  10 12     BPL $E1FB                       A:66 X:8A Y:BB P:A4 SP:FB CYC:173 SL:89
E1E9  F0 10     BEQ $E1FB                       A:66 X:8A Y:BB P:A4 SP:FB CYC:179 SL:89
E1EB  70 0E     BVS $E1FB                       A:66 X:8A Y:BB P:A4 SP:FB CYC:185 SL:89
E1ED  B0 0C     BCS $E1FB                       A:66 X:8A Y:BB P:A4 SP:FB CYC:191 SL:89
E1EF  C0 BB     CPY #$BB                        A:66 X:8A Y:BB P:A4 SP:FB CYC:197 SL:89
E1F1  D0 08     BNE $E1FB                       A:66 X:8A Y:BB P:27 SP:FB CYC:203 SL:89
E1F3  C9 66     CMP #$66                        A:66 X:8A Y:BB P:27 SP:FB CYC:209 SL:89
E1F5  D0 04     BNE $E1FB                       A:66 X:8A Y:BB P:27 SP:FB CYC:215 SL:89
E1F7  E0 8A     CPX #$8A                        A:66 X:8A Y:BB P:27 SP:FB CYC:221 SL:89
E1F9  F0 04     BEQ $E1FF                       A:66 X:8A Y:BB P:27 SP:FB CYC:227 SL:89
E1FF  A0 53     LDY #$53                        A:66 X:8A Y:BB P:27 SP:FB CYC:236 SL:89
E201  A9 AA     LDA #$AA                        A:66 X:8A Y:53 P:25 SP:FB CYC:242 SL:89
E203  A2 78     LDX #$78                        A:AA X:8A Y:53 P:A5 SP:FB CYC:248 SL:89
E205  8D 78 06  STA $0678 = 00                  A:AA X:78 Y:53 P:25 SP:FB CYC:254 SL:89
E208  20 B6 F7  JSR $F7B6                       A:AA X:78 Y:53 P:25 SP:FB CYC:266 SL:89
F7B6  18        CLC                             A:AA X:78 Y:53 P:25 SP:F9 CYC:284 SL:89
F7B7  A9 FF     LDA #$FF                        A:AA X:78 Y:53 P:24 SP:F9 CYC:290 SL:89
F7B9  85 01     STA $01 = FF                    A:FF X:78 Y:53 P:A4 SP:F9 CYC:296 SL:89
F7BB  24 01     BIT $01 = FF                    A:FF X:78 Y:53 P:A4 SP:F9 CYC:305 SL:89
F7BD  A9 55     LDA #$55                        A:FF X:78 Y:53 P:E4 SP:F9 CYC:314 SL:89
F7BF  60        RTS                             A:55 X:78 Y:53 P:64 SP:F9 CYC:320 SL:89
E20B  1D 00 06  ORA $0600,X @ 0678 = AA         A:55 X:78 Y:53 P:64 SP:FB CYC:338 SL:89
E20E  20 C0 F7  JSR $F7C0                       A:FF X:78 Y:53 P:E4 SP:FB CYC:  9 SL:90
F7C0  B0 09     BCS $F7CB                       A:FF X:78 Y:53 P:E4 SP:F9 CYC: 27 SL:90
F7C2  10 07     BPL $F7CB                       A:FF X:78 Y:53 P:E4 SP:F9 CYC: 33 SL:90
F7C4  C9 FF     CMP #$FF                        A:FF X:78 Y:53 P:E4 SP:F9 CYC: 39 SL:90
F7C6  D0 03     BNE $F7CB                       A:FF X:78 Y:53 P:67 SP:F9 CYC: 45 SL:90
F7C8  50 01     BVC $F7CB                       A:FF X:78 Y:53 P:67 SP:F9 CYC: 51 SL:90
F7CA  60        RTS                             A:FF X:78 Y:53 P:67 SP:F9 CYC: 57 SL:90
E211  C8        INY                             A:FF X:78 Y:53 P:67 SP:FB CYC: 75 SL:90
E212  A9 00     LDA #$00                        A:FF X:78 Y:54 P:65 SP:FB CYC: 81 SL:90
E214  8D 78 06  STA $0678 = AA                  A:00 X:78 Y:54 P:67 SP:FB CYC: 87 SL:90
E217  20 CE F7  JSR $F7CE                       A:00 X:78 Y:54 P:67 SP:FB CYC: 99 SL:90
F7CE  38        SEC                             A:00 X:78 Y:54 P:67 SP:F9 CYC:117 SL:90
F7CF  B8        CLV                             A:00 X:78 Y:54 P:67 SP:F9 CYC:123 SL:90
F7D0  A9 00     LDA #$00                        A:00 X:78 Y:54 P:27 SP:F9 CYC:129 SL:90
F7D2  60        RTS                             A:00 X:78 Y:54 P:27 SP:F9 CYC:135 SL:90
E21A  1D 00 06  ORA $0600,X @ 0678 = 00         A:00 X:78 Y:54 P:27 SP:FB CYC:153 SL:90
E21D  20 D3 F7  JSR $F7D3                       A:00 X:78 Y:54 P:27 SP:FB CYC:165 SL:90
F7D3  D0 07     BNE $F7DC                       A:00 X:78 Y:54 P:27 SP:F9 CYC:183 SL:90
F7D5  70 05     BVS $F7DC                       A:00 X:78 Y:54 P:27 SP:F9 CYC:189 SL:90
F7D7  90 03     BCC $F7DC                       A:00 X:78 Y:54 P:27 SP:F9 CYC:195 SL:90
F7D9  30 01     BMI $F7DC                       A:00 X:78 Y:54 P:27 SP:F9 CYC:201 SL:90
F7DB  60        RTS                             A:00 X:78 Y:54 P:27 SP:F9 CYC:207 SL:90
E220  C8        INY                             A:00 X:78 Y:54 P:27 SP:FB CYC:225 SL:90
E221  A9 AA     LDA #$AA                        A:00 X:78 Y:55 P:25 SP:FB CYC:231 SL:90
E223  8D 78 06  STA $0678 = 00                  A:AA X:78 Y:55 P:A5 SP:FB CYC:237 SL:90
E226  20 DF F7  JSR $F7DF                       A:AA X:78 Y:55 P:A5 SP:FB CYC:249 SL:90
F7DF  18        CLC                             A:AA X:78 Y:55 P:A5 SP:F9 CYC:267 SL:90
F7E0  24 01     BIT $01 = FF                    A:AA X:78 Y:55 P:A4 SP:F9 CYC:273 SL:90
F7E2  A9 55     LDA #$55                        A:AA X:78 Y:55 P:E4 SP:F9 CYC:282 SL:90
F7E4  60        RTS                             A:55 X:78 Y:55 P:64 SP:F9 CYC:288 SL:90
E229  3D 00 06  AND $0600,X @ 0678 = AA         A:55 X:78 Y:55 P:64 SP:FB CYC:306 SL:90
E22C  20 E5 F7  JSR $F7E5                       A:00 X:78 Y:55 P:66 SP:FB CYC:318 SL:90
F7E5  D0 07     BNE $F7EE                       A:00 X:78 Y:55 P:66 SP:F9 CYC:336 SL:90
F7E7  50 05     BVC $F7EE                       A:00 X:78 Y:55 P:66 SP:F9 CYC:  1 SL:91
F7E9  B0 03     BCS $F7EE                       A:00 X:78 Y:55 P:66 SP:F9 CYC:  7 SL:91
F7EB  30 01     BMI $F7EE                       A:00 X:78 Y:55 P:66 SP:F9 CYC: 13 SL:91
F7ED  60        RTS                             A:00 X:78 Y:55 P:66 SP:F9 CYC: 19 SL:91
E22F  C8        INY                             A:00 X:78 Y:55 P:66 SP:FB CYC: 37 SL:91
E230  A9 EF     LDA #$EF                        A:00 X:78 Y:56 P:64 SP:FB CYC: 43 SL:91
E232  8D 78 06  STA $0678 = AA                  A:EF X:78 Y:56 P:E4 SP:FB CYC: 49 SL:91
E235  20 F1 F7  JSR $F7F1                       A:EF X:78 Y:56 P:E4 SP:FB CYC: 61 SL:91
F7F1  38        SEC                             A:EF X:78 Y:56 P:E4 SP:F9 CYC: 79 SL:91
F7F2  B8        CLV                             A:EF X:78 Y:56 P:E5 SP:F9 CYC: 85 SL:91
F7F3  A9 F8     LDA #$F8                        A:EF X:78 Y:56 P:A5 SP:F9 CYC: 91 SL:91
F7F5  60        RTS                             A:F8 X:78 Y:56 P:A5 SP:F9 CYC: 97 SL:91
E238  3D 00 06  AND $0600,X @ 0678 = EF         A:F8 X:78 Y:56 P:A5 SP:FB CYC:115 SL:91
E23B  20 F6 F7  JSR $F7F6                       A:E8 X:78 Y:56 P:A5 SP:FB CYC:127 SL:91
F7F6  90 09     BCC $F801                       A:E8 X:78 Y:56 P:A5 SP:F9 CYC:145 SL:91
F7F8  10 07     BPL $F801                       A:E8 X:78 Y:56 P:A5 SP:F9 CYC:151 SL:91
F7FA  C9 E8     CMP #$E8                        A:E8 X:78 Y:56 P:A5 SP:F9 CYC:157 SL:91
F7FC  D0 03     BNE $F801                       A:E8 X:78 Y:56 P:27 SP:F9 CYC:163 SL:91
F7FE  70 01     BVS $F801                       A:E8 X:78 Y:56 P:27 SP:F9 CYC:169 SL:91
F800  60        RTS                             A:E8 X:78 Y:56 P:27 SP:F9 CYC:175 SL:91
E23E  C8        INY                             A:E8 X:78 Y:56 P:27 SP:FB CYC:193 SL:91
E23F  A9 AA     LDA #$AA                        A:E8 X:78 Y:57 P:25 SP:FB CYC:199 SL:91
E241  8D 78 06  STA $0678 = EF                  A:AA X:78 Y:57 P:A5 SP:FB CYC:205 SL:91
E244  20 04 F8  JSR $F804                       A:AA X:78 Y:57 P:A5 SP:FB CYC:217 SL:91
F804  18        CLC                             A:AA X:78 Y:57 P:A5 SP:F9 CYC:235 SL:91
F805  24 01     BIT $01 = FF                    A:AA X:78 Y:57 P:A4 SP:F9 CYC:241 SL:91
F807  A9 5F     LDA #$5F                        A:AA X:78 Y:57 P:E4 SP:F9 CYC:250 SL:91
F809  60        RTS                             A:5F X:78 Y:57 P:64 SP:F9 CYC:256 SL:91
E247  5D 00 06  EOR $0600,X @ 0678 = AA         A:5F X:78 Y:57 P:64 SP:FB CYC:274 SL:91
E24A  20 0A F8  JSR $F80A                       A:F5 X:78 Y:57 P:E4 SP:FB CYC:286 SL:91
F80A  B0 09     BCS $F815                       A:F5 X:78 Y:57 P:E4 SP:F9 CYC:304 SL:91
F80C  10 07     BPL $F815                       A:F5 X:78 Y:57 P:E4 SP:F9 CYC:310 SL:91
F80E  C9 F5     CMP #$F5                        A:F5 X:78 Y:57 P:E4 SP:F9 CYC:316 SL:91
F810  D0 03     BNE $F815                       A:F5 X:78 Y:57 P:67 SP:F9 CYC:322 SL:91
F812  50 01     BVC $F815                       A:F5 X:78 Y:57 P:67 SP:F9 CYC:328 SL:91
F814  60        RTS                             A:F5 X:78 Y:57 P:67 SP:F9 CYC:334 SL:91
E24D  C8        INY                             A:F5 X:78 Y:57 P:67 SP:FB CYC: 11 SL:92
E24E  A9 70     LDA #$70                        A:F5 X:78 Y:58 P:65 SP:FB CYC: 17 SL:92
E250  8D 78 06  STA $0678 = AA                  A:70 X:78 Y:58 P:65 SP:FB CYC: 23 SL:92
E253  20 18 F8  JSR $F818                       A:70 X:78 Y:58 P:65 SP:FB CYC: 35 SL:92
F818  38        SEC                             A:70 X:78 Y:58 P:65 SP:F9 CYC: 53 SL:92
F819  B8        CLV                             A:70 X:78 Y:58 P:65 SP:F9 CYC: 59 SL:92
F81A  A9 70     LDA #$70                        A:70 X:78 Y:58 P:25 SP:F9 CYC: 65 SL:92
F81C  60        RTS                             A:70 X:78 Y:58 P:25 SP:F9 CYC: 71 SL:92
E256  5D 00 06  EOR $0600,X @ 0678 = 70         A:70 X:78 Y:58 P:25 SP:FB CYC: 89 SL:92
E259  20 1D F8  JSR $F81D                       A:00 X:78 Y:58 P:27 SP:FB CYC:101 SL:92
F81D  D0 07     BNE $F826                       A:00 X:78 Y:58 P:27 SP:F9 CYC:119 SL:92
F81F  70 05     BVS $F826                       A:00 X:78 Y:58 P:27 SP:F9 CYC:125 SL:92
F821  90 03     BCC $F826                       A:00 X:78 Y:58 P:27 SP:F9 CYC:131 SL:92
F823  30 01     BMI $F826                       A:00 X:78 Y:58 P:27 SP:F9 CYC:137 SL:92
F825  60        RTS                             A:00 X:78 Y:58 P:27 SP:F9 CYC:143 SL:92
E25C  C8        INY                             A:00 X:78 Y:58 P:27 SP:FB CYC:161 SL:92
E25D  A9 69     LDA #$69                        A:00 X:78 Y:59 P:25 SP:FB CYC:167 SL:92
E25F  8D 78 06  STA $0678 = 70                  A:69 X:78 Y:59 P:25 SP:FB CYC:173 SL:92
E262  20 29 F8  JSR $F829                       A:69 X:78 Y:59 P:25 SP:FB CYC:185 SL:92
F829  18        CLC                             A:69 X:78 Y:59 P:25 SP:F9 CYC:203 SL:92
F82A  24 01     BIT $01 = FF                    A:69 X:78 Y:59 P:24 SP:F9 CYC:209 SL:92
F82C  A9 00     LDA #$00                        A:69 X:78 Y:59 P:E4 SP:F9 CYC:218 SL:92
F82E  60        RTS                             A:00 X:78 Y:59 P:66 SP:F9 CYC:224 SL:92
E265  7D 00 06  ADC $0600,X @ 0678 = 69         A:00 X:78 Y:59 P:66 SP:FB CYC:242 SL:92
E268  20 2F F8  JSR $F82F                       A:69 X:78 Y:59 P:24 SP:FB CYC:254 SL:92
F82F  30 09     BMI $F83A                       A:69 X:78 Y:59 P:24 SP:F9 CYC:272 SL:92
F831  B0 07     BCS $F83A                       A:69 X:78 Y:59 P:24 SP:F9 CYC:278 SL:92
F833  C9 69     CMP #$69                        A:69 X:78 Y:59 P:24 SP:F9 CYC:284 SL:92
F835  D0 03     BNE $F83A                       A:69 X:78 Y:59 P:27 SP:F9 CYC:290 SL:92
F837  70 01     BVS $F83A                       A:69 X:78 Y:59 P:27 SP:F9 CYC:296 SL:92
F839  60        RTS                             A:69 X:78 Y:59 P:27 SP:F9 CYC:302 SL:92
E26B  C8        INY                             A:69 X:78 Y:59 P:27 SP:FB CYC:320 SL:92
E26C  20 3D F8  JSR $F83D                       A:69 X:78 Y:5A P:25 SP:FB CYC:326 SL:92
F83D  38        SEC                             A:69 X:78 Y:5A P:25 SP:F9 CYC:  3 SL:93
F83E  24 01     BIT $01 = FF                    A:69 X:78 Y:5A P:25 SP:F9 CYC:  9 SL:93
F840  A9 00     LDA #$00                        A:69 X:78 Y:5A P:E5 SP:F9 CYC: 18 SL:93
F842  60        RTS                             A:00 X:78 Y:5A P:67 SP:F9 CYC: 24 SL:93
E26F  7D 00 06  ADC $0600,X @ 0678 = 69         A:00 X:78 Y:5A P:67 SP:FB CYC: 42 SL:93
E272  20 43 F8  JSR $F843                       A:6A X:78 Y:5A P:24 SP:FB CYC: 54 SL:93
F843  30 09     BMI $F84E                       A:6A X:78 Y:5A P:24 SP:F9 CYC: 72 SL:93
F845  B0 07     BCS $F84E                       A:6A X:78 Y:5A P:24 SP:F9 CYC: 78 SL:93
F847  C9 6A     CMP #$6A                        A:6A X:78 Y:5A P:24 SP:F9 CYC: 84 SL:93
F849  D0 03     BNE $F84E                       A:6A X:78 Y:5A P:27 SP:F9 CYC: 90 SL:93
F84B  70 01     BVS $F84E                       A:6A X:78 Y:5A P:27 SP:F9 CYC: 96 SL:93
F84D  60        RTS                             A:6A X:78 Y:5A P:27 SP:F9 CYC:102 SL:93
E275  C8        INY                             A:6A X:78 Y:5A P:27 SP:FB CYC:120 SL:93
E276  A9 7F     LDA #$7F                        A:6A X:78 Y:5B P:25 SP:FB CYC:126 SL:93
E278  8D 78 06  STA $0678 = 69                  A:7F X:78 Y:5B P:25 SP:FB CYC:132 SL:93
E27B  20 51 F8  JSR $F851                       A:7F X:78 Y:5B P:25 SP:FB CYC:144 SL:93
F851  38        SEC                             A:7F X:78 Y:5B P:25 SP:F9 CYC:162 SL:93
F852  B8        CLV                             A:7F X:78 Y:5B P:25 SP:F9 CYC:168 SL:93
F853  A9 7F     LDA #$7F                        A:7F X:78 Y:5B P:25 SP:F9 CYC:174 SL:93
F855  60        RTS                             A:7F X:78 Y:5B P:25 SP:F9 CYC:180 SL:93
E27E  7D 00 06  ADC $0600,X @ 0678 = 7F         A:7F X:78 Y:5B P:25 SP:FB CYC:198 SL:93
E281  20 56 F8  JSR $F856                       A:FF X:78 Y:5B P:E4 SP:FB CYC:210 SL:93
F856  10 09     BPL $F861                       A:FF X:78 Y:5B P:E4 SP:F9 CYC:228 SL:93
F858  B0 07     BCS $F861                       A:FF X:78 Y:5B P:E4 SP:F9 CYC:234 SL:93
F85A  C9 FF     CMP #$FF                        A:FF X:78 Y:5B P:E4 SP:F9 CYC:240 SL:93
F85C  D0 03     BNE $F861                       A:FF X:78 Y:5B P:67 SP:F9 CYC:246 SL:93
F85E  50 01     BVC $F861                       A:FF X:78 Y:5B P:67 SP:F9 CYC:252 SL:93
F860  60        RTS                             A:FF X:78 Y:5B P:67 SP:F9 CYC:258 SL:93
E284  C8        INY                             A:FF X:78 Y:5B P:67 SP:FB CYC:276 SL:93
E285  A9 80     LDA #$80                        A:FF X:78 Y:5C P:65 SP:FB CYC:282 SL:93
E287  8D 78 06  STA $0678 = 7F                  A:80 X:78 Y:5C P:E5 SP:FB CYC:288 SL:93
E28A  20 64 F8  JSR $F864                       A:80 X:78 Y:5C P:E5 SP:FB CYC:300 SL:93
F864  18        CLC                             A:80 X:78 Y:5C P:E5 SP:F9 CYC:318 SL:93
F865  24 01     BIT $01 = FF                    A:80 X:78 Y:5C P:E4 SP:F9 CYC:324 SL:93
F867  A9 7F     LDA #$7F                        A:80 X:78 Y:5C P:E4 SP:F9 CYC:333 SL:93
F869  60        RTS                             A:7F X:78 Y:5C P:64 SP:F9 CYC:339 SL:93
E28D  7D 00 06  ADC $0600,X @ 0678 = 80         A:7F X:78 Y:5C P:64 SP:FB CYC: 16 SL:94
E290  20 6A F8  JSR $F86A                       A:FF X:78 Y:5C P:A4 SP:FB CYC: 28 SL:94
F86A  10 09     BPL $F875                       A:FF X:78 Y:5C P:A4 SP:F9 CYC: 46 SL:94
F86C  B0 07     BCS $F875                       A:FF X:78 Y:5C P:A4 SP:F9 CYC: 52 SL:94
F86E  C9 FF     CMP #$FF                        A:FF X:78 Y:5C P:A4 SP:F9 CYC: 58 SL:94
F870  D0 03     BNE $F875                       A:FF X:78 Y:5C P:27 SP:F9 CYC: 64 SL:94
F872  70 01     BVS $F875                       A:FF X:78 Y:5C P:27 SP:F9 CYC: 70 SL:94
F874  60        RTS                             A:FF X:78 Y:5C P:27 SP:F9 CYC: 76 SL:94
E293  C8        INY                             A:FF X:78 Y:5C P:27 SP:FB CYC: 94 SL:94
E294  20 78 F8  JSR $F878                       A:FF X:78 Y:5D P:25 SP:FB CYC:100 SL:94
F878  38        SEC                             A:FF X:78 Y:5D P:25 SP:F9 CYC:118 SL:94
F879  B8        CLV                             A:FF X:78 Y:5D P:25 SP:F9 CYC:124 SL:94
F87A  A9 7F     LDA #$7F                        A:FF X:78 Y:5D P:25 SP:F9 CYC:130 SL:94
F87C  60        RTS                             A:7F X:78 Y:5D P:25 SP:F9 CYC:136 SL:94
E297  7D 00 06  ADC $0600,X @ 0678 = 80         A:7F X:78 Y:5D P:25 SP:FB CYC:154 SL:94
E29A  20 7D F8  JSR $F87D                       A:00 X:78 Y:5D P:27 SP:FB CYC:166 SL:94
F87D  D0 07     BNE $F886                       A:00 X:78 Y:5D P:27 SP:F9 CYC:184 SL:94
F87F  30 05     BMI $F886                       A:00 X:78 Y:5D P:27 SP:F9 CYC:190 SL:94
F881  70 03     BVS $F886                       A:00 X:78 Y:5D P:27 SP:F9 CYC:196 SL:94
F883  90 01     BCC $F886                       A:00 X:78 Y:5D P:27 SP:F9 CYC:202 SL:94
F885  60        RTS                             A:00 X:78 Y:5D P:27 SP:F9 CYC:208 SL:94
E29D  C8        INY                             A:00 X:78 Y:5D P:27 SP:FB CYC:226 SL:94
E29E  A9 40     LDA #$40                        A:00 X:78 Y:5E P:25 SP:FB CYC:232 SL:94
E2A0  8D 78 06  STA $0678 = 80                  A:40 X:78 Y:5E P:25 SP:FB CYC:238 SL:94
E2A3  20 89 F8  JSR $F889                       A:40 X:78 Y:5E P:25 SP:FB CYC:250 SL:94
F889  24 01     BIT $01 = FF                    A:40 X:78 Y:5E P:25 SP:F9 CYC:268 SL:94
F88B  A9 40     LDA #$40                        A:40 X:78 Y:5E P:E5 SP:F9 CYC:277 SL:94
F88D  60        RTS                             A:40 X:78 Y:5E P:65 SP:F9 CYC:283 SL:94
E2A6  DD 00 06  CMP $0600,X @ 0678 = 40         A:40 X:78 Y:5E P:65 SP:FB CYC:301 SL:94
E2A9  20 8E F8  JSR $F88E                       A:40 X:78 Y:5E P:67 SP:FB CYC:313 SL:94
F88E  30 07     BMI $F897                       A:40 X:78 Y:5E P:67 SP:F9 CYC:331 SL:94
F890  90 05     BCC $F897                       A:40 X:78 Y:5E P:67 SP:F9 CYC:337 SL:94
F892  D0 03     BNE $F897                       A:40 X:78 Y:5E P:67 SP:F9 CYC:  2 SL:95
F894  50 01     BVC $F897                       A:40 X:78 Y:5E P:67 SP:F9 CYC:  8 SL:95
F896  60        RTS                             A:40 X:78 Y:5E P:67 SP:F9 CYC: 14 SL:95
E2AC  C8        INY                             A:40 X:78 Y:5E P:67 SP:FB CYC: 32 SL:95
E2AD  48        PHA                             A:40 X:78 Y:5F P:65 SP:FB CYC: 38 SL:95
E2AE  A9 3F     LDA #$3F                        A:40 X:78 Y:5F P:65 SP:FA CYC: 47 SL:95
E2B0  8D 78 06  STA $0678 = 40                  A:3F X:78 Y:5F P:65 SP:FA CYC: 53 SL:95
E2B3  68        PLA                             A:3F X:78 Y:5F P:65 SP:FA CYC: 65 SL:95
E2B4  20 9A F8  JSR $F89A                       A:40 X:78 Y:5F P:65 SP:FB CYC: 77 SL:95
F89A  B8        CLV                             A:40 X:78 Y:5F P:65 SP:F9 CYC: 95 SL:95
F89B  60        RTS                             A:40 X:78 Y:5F P:25 SP:F9 CYC:101 SL:95
E2B7  DD 00 06  CMP $0600,X @ 0678 = 3F         A:40 X:78 Y:5F P:25 SP:FB CYC:119 SL:95
E2BA  20 9C F8  JSR $F89C                       A:40 X:78 Y:5F P:25 SP:FB CYC:131 SL:95
F89C  F0 07     BEQ $F8A5                       A:40 X:78 Y:5F P:25 SP:F9 CYC:149 SL:95
F89E  30 05     BMI $F8A5                       A:40 X:78 Y:5F P:25 SP:F9 CYC:155 SL:95
F8A0  90 03     BCC $F8A5                       A:40 X:78 Y:5F P:25 SP:F9 CYC:161 SL:95
F8A2  70 01     BVS $F8A5                       A:40 X:78 Y:5F P:25 SP:F9 CYC:167 SL:95
F8A4  60        RTS                             A:40 X:78 Y:5F P:25 SP:F9 CYC:173 SL:95
E2BD  C8        INY                             A:40 X:78 Y:5F P:25 SP:FB CYC:191 SL:95
E2BE  48        PHA                             A:40 X:78 Y:60 P:25 SP:FB CYC:197 SL:95
E2BF  A9 41     LDA #$41                        A:40 X:78 Y:60 P:25 SP:FA CYC:206 SL:95
E2C1  8D 78 06  STA $0678 = 3F                  A:41 X:78 Y:60 P:25 SP:FA CYC:212 SL:95
E2C4  68        PLA                             A:41 X:78 Y:60 P:25 SP:FA CYC:224 SL:95
E2C5  DD 00 06  CMP $0600,X @ 0678 = 41         A:40 X:78 Y:60 P:25 SP:FB CYC:236 SL:95
E2C8  20 A8 F8  JSR $F8A8                       A:40 X:78 Y:60 P:A4 SP:FB CYC:248 SL:95
F8A8  F0 05     BEQ $F8AF                       A:40 X:78 Y:60 P:A4 SP:F9 CYC:266 SL:95
F8AA  10 03     BPL $F8AF                       A:40 X:78 Y:60 P:A4 SP:F9 CYC:272 SL:95
F8AC  10 01     BPL $F8AF                       A:40 X:78 Y:60 P:A4 SP:F9 CYC:278 SL:95
F8AE  60        RTS                             A:40 X:78 Y:60 P:A4 SP:F9 CYC:284 SL:95
E2CB  C8        INY                             A:40 X:78 Y:60 P:A4 SP:FB CYC:302 SL:95
E2CC  48        PHA                             A:40 X:78 Y:61 P:24 SP:FB CYC:308 SL:95
E2CD  A9 00     LDA #$00                        A:40 X:78 Y:61 P:24 SP:FA CYC:317 SL:95
E2CF  8D 78 06  STA $0678 = 41                  A:00 X:78 Y:61 P:26 SP:FA CYC:323 SL:95
E2D2  68        PLA                             A:00 X:78 Y:61 P:26 SP:FA CYC:335 SL:95
E2D3  20 B2 F8  JSR $F8B2                       A:40 X:78 Y:61 P:24 SP:FB CYC:  6 SL:96
F8B2  A9 80     LDA #$80                        A:40 X:78 Y:61 P:24 SP:F9 CYC: 24 SL:96
F8B4  60        RTS                             A:80 X:78 Y:61 P:A4 SP:F9 CYC: 30 SL:96
E2D6  DD 00 06  CMP $0600,X @ 0678 = 00         A:80 X:78 Y:61 P:A4 SP:FB CYC: 48 SL:96
E2D9  20 B5 F8  JSR $F8B5                       A:80 X:78 Y:61 P:A5 SP:FB CYC: 60 SL:96
F8B5  F0 05     BEQ $F8BC                       A:80 X:78 Y:61 P:A5 SP:F9 CYC: 78 SL:96
F8B7  10 03     BPL $F8BC                       A:80 X:78 Y:61 P:A5 SP:F9 CYC: 84 SL:96
F8B9  90 01     BCC $F8BC                       A:80 X:78 Y:61 P:A5 SP:F9 CYC: 90 SL:96
F8BB  60        RTS                             A:80 X:78 Y:61 P:A5 SP:F9 CYC: 96 SL:96
E2DC  C8        INY                             A:80 X:78 Y:61 P:A5 SP:FB CYC:114 SL:96
E2DD  48        PHA                             A:80 X:78 Y:62 P:25 SP:FB CYC:120 SL:96
E2DE  A9 80     LDA #$80                        A:80 X:78 Y:62 P:25 SP:FA CYC:129 SL:96
E2E0  8D 78 06  STA $0678 = 00                  A:80 X:78 Y:62 P:A5 SP:FA CYC:135 SL:96
E2E3  68        PLA                             A:80 X:78 Y:62 P:A5 SP:FA CYC:147 SL:96
E2E4  DD 00 06  CMP $0600,X @ 0678 = 80         A:80 X:78 Y:62 P:A5 SP:FB CYC:159 SL:96
E2E7  20 BF F8  JSR $F8BF                       A:80 X:78 Y:62 P:27 SP:FB CYC:171 SL:96
F8BF  D0 05     BNE $F8C6                       A:80 X:78 Y:62 P:27 SP:F9 CYC:189 SL:96
F8C1  30 03     BMI $F8C6                       A:80 X:78 Y:62 P:27 SP:F9 CYC:195 SL:96
F8C3  90 01     BCC $F8C6                       A:80 X:78 Y:62 P:27 SP:F9 CYC:201 SL:96
F8C5  60        RTS                             A:80 X:78 Y:62 P:27 SP:F9 CYC:207 SL:96
E2EA  C8        INY                             A:80 X:78 Y:62 P:27 SP:FB CYC:225 SL:96
E2EB  48        PHA                             A:80 X:78 Y:63 P:25 SP:FB CYC:231 SL:96
E2EC  A9 81     LDA #$81                        A:80 X:78 Y:63 P:25 SP:FA CYC:240 SL:96
E2EE  8D 78 06  STA $0678 = 80                  A:81 X:78 Y:63 P:A5 SP:FA CYC:246 SL:96
E2F1  68        PLA                             A:81 X:78 Y:63 P:A5 SP:FA CYC:258 SL:96
E2F2  DD 00 06  CMP $0600,X @ 0678 = 81         A:80 X:78 Y:63 P:A5 SP:FB CYC:270 SL:96
E2F5  20 C9 F8  JSR $F8C9                       A:80 X:78 Y:63 P:A4 SP:FB CYC:282 SL:96
F8C9  B0 05     BCS $F8D0                       A:80 X:78 Y:63 P:A4 SP:F9 CYC:300 SL:96
F8CB  F0 03     BEQ $F8D0                       A:80 X:78 Y:63 P:A4 SP:F9 CYC:306 SL:96
F8CD  10 01     BPL $F8D0                       A:80 X:78 Y:63 P:A4 SP:F9 CYC:312 SL:96
F8CF  60        RTS                             A:80 X:78 Y:63 P:A4 SP:F9 CYC:318 SL:96
E2F8  C8        INY                             A:80 X:78 Y:63 P:A4 SP:FB CYC:336 SL:96
E2F9  48        PHA                             A:80 X:78 Y:64 P:24 SP:FB CYC:  1 SL:97
E2FA  A9 7F     LDA #$7F                        A:80 X:78 Y:64 P:24 SP:FA CYC: 10 SL:97
E2FC  8D 78 06  STA $0678 = 81                  A:7F X:78 Y:64 P:24 SP:FA CYC: 16 SL:97
E2FF  68        PLA                             A:7F X:78 Y:64 P:24 SP:FA CYC: 28 SL:97
E300  DD 00 06  CMP $0600,X @ 0678 = 7F         A:80 X:78 Y:64 P:A4 SP:FB CYC: 40 SL:97
E303  20 D3 F8  JSR $F8D3                       A:80 X:78 Y:64 P:25 SP:FB CYC: 52 SL:97
F8D3  90 05     BCC $F8DA                       A:80 X:78 Y:64 P:25 SP:F9 CYC: 70 SL:97
F8D5  F0 03     BEQ $F8DA                       A:80 X:78 Y:64 P:25 SP:F9 CYC: 76 SL:97
F8D7  30 01     BMI $F8DA                       A:80 X:78 Y:64 P:25 SP:F9 CYC: 82 SL:97
F8D9  60        RTS                             A:80 X:78 Y:64 P:25 SP:F9 CYC: 88 SL:97
E306  C8        INY                             A:80 X:78 Y:64 P:25 SP:FB CYC:106 SL:97
E307  A9 40     LDA #$40                        A:80 X:78 Y:65 P:25 SP:FB CYC:112 SL:97
E309  8D 78 06  STA $0678 = 7F                  A:40 X:78 Y:65 P:25 SP:FB CYC:118 SL:97
E30C  20 31 F9  JSR $F931                       A:40 X:78 Y:65 P:25 SP:FB CYC:130 SL:97
F931  24 01     BIT $01 = FF                    A:40 X:78 Y:65 P:25 SP:F9 CYC:148 SL:97
F933  A9 40     LDA #$40                        A:40 X:78 Y:65 P:E5 SP:F9 CYC:157 SL:97
F935  38        SEC                             A:40 X:78 Y:65 P:65 SP:F9 CYC:163 SL:97
F936  60        RTS                             A:40 X:78 Y:65 P:65 SP:F9 CYC:169 SL:97
E30F  FD 00 06  SBC $0600,X @ 0678 = 40         A:40 X:78 Y:65 P:65 SP:FB CYC:187 SL:97
E312  20 37 F9  JSR $F937                       A:00 X:78 Y:65 P:27 SP:FB CYC:199 SL:97
F937  30 0B     BMI $F944                       A:00 X:78 Y:65 P:27 SP:F9 CYC:217 SL:97
F939  90 09     BCC $F944                       A:00 X:78 Y:65 P:27 SP:F9 CYC:223 SL:97
F93B  D0 07     BNE $F944                       A:00 X:78 Y:65 P:27 SP:F9 CYC:229 SL:97
F93D  70 05     BVS $F944                       A:00 X:78 Y:65 P:27 SP:F9 CYC:235 SL:97
F93F  C9 00     CMP #$00                        A:00 X:78 Y:65 P:27 SP:F9 CYC:241 SL:97
F941  D0 01     BNE $F944                       A:00 X:78 Y:65 P:27 SP:F9 CYC:247 SL:97
F943  60        RTS                             A:00 X:78 Y:65 P:27 SP:F9 CYC:253 SL:97
E315  C8        INY                             A:00 X:78 Y:65 P:27 SP:FB CYC:271 SL:97
E316  A9 3F     LDA #$3F                        A:00 X:78 Y:66 P:25 SP:FB CYC:277 SL:97
E318  8D 78 06  STA $0678 = 40                  A:3F X:78 Y:66 P:25 SP:FB CYC:283 SL:97
E31B  20 47 F9  JSR $F947                       A:3F X:78 Y:66 P:25 SP:FB CYC:295 SL:97
F947  B8        CLV                             A:3F X:78 Y:66 P:25 SP:F9 CYC:313 SL:97
F948  38        SEC                             A:3F X:78 Y:66 P:25 SP:F9 CYC:319 SL:97
F949  A9 40     LDA #$40                        A:3F X:78 Y:66 P:25 SP:F9 CYC:325 SL:97
F94B  60        RTS                             A:40 X:78 Y:66 P:25 SP:F9 CYC:331 SL:97
E31E  FD 00 06  SBC $0600,X @ 0678 = 3F         A:40 X:78 Y:66 P:25 SP:FB CYC:  8 SL:98
E321  20 4C F9  JSR $F94C                       A:01 X:78 Y:66 P:25 SP:FB CYC: 20 SL:98
F94C  F0 0B     BEQ $F959                       A:01 X:78 Y:66 P:25 SP:F9 CYC: 38 SL:98
F94E  30 09     BMI $F959                       A:01 X:78 Y:66 P:25 SP:F9 CYC: 44 SL:98
F950  90 07     BCC $F959                       A:01 X:78 Y:66 P:25 SP:F9 CYC: 50 SL:98
F952  70 05     BVS $F959                       A:01 X:78 Y:66 P:25 SP:F9 CYC: 56 SL:98
F954  C9 01     CMP #$01                        A:01 X:78 Y:66 P:25 SP:F9 CYC: 62 SL:98
F956  D0 01     BNE $F959                       A:01 X:78 Y:66 P:27 SP:F9 CYC: 68 SL:98
F958  60        RTS                             A:01 X:78 Y:66 P:27 SP:F9 CYC: 74 SL:98
E324  C8        INY                             A:01 X:78 Y:66 P:27 SP:FB CYC: 92 SL:98
E325  A9 41     LDA #$41                        A:01 X:78 Y:67 P:25 SP:FB CYC: 98 SL:98
E327  8D 78 06  STA $0678 = 3F                  A:41 X:78 Y:67 P:25 SP:FB CYC:104 SL:98
E32A  20 5C F9  JSR $F95C                       A:41 X:78 Y:67 P:25 SP:FB CYC:116 SL:98
F95C  A9 40     LDA #$40                        A:41 X:78 Y:67 P:25 SP:F9 CYC:134 SL:98
F95E  38        SEC                             A:40 X:78 Y:67 P:25 SP:F9 CYC:140 SL:98
F95F  24 01     BIT $01 = FF                    A:40 X:78 Y:67 P:25 SP:F9 CYC:146 SL:98
F961  60        RTS                             A:40 X:78 Y:67 P:E5 SP:F9 CYC:155 SL:98
E32D  FD 00 06  SBC $0600,X @ 0678 = 41         A:40 X:78 Y:67 P:E5 SP:FB CYC:173 SL:98
E330  20 62 F9  JSR $F962                       A:FF X:78 Y:67 P:A4 SP:FB CYC:185 SL:98
F962  B0 0B     BCS $F96F                       A:FF X:78 Y:67 P:A4 SP:F9 CYC:203 SL:98
F964  F0 09     BEQ $F96F                       A:FF X:78 Y:67 P:A4 SP:F9 CYC:209 SL:98
F966  10 07     BPL $F96F                       A:FF X:78 Y:67 P:A4 SP:F9 CYC:215 SL:98
F968  70 05     BVS $F96F                       A:FF X:78 Y:67 P:A4 SP:F9 CYC:221 SL:98
F96A  C9 FF     CMP #$FF                        A:FF X:78 Y:67 P:A4 SP:F9 CYC:227 SL:98
F96C  D0 01     BNE $F96F                       A:FF X:78 Y:67 P:27 SP:F9 CYC:233 SL:98
F96E  60        RTS                             A:FF X:78 Y:67 P:27 SP:F9 CYC:239 SL:98
E333  C8        INY                             A:FF X:78 Y:67 P:27 SP:FB CYC:257 SL:98
E334  A9 00     LDA #$00                        A:FF X:78 Y:68 P:25 SP:FB CYC:263 SL:98
E336  8D 78 06  STA $0678 = 41                  A:00 X:78 Y:68 P:27 SP:FB CYC:269 SL:98
E339  20 72 F9  JSR $F972                       A:00 X:78 Y:68 P:27 SP:FB CYC:281 SL:98
F972  18        CLC                             A:00 X:78 Y:68 P:27 SP:F9 CYC:299 SL:98
F973  A9 80     LDA #$80                        A:00 X:78 Y:68 P:26 SP:F9 CYC:305 SL:98
F975  60        RTS                             A:80 X:78 Y:68 P:A4 SP:F9 CYC:311 SL:98
E33C  FD 00 06  SBC $0600,X @ 0678 = 00         A:80 X:78 Y:68 P:A4 SP:FB CYC:329 SL:98
E33F  20 76 F9  JSR $F976                       A:7F X:78 Y:68 P:65 SP:FB CYC:  0 SL:99
F976  90 05     BCC $F97D                       A:7F X:78 Y:68 P:65 SP:F9 CYC: 18 SL:99
F978  C9 7F     CMP #$7F                        A:7F X:78 Y:68 P:65 SP:F9 CYC: 24 SL:99
F97A  D0 01     BNE $F97D                       A:7F X:78 Y:68 P:67 SP:F9 CYC: 30 SL:99
F97C  60        RTS                             A:7F X:78 Y:68 P:67 SP:F9 CYC: 36 SL:99
E342  C8        INY                             A:7F X:78 Y:68 P:67 SP:FB CYC: 54 SL:99
E343  A9 7F     LDA #$7F                        A:7F X:78 Y:69 P:65 SP:FB CYC: 60 SL:99
E345  8D 78 06  STA $0678 = 00                  A:7F X:78 Y:69 P:65 SP:FB CYC: 66 SL:99
E348  20 80 F9  JSR $F980                       A:7F X:78 Y:69 P:65 SP:FB CYC: 78 SL:99
F980  38        SEC                             A:7F X:78 Y:69 P:65 SP:F9 CYC: 96 SL:99
F981  A9 81     LDA #$81                        A:7F X:78 Y:69 P:65 SP:F9 CYC:102 SL:99
F983  60        RTS                             A:81 X:78 Y:69 P:E5 SP:F9 CYC:108 SL:99
E34B  FD 00 06  SBC $0600,X @ 0678 = 7F         A:81 X:78 Y:69 P:E5 SP:FB CYC:126 SL:99
E34E  20 84 F9  JSR $F984                       A:02 X:78 Y:69 P:65 SP:FB CYC:138 SL:99
F984  50 07     BVC $F98D                       A:02 X:78 Y:69 P:65 SP:F9 CYC:156 SL:99
F986  90 05     BCC $F98D                       A:02 X:78 Y:69 P:65 SP:F9 CYC:162 SL:99
F988  C9 02     CMP #$02                        A:02 X:78 Y:69 P:65 SP:F9 CYC:168 SL:99
F98A  D0 01     BNE $F98D                       A:02 X:78 Y:69 P:67 SP:F9 CYC:174 SL:99
F98C  60        RTS                             A:02 X:78 Y:69 P:67 SP:F9 CYC:180 SL:99
E351  A9 AA     LDA #$AA                        A:02 X:78 Y:69 P:67 SP:FB CYC:198 SL:99
E353  8D 33 06  STA $0633 = AA                  A:AA X:78 Y:69 P:E5 SP:FB CYC:204 SL:99
E356  A9 BB     LDA #$BB                        A:AA X:78 Y:69 P:E5 SP:FB CYC:216 SL:99
E358  8D 89 06  STA $0689 = BB                  A:BB X:78 Y:69 P:E5 SP:FB CYC:222 SL:99
E35B  A2 00     LDX #$00                        A:BB X:78 Y:69 P:E5 SP:FB CYC:234 SL:99
E35D  A0 66     LDY #$66                        A:BB X:00 Y:69 P:67 SP:FB CYC:240 SL:99
E35F  24 01     BIT $01 = FF                    A:BB X:00 Y:66 P:65 SP:FB CYC:246 SL:99
E361  38        SEC                             A:BB X:00 Y:66 P:E5 SP:FB CYC:255 SL:99
E362  A9 00     LDA #$00                        A:BB X:00 Y:66 P:E5 SP:FB CYC:261 SL:99
E364  BD 33 06  LDA $0633,X @ 0633 = AA         A:00 X:00 Y:66 P:67 SP:FB CYC:267 SL:99
E367  10 12     BPL $E37B                       A:AA X:00 Y:66 P:E5 SP:FB CYC:279 SL:99
E369  F0 10     BEQ $E37B                       A:AA X:00 Y:66 P:E5 SP:FB CYC:285 SL:99
E36B  50 0E     BVC $E37B                       A:AA X:00 Y:66 P:E5 SP:FB CYC:291 SL:99
E36D  90 0C     BCC $E37B                       A:AA X:00 Y:66 P:E5 SP:FB CYC:297 SL:99
E36F  C0 66     CPY #$66                        A:AA X:00 Y:66 P:E5 SP:FB CYC:303 SL:99
E371  D0 08     BNE $E37B                       A:AA X:00 Y:66 P:67 SP:FB CYC:309 SL:99
E373  E0 00     CPX #$00                        A:AA X:00 Y:66 P:67 SP:FB CYC:315 SL:99
E375  D0 04     BNE $E37B                       A:AA X:00 Y:66 P:67 SP:FB CYC:321 SL:99
E377  C9 AA     CMP #$AA                        A:AA X:00 Y:66 P:67 SP:FB CYC:327 SL:99
E379  F0 04     BEQ $E37F                       A:AA X:00 Y:66 P:67 SP:FB CYC:333 SL:99
E37F  A2 8A     LDX #$8A                        A:AA X:00 Y:66 P:67 SP:FB CYC:  1 SL:100
E381  A0 66     LDY #$66                        A:AA X:8A Y:66 P:E5 SP:FB CYC:  7 SL:100
E383  B8        CLV                             A:AA X:8A Y:66 P:65 SP:FB CYC: 13 SL:100
E384  18        CLC                             A:AA X:8A Y:66 P:25 SP:FB CYC: 19 SL:100
E385  A9 00     LDA #$00                        A:AA X:8A Y:66 P:24 SP:FB CYC: 25 SL:100
E387  BD FF 05  LDA $05FF,X @ 0689 = BB         A:00 X:8A Y:66 P:26 SP:FB CYC: 31 SL:100
E38A  10 12     BPL $E39E                       A:BB X:8A Y:66 P:A4 SP:FB CYC: 46 SL:100
E38C  F0 10     BEQ $E39E                       A:BB X:8A Y:66 P:A4 SP:FB CYC: 52 SL:100
E38E  70 0E     BVS $E39E                       A:BB X:8A Y:66 P:A4 SP:FB CYC: 58 SL:100
E390  B0 0C     BCS $E39E                       A:BB X:8A Y:66 P:A4 SP:FB CYC: 64 SL:100
E392  C9 BB     CMP #$BB                        A:BB X:8A Y:66 P:A4 SP:FB CYC: 70 SL:100
E394  D0 08     BNE $E39E                       A:BB X:8A Y:66 P:27 SP:FB CYC: 76 SL:100
E396  C0 66     CPY #$66                        A:BB X:8A Y:66 P:27 SP:FB CYC: 82 SL:100
E398  D0 04     BNE $E39E                       A:BB X:8A Y:66 P:27 SP:FB CYC: 88 SL:100
E39A  E0 8A     CPX #$8A                        A:BB X:8A Y:66 P:27 SP:FB CYC: 94 SL:100
E39C  F0 04     BEQ $E3A2                       A:BB X:8A Y:66 P:27 SP:FB CYC:100 SL:100
E3A2  24 01     BIT $01 = FF                    A:BB X:8A Y:66 P:27 SP:FB CYC:109 SL:100
E3A4  38        SEC                             A:BB X:8A Y:66 P:E5 SP:FB CYC:118 SL:100
E3A5  A9 44     LDA #$44                        A:BB X:8A Y:66 P:E5 SP:FB CYC:124 SL:100
E3A7  A2 00     LDX #$00                        A:44 X:8A Y:66 P:65 SP:FB CYC:130 SL:100
E3A9  9D 33 06  STA $0633,X @ 0633 = AA         A:44 X:00 Y:66 P:67 SP:FB CYC:136 SL:100
E3AC  AD 33 06  LDA $0633 = 44                  A:44 X:00 Y:66 P:67 SP:FB CYC:151 SL:100
E3AF  90 1A     BCC $E3CB                       A:44 X:00 Y:66 P:65 SP:FB CYC:163 SL:100
E3B1  C9 44     CMP #$44                        A:44 X:00 Y:66 P:65 SP:FB CYC:169 SL:100
E3B3  D0 16     BNE $E3CB                       A:44 X:00 Y:66 P:67 SP:FB CYC:175 SL:100
E3B5  50 14     BVC $E3CB                       A:44 X:00 Y:66 P:67 SP:FB CYC:181 SL:100
E3B7  18        CLC                             A:44 X:00 Y:66 P:67 SP:FB CYC:187 SL:100
E3B8  B8        CLV                             A:44 X:00 Y:66 P:66 SP:FB CYC:193 SL:100
E3B9  A9 99     LDA #$99                        A:44 X:00 Y:66 P:26 SP:FB CYC:199 SL:100
E3BB  A2 80     LDX #$80                        A:99 X:00 Y:66 P:A4 SP:FB CYC:205 SL:100
E3BD  9D 85 05  STA $0585,X @ 0605 = 00         A:99 X:80 Y:66 P:A4 SP:FB CYC:211 SL:100
E3C0  AD 05 06  LDA $0605 = 99                  A:99 X:80 Y:66 P:A4 SP:FB CYC:226 SL:100
E3C3  B0 06     BCS $E3CB                       A:99 X:80 Y:66 P:A4 SP:FB CYC:238 SL:100
E3C5  C9 99     CMP #$99                        A:99 X:80 Y:66 P:A4 SP:FB CYC:244 SL:100
E3C7  D0 02     BNE $E3CB                       A:99 X:80 Y:66 P:27 SP:FB CYC:250 SL:100
E3C9  50 04     BVC $E3CF                       A:99 X:80 Y:66 P:27 SP:FB CYC:256 SL:100
E3CF  A0 6D     LDY #$6D                        A:99 X:80 Y:66 P:27 SP:FB CYC:265 SL:100
E3D1  A2 6D     LDX #$6D                        A:99 X:80 Y:6D P:25 SP:FB CYC:271 SL:100
E3D3  20 90 F9  JSR $F990                       A:99 X:6D Y:6D P:25 SP:FB CYC:277 SL:100
F990  A2 55     LDX #$55                        A:99 X:6D Y:6D P:25 SP:F9 CYC:295 SL:100
F992  A9 FF     LDA #$FF                        A:99 X:55 Y:6D P:25 SP:F9 CYC:301 SL:100
F994  85 01     STA $01 = FF                    A:FF X:55 Y:6D P:A5 SP:F9 CYC:307 SL:100
F996  EA        NOP                             A:FF X:55 Y:6D P:A5 SP:F9 CYC:316 SL:100
F997  24 01     BIT $01 = FF                    A:FF X:55 Y:6D P:A5 SP:F9 CYC:322 SL:100
F999  38        SEC                             A:FF X:55 Y:6D P:E5 SP:F9 CYC:331 SL:100
F99A  A9 01     LDA #$01                        A:FF X:55 Y:6D P:E5 SP:F9 CYC:337 SL:100
F99C  60        RTS                             A:01 X:55 Y:6D P:65 SP:F9 CYC:  2 SL:101
E3D6  9D 00 06  STA $0600,X @ 0655 = 00         A:01 X:55 Y:6D P:65 SP:FB CYC: 20 SL:101
E3D9  5E 00 06  LSR $0600,X @ 0655 = 01         A:01 X:55 Y:6D P:65 SP:FB CYC: 35 SL:101
E3DC  BD 00 06  LDA $0600,X @ 0655 = 00         A:01 X:55 Y:6D P:67 SP:FB CYC: 56 SL:101
E3DF  20 9D F9  JSR $F99D                       A:00 X:55 Y:6D P:67 SP:FB CYC: 68 SL:101
F99D  90 1B     BCC $F9BA                       A:00 X:55 Y:6D P:67 SP:F9 CYC: 86 SL:101
F99F  D0 19     BNE $F9BA                       A:00 X:55 Y:6D P:67 SP:F9 CYC: 92 SL:101
F9A1  30 17     BMI $F9BA                       A:00 X:55 Y:6D P:67 SP:F9 CYC: 98 SL:101
F9A3  50 15     BVC $F9BA                       A:00 X:55 Y:6D P:67 SP:F9 CYC:104 SL:101
F9A5  C9 00     CMP #$00                        A:00 X:55 Y:6D P:67 SP:F9 CYC:110 SL:101
F9A7  D0 11     BNE $F9BA                       A:00 X:55 Y:6D P:67 SP:F9 CYC:116 SL:101
F9A9  B8        CLV                             A:00 X:55 Y:6D P:67 SP:F9 CYC:122 SL:101
F9AA  A9 AA     LDA #$AA                        A:00 X:55 Y:6D P:27 SP:F9 CYC:128 SL:101
F9AC  60        RTS                             A:AA X:55 Y:6D P:A5 SP:F9 CYC:134 SL:101
E3E2  C8        INY                             A:AA X:55 Y:6D P:A5 SP:FB CYC:152 SL:101
E3E3  9D 00 06  STA $0600,X @ 0655 = 00         A:AA X:55 Y:6E P:25 SP:FB CYC:158 SL:101
E3E6  5E 00 06  LSR $0600,X @ 0655 = AA         A:AA X:55 Y:6E P:25 SP:FB CYC:173 SL:101
E3E9  BD 00 06  LDA $0600,X @ 0655 = 55         A:AA X:55 Y:6E P:24 SP:FB CYC:194 SL:101
E3EC  20 AD F9  JSR $F9AD                       A:55 X:55 Y:6E P:24 SP:FB CYC:206 SL:101
F9AD  B0 0B     BCS $F9BA                       A:55 X:55 Y:6E P:24 SP:F9 CYC:224 SL:101
F9AF  F0 09     BEQ $F9BA                       A:55 X:55 Y:6E P:24 SP:F9 CYC:230 SL:101
F9B1  30 07     BMI $F9BA                       A:55 X:55 Y:6E P:24 SP:F9 CYC:236 SL:101
F9B3  70 05     BVS $F9BA                       A:55 X:55 Y:6E P:24 SP:F9 CYC:242 SL:101
F9B5  C9 55     CMP #$55                        A:55 X:55 Y:6E P:24 SP:F9 CYC:248 SL:101
F9B7  D0 01     BNE $F9BA                       A:55 X:55 Y:6E P:27 SP:F9 CYC:254 SL:101
F9B9  60        RTS                             A:55 X:55 Y:6E P:27 SP:F9 CYC:260 SL:101
E3EF  C8        INY                             A:55 X:55 Y:6E P:27 SP:FB CYC:278 SL:101
E3F0  20 BD F9  JSR $F9BD                       A:55 X:55 Y:6F P:25 SP:FB CYC:284 SL:101
F9BD  24 01     BIT $01 = FF                    A:55 X:55 Y:6F P:25 SP:F9 CYC:302 SL:101
F9BF  38        SEC                             A:55 X:55 Y:6F P:E5 SP:F9 CYC:311 SL:101
F9C0  A9 80     LDA #$80                        A:55 X:55 Y:6F P:E5 SP:F9 CYC:317 SL:101
F9C2  60        RTS                             A:80 X:55 Y:6F P:E5 SP:F9 CYC:323 SL:101
E3F3  9D 00 06  STA $0600,X @ 0655 = 55         A:80 X:55 Y:6F P:E5 SP:FB CYC:  0 SL:102
E3F6  1E 00 06  ASL $0600,X @ 0655 = 80         A:80 X:55 Y:6F P:E5 SP:FB CYC: 15 SL:102
E3F9  BD 00 06  LDA $0600,X @ 0655 = 00         A:80 X:55 Y:6F P:67 SP:FB CYC: 36 SL:102
E3FC  20 C3 F9  JSR $F9C3                       A:00 X:55 Y:6F P:67 SP:FB CYC: 48 SL:102
F9C3  90 1C     BCC $F9E1                       A:00 X:55 Y:6F P:67 SP:F9 CYC: 66 SL:102
F9C5  D0 1A     BNE $F9E1                       A:00 X:55 Y:6F P:67 SP:F9 CYC: 72 SL:102
F9C7  30 18     BMI $F9E1                       A:00 X:55 Y:6F P:67 SP:F9 CYC: 78 SL:102
F9C9  50 16     BVC $F9E1                       A:00 X:55 Y:6F P:67 SP:F9 CYC: 84 SL:102
F9CB  C9 00     CMP #$00                        A:00 X:55 Y:6F P:67 SP:F9 CYC: 90 SL:102
F9CD  D0 12     BNE $F9E1                       A:00 X:55 Y:6F P:67 SP:F9 CYC: 96 SL:102
F9CF  B8        CLV                             A:00 X:55 Y:6F P:67 SP:F9 CYC:102 SL:102
F9D0  A9 55     LDA #$55                        A:00 X:55 Y:6F P:27 SP:F9 CYC:108 SL:102
F9D2  38        SEC                             A:55 X:55 Y:6F P:25 SP:F9 CYC:114 SL:102
F9D3  60        RTS                             A:55 X:55 Y:6F P:25 SP:F9 CYC:120 SL:102
E3FF  C8        INY                             A:55 X:55 Y:6F P:25 SP:FB CYC:138 SL:102
E400  9D 00 06  STA $0600,X @ 0655 = 00         A:55 X:55 Y:70 P:25 SP:FB CYC:144 SL:102
E403  1E 00 06  ASL $0600,X @ 0655 = 55         A:55 X:55 Y:70 P:25 SP:FB CYC:159 SL:102
E406  BD 00 06  LDA $0600,X @ 0655 = AA         A:55 X:55 Y:70 P:A4 SP:FB CYC:180 SL:102
E409  20 D4 F9  JSR $F9D4                       A:AA X:55 Y:70 P:A4 SP:FB CYC:192 SL:102
F9D4  B0 0B     BCS $F9E1                       A:AA X:55 Y:70 P:A4 SP:F9 CYC:210 SL:102
F9D6  F0 09     BEQ $F9E1                       A:AA X:55 Y:70 P:A4 SP:F9 CYC:216 SL:102
F9D8  10 07     BPL $F9E1                       A:AA X:55 Y:70 P:A4 SP:F9 CYC:222 SL:102
F9DA  70 05     BVS $F9E1                       A:AA X:55 Y:70 P:A4 SP:F9 CYC:228 SL:102
F9DC  C9 AA     CMP #$AA                        A:AA X:55 Y:70 P:A4 SP:F9 CYC:234 SL:102
F9DE  D0 01     BNE $F9E1                       A:AA X:55 Y:70 P:27 SP:F9 CYC:240 SL:102
F9E0  60        RTS                             A:AA X:55 Y:70 P:27 SP:F9 CYC:246 SL:102
E40C  C8        INY                             A:AA X:55 Y:70 P:27 SP:FB CYC:264 SL:102
E40D  20 E4 F9  JSR $F9E4                       A:AA X:55 Y:71 P:25 SP:FB CYC:270 SL:102
F9E4  24 01     BIT $01 = FF                    A:AA X:55 Y:71 P:25 SP:F9 CYC:288 SL:102
F9E6  38        SEC                             A:AA X:55 Y:71 P:E5 SP:F9 CYC:297 SL:102
F9E7  A9 01     LDA #$01                        A:AA X:55 Y:71 P:E5 SP:F9 CYC:303 SL:102
F9E9  60        RTS                             A:01 X:55 Y:71 P:65 SP:F9 CYC:309 SL:102
E410  9D 00 06  STA $0600,X @ 0655 = AA         A:01 X:55 Y:71 P:65 SP:FB CYC:327 SL:102
E413  7E 00 06  ROR $0600,X @ 0655 = 01         A:01 X:55 Y:71 P:65 SP:FB CYC:  1 SL:103
E416  BD 00 06  LDA $0600,X @ 0655 = 80         A:01 X:55 Y:71 P:E5 SP:FB CYC: 22 SL:103
E419  20 EA F9  JSR $F9EA                       A:80 X:55 Y:71 P:E5 SP:FB CYC: 34 SL:103
F9EA  90 1C     BCC $FA08                       A:80 X:55 Y:71 P:E5 SP:F9 CYC: 52 SL:103
F9EC  F0 1A     BEQ $FA08                       A:80 X:55 Y:71 P:E5 SP:F9 CYC: 58 SL:103
F9EE  10 18     BPL $FA08                       A:80 X:55 Y:71 P:E5 SP:F9 CYC: 64 SL:103
F9F0  50 16     BVC $FA08                       A:80 X:55 Y:71 P:E5 SP:F9 CYC: 70 SL:103
F9F2  C9 80     CMP #$80                        A:80 X:55 Y:71 P:E5 SP:F9 CYC: 76 SL:103
F9F4  D0 12     BNE $FA08                       A:80 X:55 Y:71 P:67 SP:F9 CYC: 82 SL:103
F9F6  B8        CLV                             A:80 X:55 Y:71 P:67 SP:F9 CYC: 88 SL:103
F9F7  18        CLC                             A:80 X:55 Y:71 P:27 SP:F9 CYC: 94 SL:103
F9F8  A9 55     LDA #$55                        A:80 X:55 Y:71 P:26 SP:F9 CYC:100 SL:103
F9FA  60        RTS                             A:55 X:55 Y:71 P:24 SP:F9 CYC:106 SL:103
E41C  C8        INY                             A:55 X:55 Y:71 P:24 SP:FB CYC:124 SL:103
E41D  9D 00 06  STA $0600,X @ 0655 = 80         A:55 X:55 Y:72 P:24 SP:FB CYC:130 SL:103
E420  7E 00 06  ROR $0600,X @ 0655 = 55         A:55 X:55 Y:72 P:24 SP:FB CYC:145 SL:103
E423  BD 00 06  LDA $0600,X @ 0655 = 2A         A:55 X:55 Y:72 P:25 SP:FB CYC:166 SL:103
E426  20 FB F9  JSR $F9FB                       A:2A X:55 Y:72 P:25 SP:FB CYC:178 SL:103
F9FB  90 0B     BCC $FA08                       A:2A X:55 Y:72 P:25 SP:F9 CYC:196 SL:103
F9FD  F0 09     BEQ $FA08                       A:2A X:55 Y:72 P:25 SP:F9 CYC:202 SL:103
F9FF  30 07     BMI $FA08                       A:2A X:55 Y:72 P:25 SP:F9 CYC:208 SL:103
FA01  70 05     BVS $FA08                       A:2A X:55 Y:72 P:25 SP:F9 CYC:214 SL:103
FA03  C9 2A     CMP #$2A                        A:2A X:55 Y:72 P:25 SP:F9 CYC:220 SL:103
FA05  D0 01     BNE $FA08                       A:2A X:55 Y:72 P:27 SP:F9 CYC:226 SL:103
FA07  60        RTS                             A:2A X:55 Y:72 P:27 SP:F9 CYC:232 SL:103
E429  C8        INY                             A:2A X:55 Y:72 P:27 SP:FB CYC:250 SL:103
E42A  20 0A FA  JSR $FA0A                       A:2A X:55 Y:73 P:25 SP:FB CYC:256 SL:103
FA0A  24 01     BIT $01 = FF                    A:2A X:55 Y:73 P:25 SP:F9 CYC:274 SL:103
FA0C  38        SEC                             A:2A X:55 Y:73 P:E5 SP:F9 CYC:283 SL:103
FA0D  A9 80     LDA #$80                        A:2A X:55 Y:73 P:E5 SP:F9 CYC:289 SL:103
FA0F  60        RTS                             A:80 X:55 Y:73 P:E5 SP:F9 CYC:295 SL:103
E42D  9D 00 06  STA $0600,X @ 0655 = 2A         A:80 X:55 Y:73 P:E5 SP:FB CYC:313 SL:103
E430  3E 00 06  ROL $0600,X @ 0655 = 80         A:80 X:55 Y:73 P:E5 SP:FB CYC:328 SL:103
E433  BD 00 06  LDA $0600,X @ 0655 = 01         A:80 X:55 Y:73 P:65 SP:FB CYC:  8 SL:104
E436  20 10 FA  JSR $FA10                       A:01 X:55 Y:73 P:65 SP:FB CYC: 20 SL:104
FA10  90 1C     BCC $FA2E                       A:01 X:55 Y:73 P:65 SP:F9 CYC: 38 SL:104
FA12  F0 1A     BEQ $FA2E                       A:01 X:55 Y:73 P:65 SP:F9 CYC: 44 SL:104
FA14  30 18     BMI $FA2E                       A:01 X:55 Y:73 P:65 SP:F9 CYC: 50 SL:104
FA16  50 16     BVC $FA2E                       A:01 X:55 Y:73 P:65 SP:F9 CYC: 56 SL:104
FA18  C9 01     CMP #$01                        A:01 X:55 Y:73 P:65 SP:F9 CYC: 62 SL:104
FA1A  D0 12     BNE $FA2E                       A:01 X:55 Y:73 P:67 SP:F9 CYC: 68 SL:104
FA1C  B8        CLV                             A:01 X:55 Y:73 P:67 SP:F9 CYC: 74 SL:104
FA1D  18        CLC                             A:01 X:55 Y:73 P:27 SP:F9 CYC: 80 SL:104
FA1E  A9 55     LDA #$55                        A:01 X:55 Y:73 P:26 SP:F9 CYC: 86 SL:104
FA20  60        RTS                             A:55 X:55 Y:73 P:24 SP:F9 CYC: 92 SL:104
E439  C8        INY                             A:55 X:55 Y:73 P:24 SP:FB CYC:110 SL:104
E43A  9D 00 06  STA $0600,X @ 0655 = 01         A:55 X:55 Y:74 P:24 SP:FB CYC:116 SL:104
E43D  3E 00 06  ROL $0600,X @ 0655 = 55         A:55 X:55 Y:74 P:24 SP:FB CYC:131 SL:104
E440  BD 00 06  LDA $0600,X @ 0655 = AA         A:55 X:55 Y:74 P:A4 SP:FB CYC:152 SL:104
E443  20 21 FA  JSR $FA21                       A:AA X:55 Y:74 P:A4 SP:FB CYC:164 SL:104
FA21  B0 0B     BCS $FA2E                       A:AA X:55 Y:74 P:A4 SP:F9 CYC:182 SL:104
FA23  F0 09     BEQ $FA2E                       A:AA X:55 Y:74 P:A4 SP:F9 CYC:188 SL:104
FA25  10 07     BPL $FA2E                       A:AA X:55 Y:74 P:A4 SP:F9 CYC:194 SL:104
FA27  70 05     BVS $FA2E                       A:AA X:55 Y:74 P:A4 SP:F9 CYC:200 SL:104
FA29  C9 AA     CMP #$AA                        A:AA X:55 Y:74 P:A4 SP:F9 CYC:206 SL:104
FA2B  D0 01     BNE $FA2E                       A:AA X:55 Y:74 P:27 SP:F9 CYC:212 SL:104
FA2D  60        RTS                             A:AA X:55 Y:74 P:27 SP:F9 CYC:218 SL:104
E446  A9 FF     LDA #$FF                        A:AA X:55 Y:74 P:27 SP:FB CYC:236 SL:104
E448  9D 00 06  STA $0600,X @ 0655 = AA         A:FF X:55 Y:74 P:A5 SP:FB CYC:242 SL:104
E44B  85 01     STA $01 = FF                    A:FF X:55 Y:74 P:A5 SP:FB CYC:257 SL:104
E44D  24 01     BIT $01 = FF                    A:FF X:55 Y:74 P:A5 SP:FB CYC:266 SL:104
E44F  38        SEC                             A:FF X:55 Y:74 P:E5 SP:FB CYC:275 SL:104
E450  FE 00 06  INC $0600,X @ 0655 = FF         A:FF X:55 Y:74 P:E5 SP:FB CYC:281 SL:104
E453  D0 0D     BNE $E462                       A:FF X:55 Y:74 P:67 SP:FB CYC:302 SL:104
E455  30 0B     BMI $E462                       A:FF X:55 Y:74 P:67 SP:FB CYC:308 SL:104
E457  50 09     BVC $E462                       A:FF X:55 Y:74 P:67 SP:FB CYC:314 SL:104
E459  90 07     BCC $E462                       A:FF X:55 Y:74 P:67 SP:FB CYC:320 SL:104
E45B  BD 00 06  LDA $0600,X @ 0655 = 00         A:FF X:55 Y:74 P:67 SP:FB CYC:326 SL:104
E45E  C9 00     CMP #$00                        A:00 X:55 Y:74 P:67 SP:FB CYC:338 SL:104
E460  F0 04     BEQ $E466                       A:00 X:55 Y:74 P:67 SP:FB CYC:  3 SL:105
E466  A9 7F     LDA #$7F                        A:00 X:55 Y:74 P:67 SP:FB CYC: 12 SL:105
E468  9D 00 06  STA $0600,X @ 0655 = 00         A:7F X:55 Y:74 P:65 SP:FB CYC: 18 SL:105
E46B  B8        CLV                             A:7F X:55 Y:74 P:65 SP:FB CYC: 33 SL:105
E46C  18        CLC                             A:7F X:55 Y:74 P:25 SP:FB CYC: 39 SL:105
E46D  FE 00 06  INC $0600,X @ 0655 = 7F         A:7F X:55 Y:74 P:24 SP:FB CYC: 45 SL:105
E470  F0 0D     BEQ $E47F                       A:7F X:55 Y:74 P:A4 SP:FB CYC: 66 SL:105
E472  10 0B     BPL $E47F                       A:7F X:55 Y:74 P:A4 SP:FB CYC: 72 SL:105
E474  70 09     BVS $E47F                       A:7F X:55 Y:74 P:A4 SP:FB CYC: 78 SL:105
E476  B0 07     BCS $E47F                       A:7F X:55 Y:74 P:A4 SP:FB CYC: 84 SL:105
E478  BD 00 06  LDA $0600,X @ 0655 = 80         A:7F X:55 Y:74 P:A4 SP:FB CYC: 90 SL:105
E47B  C9 80     CMP #$80                        A:80 X:55 Y:74 P:A4 SP:FB CYC:102 SL:105
E47D  F0 04     BEQ $E483                       A:80 X:55 Y:74 P:27 SP:FB CYC:108 SL:105
E483  A9 00     LDA #$00                        A:80 X:55 Y:74 P:27 SP:FB CYC:117 SL:105
E485  9D 00 06  STA $0600,X @ 0655 = 80         A:00 X:55 Y:74 P:27 SP:FB CYC:123 SL:105
E488  24 01     BIT $01 = FF                    A:00 X:55 Y:74 P:27 SP:FB CYC:138 SL:105
E48A  38        SEC                             A:00 X:55 Y:74 P:E7 SP:FB CYC:147 SL:105
E48B  DE 00 06  DEC $0600,X @ 0655 = 00         A:00 X:55 Y:74 P:E7 SP:FB CYC:153 SL:105
E48E  F0 0D     BEQ $E49D                       A:00 X:55 Y:74 P:E5 SP:FB CYC:174 SL:105
E490  10 0B     BPL $E49D                       A:00 X:55 Y:74 P:E5 SP:FB CYC:180 SL:105
E492  50 09     BVC $E49D                       A:00 X:55 Y:74 P:E5 SP:FB CYC:186 SL:105
E494  90 07     BCC $E49D                       A:00 X:55 Y:74 P:E5 SP:FB CYC:192 SL:105
E496  BD 00 06  LDA $0600,X @ 0655 = FF         A:00 X:55 Y:74 P:E5 SP:FB CYC:198 SL:105
E499  C9 FF     CMP #$FF                        A:FF X:55 Y:74 P:E5 SP:FB CYC:210 SL:105
E49B  F0 04     BEQ $E4A1                       A:FF X:55 Y:74 P:67 SP:FB CYC:216 SL:105
E4A1  A9 80     LDA #$80                        A:FF X:55 Y:74 P:67 SP:FB CYC:225 SL:105
E4A3  9D 00 06  STA $0600,X @ 0655 = FF         A:80 X:55 Y:74 P:E5 SP:FB CYC:231 SL:105
E4A6  B8        CLV                             A:80 X:55 Y:74 P:E5 SP:FB CYC:246 SL:105
E4A7  18        CLC                             A:80 X:55 Y:74 P:A5 SP:FB CYC:252 SL:105
E4A8  DE 00 06  DEC $0600,X @ 0655 = 80         A:80 X:55 Y:74 P:A4 SP:FB CYC:258 SL:105
E4AB  F0 0D     BEQ $E4BA                       A:80 X:55 Y:74 P:24 SP:FB CYC:279 SL:105
E4AD  30 0B     BMI $E4BA                       A:80 X:55 Y:74 P:24 SP:FB CYC:285 SL:105
E4AF  70 09     BVS $E4BA                       A:80 X:55 Y:74 P:24 SP:FB CYC:291 SL:105
E4B1  B0 07     BCS $E4BA                       A:80 X:55 Y:74 P:24 SP:FB CYC:297 SL:105
E4B3  BD 00 06  LDA $0600,X @ 0655 = 7F         A:80 X:55 Y:74 P:24 SP:FB CYC:303 SL:105
E4B6  C9 7F     CMP #$7F                        A:7F X:55 Y:74 P:24 SP:FB CYC:315 SL:105
E4B8  F0 04     BEQ $E4BE                       A:7F X:55 Y:74 P:27 SP:FB CYC:321 SL:105
E4BE  A9 01     LDA #$01                        A:7F X:55 Y:74 P:27 SP:FB CYC:330 SL:105
E4C0  9D 00 06  STA $0600,X @ 0655 = 7F         A:01 X:55 Y:74 P:25 SP:FB CYC:336 SL:105
E4C3  DE 00 06  DEC $0600,X @ 0655 = 01         A:01 X:55 Y:74 P:25 SP:FB CYC: 10 SL:106
E4C6  F0 04     BEQ $E4CC                       A:01 X:55 Y:74 P:27 SP:FB CYC: 31 SL:106
E4CC  A9 33     LDA #$33                        A:01 X:55 Y:74 P:27 SP:FB CYC: 40 SL:106
E4CE  8D 78 06  STA $0678 = 7F                  A:33 X:55 Y:74 P:25 SP:FB CYC: 46 SL:106
E4D1  A9 44     LDA #$44                        A:33 X:55 Y:74 P:25 SP:FB CYC: 58 SL:106
E4D3  A0 78     LDY #$78                        A:44 X:55 Y:74 P:25 SP:FB CYC: 64 SL:106
E4D5  A2 00     LDX #$00                        A:44 X:55 Y:78 P:25 SP:FB CYC: 70 SL:106
E4D7  38        SEC                             A:44 X:00 Y:78 P:27 SP:FB CYC: 76 SL:106
E4D8  24 01     BIT $01 = FF                    A:44 X:00 Y:78 P:27 SP:FB CYC: 82 SL:106
E4DA  BE 00 06  LDX $0600,Y @ 0678 = 33         A:44 X:00 Y:78 P:E5 SP:FB CYC: 91 SL:106
E4DD  90 12     BCC $E4F1                       A:44 X:33 Y:78 P:65 SP:FB CYC:103 SL:106
E4DF  50 10     BVC $E4F1                       A:44 X:33 Y:78 P:65 SP:FB CYC:109 SL:106
E4E1  30 0E     BMI $E4F1                       A:44 X:33 Y:78 P:65 SP:FB CYC:115 SL:106
E4E3  F0 0C     BEQ $E4F1                       A:44 X:33 Y:78 P:65 SP:FB CYC:121 SL:106
E4E5  E0 33     CPX #$33                        A:44 X:33 Y:78 P:65 SP:FB CYC:127 SL:106
E4E7  D0 08     BNE $E4F1                       A:44 X:33 Y:78 P:67 SP:FB CYC:133 SL:106
E4E9  C0 78     CPY #$78                        A:44 X:33 Y:78 P:67 SP:FB CYC:139 SL:106
E4EB  D0 04     BNE $E4F1                       A:44 X:33 Y:78 P:67 SP:FB CYC:145 SL:106
E4ED  C9 44     CMP #$44                        A:44 X:33 Y:78 P:67 SP:FB CYC:151 SL:106
E4EF  F0 04     BEQ $E4F5                       A:44 X:33 Y:78 P:67 SP:FB CYC:157 SL:106
E4F5  A9 97     LDA #$97                        A:44 X:33 Y:78 P:67 SP:FB CYC:166 SL:106
E4F7  8D 7F 06  STA $067F = 00                  A:97 X:33 Y:78 P:E5 SP:FB CYC:172 SL:106
E4FA  A9 47     LDA #$47                        A:97 X:33 Y:78 P:E5 SP:FB CYC:184 SL:106
E4FC  A0 FF     LDY #$FF                        A:47 X:33 Y:78 P:65 SP:FB CYC:190 SL:106
E4FE  A2 00     LDX #$00                        A:47 X:33 Y:FF P:E5 SP:FB CYC:196 SL:106
E500  18        CLC                             A:47 X:00 Y:FF P:67 SP:FB CYC:202 SL:106
E501  B8        CLV                             A:47 X:00 Y:FF P:66 SP:FB CYC:208 SL:106
E502  BE 80 05  LDX $0580,Y @ 067F = 97         A:47 X:00 Y:FF P:26 SP:FB CYC:214 SL:106
E505  B0 12     BCS $E519                       A:47 X:97 Y:FF P:A4 SP:FB CYC:229 SL:106
E507  70 10     BVS $E519                       A:47 X:97 Y:FF P:A4 SP:FB CYC:235 SL:106
E509  10 0E     BPL $E519                       A:47 X:97 Y:FF P:A4 SP:FB CYC:241 SL:106
E50B  F0 0C     BEQ $E519                       A:47 X:97 Y:FF P:A4 SP:FB CYC:247 SL:106
E50D  E0 97     CPX #$97                        A:47 X:97 Y:FF P:A4 SP:FB CYC:253 SL:106
E50F  D0 08     BNE $E519                       A:47 X:97 Y:FF P:27 SP:FB CYC:259 SL:106
E511  C0 FF     CPY #$FF                        A:47 X:97 Y:FF P:27 SP:FB CYC:265 SL:106
E513  D0 04     BNE $E519                       A:47 X:97 Y:FF P:27 SP:FB CYC:271 SL:106
E515  C9 47     CMP #$47                        A:47 X:97 Y:FF P:27 SP:FB CYC:277 SL:106
E517  F0 04     BEQ $E51D                       A:47 X:97 Y:FF P:27 SP:FB CYC:283 SL:106
E51D  60        RTS                             A:47 X:97 Y:FF P:27 SP:FB CYC:292 SL:106
C62F  20 A3 C6  JSR $C6A3                       A:47 X:97 Y:FF P:27 SP:FD CYC:310 SL:106
C6A3  A0 4E     LDY #$4E                        A:47 X:97 Y:FF P:27 SP:FB CYC:328 SL:106
C6A5  A9 FF     LDA #$FF                        A:47 X:97 Y:4E P:25 SP:FB CYC:334 SL:106
C6A7  85 01     STA $01 = FF                    A:FF X:97 Y:4E P:A5 SP:FB CYC:340 SL:106
C6A9  20 B0 C6  JSR $C6B0                       A:FF X:97 Y:4E P:A5 SP:FB CYC:  8 SL:107
C6B0  A9 FF     LDA #$FF                        A:FF X:97 Y:4E P:A5 SP:F9 CYC: 26 SL:107
C6B2  48        PHA                             A:FF X:97 Y:4E P:A5 SP:F9 CYC: 32 SL:107
C6B3  A9 AA     LDA #$AA                        A:FF X:97 Y:4E P:A5 SP:F8 CYC: 41 SL:107
C6B5  D0 05     BNE $C6BC                       A:AA X:97 Y:4E P:A5 SP:F8 CYC: 47 SL:107
C6BC  28        PLP                             A:AA X:97 Y:4E P:A5 SP:F8 CYC: 56 SL:107
C6BD  04 A9    *NOP $A9 = 00                    A:AA X:97 Y:4E P:EF SP:F9 CYC: 68 SL:107
C6BF  44 A9    *NOP $A9 = 00                    A:AA X:97 Y:4E P:EF SP:F9 CYC: 77 SL:107
C6C1  64 A9    *NOP $A9 = 00                    A:AA X:97 Y:4E P:EF SP:F9 CYC: 86 SL:107
C6C3  EA        NOP                             A:AA X:97 Y:4E P:EF SP:F9 CYC: 95 SL:107
C6C4  EA        NOP                             A:AA X:97 Y:4E P:EF SP:F9 CYC:101 SL:107
C6C5  EA        NOP                             A:AA X:97 Y:4E P:EF SP:F9 CYC:107 SL:107
C6C6  EA        NOP                             A:AA X:97 Y:4E P:EF SP:F9 CYC:113 SL:107
C6C7  08        PHP                             A:AA X:97 Y:4E P:EF SP:F9 CYC:119 SL:107
C6C8  48        PHA                             A:AA X:97 Y:4E P:EF SP:F8 CYC:128 SL:107
C6C9  0C A9 A9 *NOP $A9A9 = A9                  A:AA X:97 Y:4E P:EF SP:F7 CYC:137 SL:107
C6CC  EA        NOP                             A:AA X:97 Y:4E P:EF SP:F7 CYC:149 SL:107
C6CD  EA        NOP                             A:AA X:97 Y:4E P:EF SP:F7 CYC:155 SL:107
C6CE  EA        NOP                             A:AA X:97 Y:4E P:EF SP:F7 CYC:161 SL:107
C6CF  EA        NOP                             A:AA X:97 Y:4E P:EF SP:F7 CYC:167 SL:107
C6D0  08        PHP                             A:AA X:97 Y:4E P:EF SP:F7 CYC:173 SL:107
C6D1  48        PHA                             A:AA X:97 Y:4E P:EF SP:F6 CYC:182 SL:107
C6D2  14 A9    *NOP $A9,X @ 40 = 00             A:AA X:97 Y:4E P:EF SP:F5 CYC:191 SL:107
C6D4  34 A9    *NOP $A9,X @ 40 = 00             A:AA X:97 Y:4E P:EF SP:F5 CYC:203 SL:107
C6D6  54 A9    *NOP $A9,X @ 40 = 00             A:AA X:97 Y:4E P:EF SP:F5 CYC:215 SL:107
C6D8  74 A9    *NOP $A9,X @ 40 = 00             A:AA X:97 Y:4E P:EF SP:F5 CYC:227 SL:107
C6DA  D4 A9    *NOP $A9,X @ 40 = 00             A:AA X:97 Y:4E P:EF SP:F5 CYC:239 SL:107
C6DC  F4 A9    *NOP $A9,X @ 40 = 00             A:AA X:97 Y:4E P:EF SP:F5 CYC:251 SL:107
C6DE  EA        NOP                             A:AA X:97 Y:4E P:EF SP:F5 CYC:263 SL:107
C6DF  EA        NOP                             A:AA X:97 Y:4E P:EF SP:F5 CYC:269 SL:107
C6E0  EA        NOP                             A:AA X:97 Y:4E P:EF SP:F5 CYC:275 SL:107
C6E1  EA        NOP                             A:AA X:97 Y:4E P:EF SP:F5 CYC:281 SL:107
C6E2  08        PHP                             A:AA X:97 Y:4E P:EF SP:F5 CYC:287 SL:107
C6E3  48        PHA                             A:AA X:97 Y:4E P:EF SP:F4 CYC:296 SL:107
C6E4  1A       *NOP                             A:AA X:97 Y:4E P:EF SP:F3 CYC:305 SL:107
C6E5  3A       *NOP                             A:AA X:97 Y:4E P:EF SP:F3 CYC:311 SL:107
C6E6  5A       *NOP                             A:AA X:97 Y:4E P:EF SP:F3 CYC:317 SL:107
C6E7  7A       *NOP                             A:AA X:97 Y:4E P:EF SP:F3 CYC:323 SL:107
C6E8  DA       *NOP                             A:AA X:97 Y:4E P:EF SP:F3 CYC:329 SL:107
C6E9  FA       *NOP                             A:AA X:97 Y:4E P:EF SP:F3 CYC:335 SL:107
C6EA  80 89    *NOP #$89                        A:AA X:97 Y:4E P:EF SP:F3 CYC:  0 SL:108
C6EC  EA        NOP                             A:AA X:97 Y:4E P:EF SP:F3 CYC:  6 SL:108
C6ED  EA        NOP                             A:AA X:97 Y:4E P:EF SP:F3 CYC: 12 SL:108
C6EE  EA        NOP                             A:AA X:97 Y:4E P:EF SP:F3 CYC: 18 SL:108
C6EF  EA        NOP                             A:AA X:97 Y:4E P:EF SP:F3 CYC: 24 SL:108
C6F0  08        PHP                             A:AA X:97 Y:4E P:EF SP:F3 CYC: 30 SL:108
C6F1  48        PHA                             A:AA X:97 Y:4E P:EF SP:F2 CYC: 39 SL:108
C6F2  1C A9 A9 *NOP $A9A9,X @ AA40 = 00         A:AA X:97 Y:4E P:EF SP:F1 CYC: 48 SL:108
C6F5  3C A9 A9 *NOP $A9A9,X @ AA40 = 00         A:AA X:97 Y:4E P:EF SP:F1 CYC: 63 SL:108
C6F8  5C A9 A9 *NOP $A9A9,X @ AA40 = 00         A:AA X:97 Y:4E P:EF SP:F1 CYC: 78 SL:108
C6FB  7C A9 A9 *NOP $A9A9,X @ AA40 = 00         A:AA X:97 Y:4E P:EF SP:F1 CYC: 93 SL:108
C6FE  DC A9 A9 *NOP $A9A9,X @ AA40 = 00         A:AA X:97 Y:4E P:EF SP:F1 CYC:108 SL:108
C701  FC A9 A9 *NOP $A9A9,X @ AA40 = 00         A:AA X:97 Y:4E P:EF SP:F1 CYC:123 SL:108
C704  EA        NOP                             A:AA X:97 Y:4E P:EF SP:F1 CYC:138 SL:108
C705  EA        NOP                             A:AA X:97 Y:4E P:EF SP:F1 CYC:144 SL:108
C706  EA        NOP                             A:AA X:97 Y:4E P:EF SP:F1 CYC:150 SL:108
C707  EA        NOP                             A:AA X:97 Y:4E P:EF SP:F1 CYC:156 SL:108
C708  08        PHP                             A:AA X:97 Y:4E P:EF SP:F1 CYC:162 SL:108
C709  48        PHA                             A:AA X:97 Y:4E P:EF SP:F0 CYC:171 SL:108
C70A  A2 05     LDX #$05                        A:AA X:97 Y:4E P:EF SP:EF CYC:180 SL:108
C70C  68        PLA                             A:AA X:05 Y:4E P:6D SP:EF CYC:186 SL:108
C70D  C9 55     CMP #$55                        A:AA X:05 Y:4E P:ED SP:F0 CYC:198 SL:108
C70F  F0 0A     BEQ $C71B                       A:AA X:05 Y:4E P:6D SP:F0 CYC:204 SL:108
C711  C9 AA     CMP #$AA                        A:AA X:05 Y:4E P:6D SP:F0 CYC:210 SL:108
C713  F0 06     BEQ $C71B                       A:AA X:05 Y:4E P:6F SP:F0 CYC:216 SL:108
C71B  68        PLA                             A:AA X:05 Y:4E P:6F SP:F0 CYC:225 SL:108
C71C  29 CB     AND #$CB                        A:FF X:05 Y:4E P:ED SP:F1 CYC:237 SL:108
C71E  C9 00     CMP #$00                        A:CB X:05 Y:4E P:ED SP:F1 CYC:243 SL:108
C720  F0 06     BEQ $C728                       A:CB X:05 Y:4E P:ED SP:F1 CYC:249 SL:108
C722  C9 CB     CMP #$CB                        A:CB X:05 Y:4E P:ED SP:F1 CYC:255 SL:108
C724  F0 02     BEQ $C728                       A:CB X:05 Y:4E P:6F SP:F1 CYC:261 SL:108
C728  C8        INY                             A:CB X:05 Y:4E P:6F SP:F1 CYC:270 SL:108
C729  CA        DEX                             A:CB X:05 Y:4F P:6D SP:F1 CYC:276 SL:108
C72A  D0 E0     BNE $C70C                       A:CB X:04 Y:4F P:6D SP:F1 CYC:282 SL:108
C70C  68        PLA                             A:CB X:04 Y:4F P:6D SP:F1 CYC:291 SL:108
C70D  C9 55     CMP #$55                        A:AA X:04 Y:4F P:ED SP:F2 CYC:303 SL:108
C70F  F0 0A     BEQ $C71B                       A:AA X:04 Y:4F P:6D SP:F2 CYC:309 SL:108
C711  C9 AA     CMP #$AA                        A:AA X:04 Y:4F P:6D SP:F2 CYC:315 SL:108
C713  F0 06     BEQ $C71B                       A:AA X:04 Y:4F P:6F SP:F2 CYC:321 SL:108
C71B  68        PLA                             A:AA X:04 Y:4F P:6F SP:F2 CYC:330 SL:108
C71C  29 CB     AND #$CB                        A:FF X:04 Y:4F P:ED SP:F3 CYC:  1 SL:109
C71E  C9 00     CMP #$00                        A:CB X:04 Y:4F P:ED SP:F3 CYC:  7 SL:109
C720  F0 06     BEQ $C728                       A:CB X:04 Y:4F P:ED SP:F3 CYC: 13 SL:109
C722  C9 CB     CMP #$CB                        A:CB X:04 Y:4F P:ED SP:F3 CYC: 19 SL:109
C724  F0 02     BEQ $C728                       A:CB X:04 Y:4F P:6F SP:F3 CYC: 25 SL:109
C728  C8        INY                             A:CB X:04 Y:4F P:6F SP:F3 CYC: 34 SL:109
C729  CA        DEX                             A:CB X:04 Y:50 P:6D SP:F3 CYC: 40 SL:109
C72A  D0 E0     BNE $C70C                       A:CB X:03 Y:50 P:6D SP:F3 CYC: 46 SL:109
C70C  68        PLA                             A:CB X:03 Y:50 P:6D SP:F3 CYC: 55 SL:109
C70D  C9 55     CMP #$55                        A:AA X:03 Y:50 P:ED SP:F4 CYC: 67 SL:109
C70F  F0 0A     BEQ $C71B                       A:AA X:03 Y:50 P:6D SP:F4 CYC: 73 SL:109
C711  C9 AA     CMP #$AA                        A:AA X:03 Y:50 P:6D SP:F4 CYC: 79 SL:109
C713  F0 06     BEQ $C71B                       A:AA X:03 Y:50 P:6F SP:F4 CYC: 85 SL:109
C71B  68        PLA                             A:AA X:03 Y:50 P:6F SP:F4 CYC: 94 SL:109
C71C  29 CB     AND #$CB                        A:FF X:03 Y:50 P:ED SP:F5 CYC:106 SL:109
C71E  C9 00     CMP #$00                        A:CB X:03 Y:50 P:ED SP:F5 CYC:112 SL:109
C720  F0 06     BEQ $C728                       A:CB X:03 Y:50 P:ED SP:F5 CYC:118 SL:109
C722  C9 CB     CMP #$CB                        A:CB X:03 Y:50 P:ED SP:F5 CYC:124 SL:109
C724  F0 02     BEQ $C728                       A:CB X:03 Y:50 P:6F SP:F5 CYC:130 SL:109
C728  C8        INY                             A:CB X:03 Y:50 P:6F SP:F5 CYC:139 SL:109
C729  CA        DEX                             A:CB X:03 Y:51 P:6D SP:F5 CYC:145 SL:109
C72A  D0 E0     BNE $C70C                       A:CB X:02 Y:51 P:6D SP:F5 CYC:151 SL:109
C70C  68        PLA                             A:CB X:02 Y:51 P:6D SP:F5 CYC:160 SL:109
C70D  C9 55     CMP #$55                        A:AA X:02 Y:51 P:ED SP:F6 CYC:172 SL:109
C70F  F0 0A     BEQ $C71B                       A:AA X:02 Y:51 P:6D SP:F6 CYC:178 SL:109
C711  C9 AA     CMP #$AA                        A:AA X:02 Y:51 P:6D SP:F6 CYC:184 SL:109
C713  F0 06     BEQ $C71B                       A:AA X:02 Y:51 P:6F SP:F6 CYC:190 SL:109
C71B  68        PLA                             A:AA X:02 Y:51 P:6F SP:F6 CYC:199 SL:109
C71C  29 CB     AND #$CB                        A:FF X:02 Y:51 P:ED SP:F7 CYC:211 SL:109
C71E  C9 00     CMP #$00                        A:CB X:02 Y:51 P:ED SP:F7 CYC:217 SL:109
C720  F0 06     BEQ $C728                       A:CB X:02 Y:51 P:ED SP:F7 CYC:223 SL:109
C722  C9 CB     CMP #$CB                        A:CB X:02 Y:51 P:ED SP:F7 CYC:229 SL:109
C724  F0 02     BEQ $C728                       A:CB X:02 Y:51 P:6F SP:F7 CYC:235 SL:109
C728  C8        INY                             A:CB X:02 Y:51 P:6F SP:F7 CYC:244 SL:109
C729  CA        DEX                             A:CB X:02 Y:52 P:6D SP:F7 CYC:250 SL:109
C72A  D0 E0     BNE $C70C                       A:CB X:01 Y:52 P:6D SP:F7 CYC:256 SL:109
C70C  68        PLA                             A:CB X:01 Y:52 P:6D SP:F7 CYC:265 SL:109
C70D  C9 55     CMP #$55                        A:AA X:01 Y:52 P:ED SP:F8 CYC:277 SL:109
C70F  F0 0A     BEQ $C71B                       A:AA X:01 Y:52 P:6D SP:F8 CYC:283 SL:109
C711  C9 AA     CMP #$AA                        A:AA X:01 Y:52 P:6D SP:F8 CYC:289 SL:109
C713  F0 06     BEQ $C71B                       A:AA X:01 Y:52 P:6F SP:F8 CYC:295 SL:109
C71B  68        PLA                             A:AA X:01 Y:52 P:6F SP:F8 CYC:304 SL:109
C71C  29 CB     AND #$CB                        A:FF X:01 Y:52 P:ED SP:F9 CYC:316 SL:109
C71E  C9 00     CMP #$00                        A:CB X:01 Y:52 P:ED SP:F9 CYC:322 SL:109
C720  F0 06     BEQ $C728                       A:CB X:01 Y:52 P:ED SP:F9 CYC:328 SL:109
C722  C9 CB     CMP #$CB                        A:CB X:01 Y:52 P:ED SP:F9 CYC:334 SL:109
C724  F0 02     BEQ $C728                       A:CB X:01 Y:52 P:6F SP:F9 CYC:340 SL:109
C728  C8        INY                             A:CB X:01 Y:52 P:6F SP:F9 CYC:  8 SL:110
C729  CA        DEX                             A:CB X:01 Y:53 P:6D SP:F9 CYC: 14 SL:110
C72A  D0 E0     BNE $C70C                       A:CB X:00 Y:53 P:6F SP:F9 CYC: 20 SL:110
C72C  60        RTS                             A:CB X:00 Y:53 P:6F SP:F9 CYC: 26 SL:110
C6AC  20 B7 C6  JSR $C6B7                       A:CB X:00 Y:53 P:6F SP:FB CYC: 44 SL:110
C6B7  A9 34     LDA #$34                        A:CB X:00 Y:53 P:6F SP:F9 CYC: 62 SL:110
C6B9  48        PHA                             A:34 X:00 Y:53 P:6D SP:F9 CYC: 68 SL:110
C6BA  A9 55     LDA #$55                        A:34 X:00 Y:53 P:6D SP:F8 CYC: 77 SL:110
C6BC  28        PLP                             A:55 X:00 Y:53 P:6D SP:F8 CYC: 83 SL:110
C6BD  04 A9    *NOP $A9 = 00                    A:55 X:00 Y:53 P:24 SP:F9 CYC: 95 SL:110
C6BF  44 A9    *NOP $A9 = 00                    A:55 X:00 Y:53 P:24 SP:F9 CYC:104 SL:110
C6C1  64 A9    *NOP $A9 = 00                    A:55 X:00 Y:53 P:24 SP:F9 CYC:113 SL:110
C6C3  EA        NOP                             A:55 X:00 Y:53 P:24 SP:F9 CYC:122 SL:110
C6C4  EA        NOP                             A:55 X:00 Y:53 P:24 SP:F9 CYC:128 SL:110
C6C5  EA        NOP                             A:55 X:00 Y:53 P:24 SP:F9 CYC:134 SL:110
C6C6  EA        NOP                             A:55 X:00 Y:53 P:24 SP:F9 CYC:140 SL:110
C6C7  08        PHP                             A:55 X:00 Y:53 P:24 SP:F9 CYC:146 SL:110
C6C8  48        PHA                             A:55 X:00 Y:53 P:24 SP:F8 CYC:155 SL:110
C6C9  0C A9 A9 *NOP $A9A9 = A9                  A:55 X:00 Y:53 P:24 SP:F7 CYC:164 SL:110
C6CC  EA        NOP                             A:55 X:00 Y:53 P:24 SP:F7 CYC:176 SL:110
C6CD  EA        NOP                             A:55 X:00 Y:53 P:24 SP:F7 CYC:182 SL:110
C6CE  EA        NOP                             A:55 X:00 Y:53 P:24 SP:F7 CYC:188 SL:110
C6CF  EA        NOP                             A:55 X:00 Y:53 P:24 SP:F7 CYC:194 SL:110
C6D0  08        PHP                             A:55 X:00 Y:53 P:24 SP:F7 CYC:200 SL:110
C6D1  48        PHA                             A:55 X:00 Y:53 P:24 SP:F6 CYC:209 SL:110
C6D2  14 A9    *NOP $A9,X @ A9 = 00             A:55 X:00 Y:53 P:24 SP:F5 CYC:218 SL:110
C6D4  34 A9    *NOP $A9,X @ A9 = 00             A:55 X:00 Y:53 P:24 SP:F5 CYC:230 SL:110
C6D6  54 A9    *NOP $A9,X @ A9 = 00             A:55 X:00 Y:53 P:24 SP:F5 CYC:242 SL:110
C6D8  74 A9    *NOP $A9,X @ A9 = 00             A:55 X:00 Y:53 P:24 SP:F5 CYC:254 SL:110
C6DA  D4 A9    *NOP $A9,X @ A9 = 00             A:55 X:00 Y:53 P:24 SP:F5 CYC:266 SL:110
C6DC  F4 A9    *NOP $A9,X @ A9 = 00             A:55 X:00 Y:53 P:24 SP:F5 CYC:278 SL:110
C6DE  EA        NOP                             A:55 X:00 Y:53 P:24 SP:F5 CYC:290 SL:110
C6DF  EA        NOP                             A:55 X:00 Y:53 P:24 SP:F5 CYC:296 SL:110
C6E0  EA        NOP                             A:55 X:00 Y:53 P:24 SP:F5 CYC:302 SL:110
C6E1  EA        NOP                             A:55 X:00 Y:53 P:24 SP:F5 CYC:308 SL:110
C6E2  08        PHP                             A:55 X:00 Y:53 P:24 SP:F5 CYC:314 SL:110
C6E3  48        PHA                             A:55 X:00 Y:53 P:24 SP:F4 CYC:323 SL:110
C6E4  1A       *NOP                             A:55 X:00 Y:53 P:24 SP:F3 CYC:332 SL:110
C6E5  3A       *NOP                             A:55 X:00 Y:53 P:24 SP:F3 CYC:338 SL:110
C6E6  5A       *NOP                             A:55 X:00 Y:53 P:24 SP:F3 CYC:  3 SL:111
C6E7  7A       *NOP                             A:55 X:00 Y:53 P:24 SP:F3 CYC:  9 SL:111
C6E8  DA       *NOP                             A:55 X:00 Y:53 P:24 SP:F3 CYC: 15 SL:111
C6E9  FA       *NOP                             A:55 X:00 Y:53 P:24 SP:F3 CYC: 21 SL:111
C6EA  80 89    *NOP #$89                        A:55 X:00 Y:53 P:24 SP:F3 CYC: 27 SL:111
C6EC  EA        NOP                             A:55 X:00 Y:53 P:24 SP:F3 CYC: 33 SL:111
C6ED  EA        NOP                             A:55 X:00 Y:53 P:24 SP:F3 CYC: 39 SL:111
C6EE  EA        NOP                             A:55 X:00 Y:53 P:24 SP:F3 CYC: 45 SL:111
C6EF  EA        NOP                             A:55 X:00 Y:53 P:24 SP:F3 CYC: 51 SL:111
C6F0  08        PHP                             A:55 X:00 Y:53 P:24 SP:F3 CYC: 57 SL:111
C6F1  48        PHA                             A:55 X:00 Y:53 P:24 SP:F2 CYC: 66 SL:111
C6F2  1C A9 A9 *NOP $A9A9,X @ A9A9 = A9         A:55 X:00 Y:53 P:24 SP:F1 CYC: 75 SL:111
C6F5  3C A9 A9 *NOP $A9A9,X @ A9A9 = A9         A:55 X:00 Y:53 P:24 SP:F1 CYC: 87 SL:111
C6F8  5C A9 A9 *NOP $A9A9,X @ A9A9 = A9         A:55 X:00 Y:53 P:24 SP:F1 CYC: 99 SL:111
C6FB  7C A9 A9 *NOP $A9A9,X @ A9A9 = A9         A:55 X:00 Y:53 P:24 SP:F1 CYC:111 SL:111
C6FE  DC A9 A9 *NOP $A9A9,X @ A9A9 = A9         A:55 X:00 Y:53 P:24 SP:F1 CYC:123 SL:111
C701  FC A9 A9 *NOP $A9A9,X @ A9A9 = A9         A:55 X:00 Y:53 P:24 SP:F1 CYC:135 SL:111
C704  EA        NOP                             A:55 X:00 Y:53 P:24 SP:F1 CYC:147 SL:111
C705  EA        NOP                             A:55 X:00 Y:53 P:24 SP:F1 CYC:153 SL:111
C706  EA        NOP                             A:55 X:00 Y:53 P:24 SP:F1 CYC:159 SL:111
C707  EA        NOP                             A:55 X:00 Y:53 P:24 SP:F1 CYC:165 SL:111
C708  08        PHP                             A:55 X:00 Y:53 P:24 SP:F1 CYC:171 SL:111
C709  48        PHA                             A:55 X:00 Y:53 P:24 SP:F0 CYC:180 SL:111
C70A  A2 05     LDX #$05                        A:55 X:00 Y:53 P:24 SP:EF CYC:189 SL:111
C70C  68        PLA                             A:55 X:05 Y:53 P:24 SP:EF CYC:195 SL:111
C70D  C9 55     CMP #$55                        A:55 X:05 Y:53 P:24 SP:F0 CYC:207 SL:111
C70F  F0 0A     BEQ $C71B                       A:55 X:05 Y:53 P:27 SP:F0 CYC:213 SL:111
C71B  68        PLA                             A:55 X:05 Y:53 P:27 SP:F0 CYC:222 SL:111
C71C  29 CB     AND #$CB                        A:34 X:05 Y:53 P:25 SP:F1 CYC:234 SL:111
C71E  C9 00     CMP #$00                        A:00 X:05 Y:53 P:27 SP:F1 CYC:240 SL:111
C720  F0 06     BEQ $C728                       A:00 X:05 Y:53 P:27 SP:F1 CYC:246 SL:111
C728  C8        INY                             A:00 X:05 Y:53 P:27 SP:F1 CYC:255 SL:111
C729  CA        DEX                             A:00 X:05 Y:54 P:25 SP:F1 CYC:261 SL:111
C72A  D0 E0     BNE $C70C                       A:00 X:04 Y:54 P:25 SP:F1 CYC:267 SL:111
C70C  68        PLA                             A:00 X:04 Y:54 P:25 SP:F1 CYC:276 SL:111
C70D  C9 55     CMP #$55                        A:55 X:04 Y:54 P:25 SP:F2 CYC:288 SL:111
C70F  F0 0A     BEQ $C71B                       A:55 X:04 Y:54 P:27 SP:F2 CYC:294 SL:111
C71B  68        PLA                             A:55 X:04 Y:54 P:27 SP:F2 CYC:303 SL:111
C71C  29 CB     AND #$CB                        A:34 X:04 Y:54 P:25 SP:F3 CYC:315 SL:111
C71E  C9 00     CMP #$00                        A:00 X:04 Y:54 P:27 SP:F3 CYC:321 SL:111
C720  F0 06     BEQ $C728                       A:00 X:04 Y:54 P:27 SP:F3 CYC:327 SL:111
C728  C8        INY                             A:00 X:04 Y:54 P:27 SP:F3 CYC:336 SL:111
C729  CA        DEX                             A:00 X:04 Y:55 P:25 SP:F3 CYC:  1 SL:112
C72A  D0 E0     BNE $C70C                       A:00 X:03 Y:55 P:25 SP:F3 CYC:  7 SL:112
C70C  68        PLA                             A:00 X:03 Y:55 P:25 SP:F3 CYC: 16 SL:112
C70D  C9 55     CMP #$55                        A:55 X:03 Y:55 P:25 SP:F4 CYC: 28 SL:112
C70F  F0 0A     BEQ $C71B                       A:55 X:03 Y:55 P:27 SP:F4 CYC: 34 SL:112
C71B  68        PLA                             A:55 X:03 Y:55 P:27 SP:F4 CYC: 43 SL:112
C71C  29 CB     AND #$CB                        A:34 X:03 Y:55 P:25 SP:F5 CYC: 55 SL:112
C71E  C9 00     CMP #$00                        A:00 X:03 Y:55 P:27 SP:F5 CYC: 61 SL:112
C720  F0 06     BEQ $C728                       A:00 X:03 Y:55 P:27 SP:F5 CYC: 67 SL:112
C728  C8        INY                             A:00 X:03 Y:55 P:27 SP:F5 CYC: 76 SL:112
C729  CA        DEX                             A:00 X:03 Y:56 P:25 SP:F5 CYC: 82 SL:112
C72A  D0 E0     BNE $C70C                       A:00 X:02 Y:56 P:25 SP:F5 CYC: 88 SL:112
C70C  68        PLA                             A:00 X:02 Y:56 P:25 SP:F5 CYC: 97 SL:112
C70D  C9 55     CMP #$55                        A:55 X:02 Y:56 P:25 SP:F6 CYC:109 SL:112
C70F  F0 0A     BEQ $C71B                       A:55 X:02 Y:56 P:27 SP:F6 CYC:115 SL:112
C71B  68        PLA                             A:55 X:02 Y:56 P:27 SP:F6 CYC:124 SL:112
C71C  29 CB     AND #$CB                        A:34 X:02 Y:56 P:25 SP:F7 CYC:136 SL:112
C71E  C9 00     CMP #$00                        A:00 X:02 Y:56 P:27 SP:F7 CYC:142 SL:112
C720  F0 06     BEQ $C728                       A:00 X:02 Y:56 P:27 SP:F7 CYC:148 SL:112
C728  C8        INY                             A:00 X:02 Y:56 P:27 SP:F7 CYC:157 SL:112
C729  CA        DEX                             A:00 X:02 Y:57 P:25 SP:F7 CYC:163 SL:112
C72A  D0 E0     BNE $C70C                       A:00 X:01 Y:57 P:25 SP:F7 CYC:169 SL:112
C70C  68        PLA                             A:00 X:01 Y:57 P:25 SP:F7 CYC:178 SL:112
C70D  C9 55     CMP #$55                        A:55 X:01 Y:57 P:25 SP:F8 CYC:190 SL:112
C70F  F0 0A     BEQ $C71B                       A:55 X:01 Y:57 P:27 SP:F8 CYC:196 SL:112
C71B  68        PLA                             A:55 X:01 Y:57 P:27 SP:F8 CYC:205 SL:112
C71C  29 CB     AND #$CB                        A:34 X:01 Y:57 P:25 SP:F9 CYC:217 SL:112
C71E  C9 00     CMP #$00                        A:00 X:01 Y:57 P:27 SP:F9 CYC:223 SL:112
C720  F0 06     BEQ $C728                       A:00 X:01 Y:57 P:27 SP:F9 CYC:229 SL:112
C728  C8        INY                             A:00 X:01 Y:57 P:27 SP:F9 CYC:238 SL:112
C729  CA        DEX                             A:00 X:01 Y:58 P:25 SP:F9 CYC:244 SL:112
C72A  D0 E0     BNE $C70C                       A:00 X:00 Y:58 P:27 SP:F9 CYC:250 SL:112
C72C  60        RTS                             A:00 X:00 Y:58 P:27 SP:F9 CYC:256 SL:112
C6AF  60        RTS                             A:00 X:00 Y:58 P:27 SP:FB CYC:274 SL:112
C632  20 1E E5  JSR $E51E                       A:00 X:00 Y:58 P:27 SP:FD CYC:292 SL:112
E51E  A9 55     LDA #$55                        A:00 X:00 Y:58 P:27 SP:FB CYC:310 SL:112
E520  8D 80 05  STA $0580 = 00                  A:55 X:00 Y:58 P:25 SP:FB CYC:316 SL:112
E523  A9 AA     LDA #$AA                        A:55 X:00 Y:58 P:25 SP:FB CYC:328 SL:112
E525  8D 32 04  STA $0432 = 00                  A:AA X:00 Y:58 P:A5 SP:FB CYC:334 SL:112
E528  A9 80     LDA #$80                        A:AA X:00 Y:58 P:A5 SP:FB CYC:  5 SL:113
E52A  85 43     STA $43 = 00                    A:80 X:00 Y:58 P:A5 SP:FB CYC: 11 SL:113
E52C  A9 05     LDA #$05                        A:80 X:00 Y:58 P:A5 SP:FB CYC: 20 SL:113
E52E  85 44     STA $44 = 00                    A:05 X:00 Y:58 P:25 SP:FB CYC: 26 SL:113
E530  A9 32     LDA #$32                        A:05 X:00 Y:58 P:25 SP:FB CYC: 35 SL:113
E532  85 45     STA $45 = 00                    A:32 X:00 Y:58 P:25 SP:FB CYC: 41 SL:113
E534  A9 04     LDA #$04                        A:32 X:00 Y:58 P:25 SP:FB CYC: 50 SL:113
E536  85 46     STA $46 = 00                    A:04 X:00 Y:58 P:25 SP:FB CYC: 56 SL:113
E538  A2 03     LDX #$03                        A:04 X:00 Y:58 P:25 SP:FB CYC: 65 SL:113
E53A  A0 77     LDY #$77                        A:04 X:03 Y:58 P:25 SP:FB CYC: 71 SL:113
E53C  A9 FF     LDA #$FF                        A:04 X:03 Y:77 P:25 SP:FB CYC: 77 SL:113
E53E  85 01     STA $01 = FF                    A:FF X:03 Y:77 P:A5 SP:FB CYC: 83 SL:113
E540  24 01     BIT $01 = FF                    A:FF X:03 Y:77 P:A5 SP:FB CYC: 92 SL:113
E542  38        SEC                             A:FF X:03 Y:77 P:E5 SP:FB CYC:101 SL:113
E543  A9 00     LDA #$00                        A:FF X:03 Y:77 P:E5 SP:FB CYC:107 SL:113
E545  A3 40    *LAX ($40,X) @ 43 = 0580 = 55    A:00 X:03 Y:77 P:67 SP:FB CYC:113 SL:113
E547  EA        NOP                             A:55 X:55 Y:77 P:65 SP:FB CYC:131 SL:113
E548  EA        NOP                             A:55 X:55 Y:77 P:65 SP:FB CYC:137 SL:113
E549  EA        NOP                             A:55 X:55 Y:77 P:65 SP:FB CYC:143 SL:113
E54A  EA        NOP                             A:55 X:55 Y:77 P:65 SP:FB CYC:149 SL:113
E54B  F0 12     BEQ $E55F                       A:55 X:55 Y:77 P:65 SP:FB CYC:155 SL:113
E54D  30 10     BMI $E55F                       A:55 X:55 Y:77 P:65 SP:FB CYC:161 SL:113
E54F  50 0E     BVC $E55F                       A:55 X:55 Y:77 P:65 SP:FB CYC:167 SL:113
E551  90 0C     BCC $E55F                       A:55 X:55 Y:77 P:65 SP:FB CYC:173 SL:113
E553  C9 55     CMP #$55                        A:55 X:55 Y:77 P:65 SP:FB CYC:179 SL:113
E555  D0 08     BNE $E55F                       A:55 X:55 Y:77 P:67 SP:FB CYC:185 SL:113
E557  E0 55     CPX #$55                        A:55 X:55 Y:77 P:67 SP:FB CYC:191 SL:113
E559  D0 04     BNE $E55F                       A:55 X:55 Y:77 P:67 SP:FB CYC:197 SL:113
E55B  C0 77     CPY #$77                        A:55 X:55 Y:77 P:67 SP:FB CYC:203 SL:113
E55D  F0 04     BEQ $E563                       A:55 X:55 Y:77 P:67 SP:FB CYC:209 SL:113
E563  A2 05     LDX #$05                        A:55 X:55 Y:77 P:67 SP:FB CYC:218 SL:113
E565  A0 33     LDY #$33                        A:55 X:05 Y:77 P:65 SP:FB CYC:224 SL:113
E567  B8        CLV                             A:55 X:05 Y:33 P:65 SP:FB CYC:230 SL:113
E568  18        CLC                             A:55 X:05 Y:33 P:25 SP:FB CYC:236 SL:113
E569  A9 00     LDA #$00                        A:55 X:05 Y:33 P:24 SP:FB CYC:242 SL:113
E56B  A3 40    *LAX ($40,X) @ 45 = 0432 = AA    A:00 X:05 Y:33 P:26 SP:FB CYC:248 SL:113
E56D  EA        NOP                             A:AA X:AA Y:33 P:A4 SP:FB CYC:266 SL:113
E56E  EA        NOP                             A:AA X:AA Y:33 P:A4 SP:FB CYC:272 SL:113
E56F  EA        NOP                             A:AA X:AA Y:33 P:A4 SP:FB CYC:278 SL:113
E570  EA        NOP                             A:AA X:AA Y:33 P:A4 SP:FB CYC:284 SL:113
E571  F0 12     BEQ $E585                       A:AA X:AA Y:33 P:A4 SP:FB CYC:290 SL:113
E573  10 10     BPL $E585                       A:AA X:AA Y:33 P:A4 SP:FB CYC:296 SL:113
E575  70 0E     BVS $E585                       A:AA X:AA Y:33 P:A4 SP:FB CYC:302 SL:113
E577  B0 0C     BCS $E585                       A:AA X:AA Y:33 P:A4 SP:FB CYC:308 SL:113
E579  C9 AA     CMP #$AA                        A:AA X:AA Y:33 P:A4 SP:FB CYC:314 SL:113
E57B  D0 08     BNE $E585                       A:AA X:AA Y:33 P:27 SP:FB CYC:320 SL:113
E57D  E0 AA     CPX #$AA                        A:AA X:AA Y:33 P:27 SP:FB CYC:326 SL:113
E57F  D0 04     BNE $E585                       A:AA X:AA Y:33 P:27 SP:FB CYC:332 SL:113
E581  C0 33     CPY #$33                        A:AA X:AA Y:33 P:27 SP:FB CYC:338 SL:113
E583  F0 04     BEQ $E589                       A:AA X:AA Y:33 P:27 SP:FB CYC:  3 SL:114
E589  A9 87     LDA #$87                        A:AA X:AA Y:33 P:27 SP:FB CYC: 12 SL:114
E58B  85 67     STA $67 = 00                    A:87 X:AA Y:33 P:A5 SP:FB CYC: 18 SL:114
E58D  A9 32     LDA #$32                        A:87 X:AA Y:33 P:A5 SP:FB CYC: 27 SL:114
E58F  85 68     STA $68 = 00                    A:32 X:AA Y:33 P:25 SP:FB CYC: 33 SL:114
E591  A0 57     LDY #$57                        A:32 X:AA Y:33 P:25 SP:FB CYC: 42 SL:114
E593  24 01     BIT $01 = FF                    A:32 X:AA Y:57 P:25 SP:FB CYC: 48 SL:114
E595  38        SEC                             A:32 X:AA Y:57 P:E5 SP:FB CYC: 57 SL:114
E596  A9 00     LDA #$00                        A:32 X:AA Y:57 P:E5 SP:FB CYC: 63 SL:114
E598  A7 67    *LAX $67 = 87                    A:00 X:AA Y:57 P:67 SP:FB CYC: 69 SL:114
E59A  EA        NOP                             A:87 X:87 Y:57 P:E5 SP:FB CYC: 78 SL:114
E59B  EA        NOP                             A:87 X:87 Y:57 P:E5 SP:FB CYC: 84 SL:114
E59C  EA        NOP                             A:87 X:87 Y:57 P:E5 SP:FB CYC: 90 SL:114
E59D  EA        NOP                             A:87 X:87 Y:57 P:E5 SP:FB CYC: 96 SL:114
E59E  F0 12     BEQ $E5B2                       A:87 X:87 Y:57 P:E5 SP:FB CYC:102 SL:114
E5A0  10 10     BPL $E5B2                       A:87 X:87 Y:57 P:E5 SP:FB CYC:108 SL:114
E5A2  50 0E     BVC $E5B2                       A:87 X:87 Y:57 P:E5 SP:FB CYC:114 SL:114
E5A4  90 0C     BCC $E5B2                       A:87 X:87 Y:57 P:E5 SP:FB CYC:120 SL:114
E5A6  C9 87     CMP #$87                        A:87 X:87 Y:57 P:E5 SP:FB CYC:126 SL:114
E5A8  D0 08     BNE $E5B2                       A:87 X:87 Y:57 P:67 SP:FB CYC:132 SL:114
E5AA  E0 87     CPX #$87                        A:87 X:87 Y:57 P:67 SP:FB CYC:138 SL:114
E5AC  D0 04     BNE $E5B2                       A:87 X:87 Y:57 P:67 SP:FB CYC:144 SL:114
E5AE  C0 57     CPY #$57                        A:87 X:87 Y:57 P:67 SP:FB CYC:150 SL:114
E5B0  F0 04     BEQ $E5B6                       A:87 X:87 Y:57 P:67 SP:FB CYC:156 SL:114
E5B6  A0 53     LDY #$53                        A:87 X:87 Y:57 P:67 SP:FB CYC:165 SL:114
E5B8  B8        CLV                             A:87 X:87 Y:53 P:65 SP:FB CYC:171 SL:114
E5B9  18        CLC                             A:87 X:87 Y:53 P:25 SP:FB CYC:177 SL:114
E5BA  A9 00     LDA #$00                        A:87 X:87 Y:53 P:24 SP:FB CYC:183 SL:114
E5BC  A7 68    *LAX $68 = 32                    A:00 X:87 Y:53 P:26 SP:FB CYC:189 SL:114
E5BE  EA        NOP                             A:32 X:32 Y:53 P:24 SP:FB CYC:198 SL:114
E5BF  EA        NOP                             A:32 X:32 Y:53 P:24 SP:FB CYC:204 SL:114
E5C0  EA        NOP                             A:32 X:32 Y:53 P:24 SP:FB CYC:210 SL:114
E5C1  EA        NOP                             A:32 X:32 Y:53 P:24 SP:FB CYC:216 SL:114
E5C2  F0 12     BEQ $E5D6                       A:32 X:32 Y:53 P:24 SP:FB CYC:222 SL:114
E5C4  30 10     BMI $E5D6                       A:32 X:32 Y:53 P:24 SP:FB CYC:228 SL:114
E5C6  70 0E     BVS $E5D6                       A:32 X:32 Y:53 P:24 SP:FB CYC:234 SL:114
E5C8  B0 0C     BCS $E5D6                       A:32 X:32 Y:53 P:24 SP:FB CYC:240 SL:114
E5CA  C9 32     CMP #$32                        A:32 X:32 Y:53 P:24 SP:FB CYC:246 SL:114
E5CC  D0 08     BNE $E5D6                       A:32 X:32 Y:53 P:27 SP:FB CYC:252 SL:114
E5CE  E0 32     CPX #$32                        A:32 X:32 Y:53 P:27 SP:FB CYC:258 SL:114
E5D0  D0 04     BNE $E5D6                       A:32 X:32 Y:53 P:27 SP:FB CYC:264 SL:114
E5D2  C0 53     CPY #$53                        A:32 X:32 Y:53 P:27 SP:FB CYC:270 SL:114
E5D4  F0 04     BEQ $E5DA                       A:32 X:32 Y:53 P:27 SP:FB CYC:276 SL:114
E5DA  A9 87     LDA #$87                        A:32 X:32 Y:53 P:27 SP:FB CYC:285 SL:114
E5DC  8D 77 05  STA $0577 = 00                  A:87 X:32 Y:53 P:A5 SP:FB CYC:291 SL:114
E5DF  A9 32     LDA #$32                        A:87 X:32 Y:53 P:A5 SP:FB CYC:303 SL:114
E5E1  8D 78 05  STA $0578 = 00                  A:32 X:32 Y:53 P:25 SP:FB CYC:309 SL:114
E5E4  A0 57     LDY #$57                        A:32 X:32 Y:53 P:25 SP:FB CYC:321 SL:114
E5E6  24 01     BIT $01 = FF                    A:32 X:32 Y:57 P:25 SP:FB CYC:327 SL:114
E5E8  38        SEC                             A:32 X:32 Y:57 P:E5 SP:FB CYC:336 SL:114
E5E9  A9 00     LDA #$00                        A:32 X:32 Y:57 P:E5 SP:FB CYC:  1 SL:115
E5EB  AF 77 05 *LAX $0577 = 87                  A:00 X:32 Y:57 P:67 SP:FB CYC:  7 SL:115
E5EE  EA        NOP                             A:87 X:87 Y:57 P:E5 SP:FB CYC: 19 SL:115
E5EF  EA        NOP                             A:87 X:87 Y:57 P:E5 SP:FB CYC: 25 SL:115
E5F0  EA        NOP                             A:87 X:87 Y:57 P:E5 SP:FB CYC: 31 SL:115
E5F1  EA        NOP                             A:87 X:87 Y:57 P:E5 SP:FB CYC: 37 SL:115
E5F2  F0 12     BEQ $E606                       A:87 X:87 Y:57 P:E5 SP:FB CYC: 43 SL:115
E5F4  10 10     BPL $E606                       A:87 X:87 Y:57 P:E5 SP:FB CYC: 49 SL:115
E5F6  50 0E     BVC $E606                       A:87 X:87 Y:57 P:E5 SP:FB CYC: 55 SL:115
E5F8  90 0C     BCC $E606                       A:87 X:87 Y:57 P:E5 SP:FB CYC: 61 SL:115
E5FA  C9 87     CMP #$87                        A:87 X:87 Y:57 P:E5 SP:FB CYC: 67 SL:115
E5FC  D0 08     BNE $E606                       A:87 X:87 Y:57 P:67 SP:FB CYC: 73 SL:115
E5FE  E0 87     CPX #$87                        A:87 X:87 Y:57 P:67 SP:FB CYC: 79 SL:115
E600  D0 04     BNE $E606                       A:87 X:87 Y:57 P:67 SP:FB CYC: 85 SL:115
E602  C0 57     CPY #$57                        A:87 X:87 Y:57 P:67 SP:FB CYC: 91 SL:115
E604  F0 04     BEQ $E60A                       A:87 X:87 Y:57 P:67 SP:FB CYC: 97 SL:115
E60A  A0 53     LDY #$53                        A:87 X:87 Y:57 P:67 SP:FB CYC:106 SL:115
E60C  B8        CLV                             A:87 X:87 Y:53 P:65 SP:FB CYC:112 SL:115
E60D  18        CLC                             A:87 X:87 Y:53 P:25 SP:FB CYC:118 SL:115
E60E  A9 00     LDA #$00                        A:87 X:87 Y:53 P:24 SP:FB CYC:124 SL:115
E610  AF 78 05 *LAX $0578 = 32                  A:00 X:87 Y:53 P:26 SP:FB CYC:130 SL:115
E613  EA        NOP                             A:32 X:32 Y:53 P:24 SP:FB CYC:142 SL:115
E614  EA        NOP                             A:32 X:32 Y:53 P:24 SP:FB CYC:148 SL:115
E615  EA        NOP                             A:32 X:32 Y:53 P:24 SP:FB CYC:154 SL:115
E616  EA        NOP                             A:32 X:32 Y:53 P:24 SP:FB CYC:160 SL:115
E617  F0 12     BEQ $E62B                       A:32 X:32 Y:53 P:24 SP:FB CYC:166 SL:115
E619  30 10     BMI $E62B                       A:32 X:32 Y:53 P:24 SP:FB CYC:172 SL:115
E61B  70 0E     BVS $E62B                       A:32 X:32 Y:53 P:24 SP:FB CYC:178 SL:115
E61D  B0 0C     BCS $E62B                       A:32 X:32 Y:53 P:24 SP:FB CYC:184 SL:115
E61F  C9 32     CMP #$32                        A:32 X:32 Y:53 P:24 SP:FB CYC:190 SL:115
E621  D0 08     BNE $E62B                       A:32 X:32 Y:53 P:27 SP:FB CYC:196 SL:115
E623  E0 32     CPX #$32                        A:32 X:32 Y:53 P:27 SP:FB CYC:202 SL:115
E625  D0 04     BNE $E62B                       A:32 X:32 Y:53 P:27 SP:FB CYC:208 SL:115
E627  C0 53     CPY #$53                        A:32 X:32 Y:53 P:27 SP:FB CYC:214 SL:115
E629  F0 04     BEQ $E62F                       A:32 X:32 Y:53 P:27 SP:FB CYC:220 SL:115
E62F  A9 FF     LDA #$FF                        A:32 X:32 Y:53 P:27 SP:FB CYC:229 SL:115
E631  85 43     STA $43 = 80                    A:FF X:32 Y:53 P:A5 SP:FB CYC:235 SL:115
E633  A9 04     LDA #$04                        A:FF X:32 Y:53 P:A5 SP:FB CYC:244 SL:115
E635  85 44     STA $44 = 05                    A:04 X:32 Y:53 P:25 SP:FB CYC:250 SL:115
E637  A9 32     LDA #$32                        A:04 X:32 Y:53 P:25 SP:FB CYC:259 SL:115
E639  85 45     STA $45 = 32                    A:32 X:32 Y:53 P:25 SP:FB CYC:265 SL:115
E63B  A9 04     LDA #$04                        A:32 X:32 Y:53 P:25 SP:FB CYC:274 SL:115
E63D  85 46     STA $46 = 04                    A:04 X:32 Y:53 P:25 SP:FB CYC:280 SL:115
E63F  A9 55     LDA #$55                        A:04 X:32 Y:53 P:25 SP:FB CYC:289 SL:115
E641  8D 80 05  STA $0580 = 55                  A:55 X:32 Y:53 P:25 SP:FB CYC:295 SL:115
E644  A9 AA     LDA #$AA                        A:55 X:32 Y:53 P:25 SP:FB CYC:307 SL:115
E646  8D 32 04  STA $0432 = AA                  A:AA X:32 Y:53 P:A5 SP:FB CYC:313 SL:115
E649  A2 03     LDX #$03                        A:AA X:32 Y:53 P:A5 SP:FB CYC:325 SL:115
E64B  A0 81     LDY #$81                        A:AA X:03 Y:53 P:25 SP:FB CYC:331 SL:115
E64D  24 01     BIT $01 = FF                    A:AA X:03 Y:81 P:A5 SP:FB CYC:337 SL:115
E64F  38        SEC                             A:AA X:03 Y:81 P:E5 SP:FB CYC:  5 SL:116
E650  A9 00     LDA #$00                        A:AA X:03 Y:81 P:E5 SP:FB CYC: 11 SL:116
E652  B3 43    *LAX ($43),Y = 04FF @ 0580 = 55  A:00 X:03 Y:81 P:67 SP:FB CYC: 17 SL:116
E654  EA        NOP                             A:55 X:55 Y:81 P:65 SP:FB CYC: 35 SL:116
E655  EA        NOP                             A:55 X:55 Y:81 P:65 SP:FB CYC: 41 SL:116
E656  EA        NOP                             A:55 X:55 Y:81 P:65 SP:FB CYC: 47 SL:116
E657  EA        NOP                             A:55 X:55 Y:81 P:65 SP:FB CYC: 53 SL:116
E658  F0 12     BEQ $E66C                       A:55 X:55 Y:81 P:65 SP:FB CYC: 59 SL:116
E65A  30 10     BMI $E66C                       A:55 X:55 Y:81 P:65 SP:FB CYC: 65 SL:116
E65C  50 0E     BVC $E66C                       A:55 X:55 Y:81 P:65 SP:FB CYC: 71 SL:116
E65E  90 0C     BCC $E66C                       A:55 X:55 Y:81 P:65 SP:FB CYC: 77 SL:116
E660  C9 55     CMP #$55                        A:55 X:55 Y:81 P:65 SP:FB CYC: 83 SL:116
E662  D0 08     BNE $E66C                       A:55 X:55 Y:81 P:67 SP:FB CYC: 89 SL:116
E664  E0 55     CPX #$55                        A:55 X:55 Y:81 P:67 SP:FB CYC: 95 SL:116
E666  D0 04     BNE $E66C                       A:55 X:55 Y:81 P:67 SP:FB CYC:101 SL:116
E668  C0 81     CPY #$81                        A:55 X:55 Y:81 P:67 SP:FB CYC:107 SL:116
E66A  F0 04     BEQ $E670                       A:55 X:55 Y:81 P:67 SP:FB CYC:113 SL:116
E670  A2 05     LDX #$05                        A:55 X:55 Y:81 P:67 SP:FB CYC:122 SL:116
E672  A0 00     LDY #$00                        A:55 X:05 Y:81 P:65 SP:FB CYC:128 SL:116
E674  B8        CLV                             A:55 X:05 Y:00 P:67 SP:FB CYC:134 SL:116
E675  18        CLC                             A:55 X:05 Y:00 P:27 SP:FB CYC:140 SL:116
E676  A9 00     LDA #$00                        A:55 X:05 Y:00 P:26 SP:FB CYC:146 SL:116
E678  B3 45    *LAX ($45),Y = 0432 @ 0432 = AA  A:00 X:05 Y:00 P:26 SP:FB CYC:152 SL:116
E67A  EA        NOP                             A:AA X:AA Y:00 P:A4 SP:FB CYC:167 SL:116
E67B  EA        NOP                             A:AA X:AA Y:00 P:A4 SP:FB CYC:173 SL:116
E67C  EA        NOP                             A:AA X:AA Y:00 P:A4 SP:FB CYC:179 SL:116
E67D  EA        NOP                             A:AA X:AA Y:00 P:A4 SP:FB CYC:185 SL:116
E67E  F0 12     BEQ $E692                       A:AA X:AA Y:00 P:A4 SP:FB CYC:191 SL:116
E680  10 10     BPL $E692                       A:AA X:AA Y:00 P:A4 SP:FB CYC:197 SL:116
E682  70 0E     BVS $E692                       A:AA X:AA Y:00 P:A4 SP:FB CYC:203 SL:116
E684  B0 0C     BCS $E692                       A:AA X:AA Y:00 P:A4 SP:FB CYC:209 SL:116
E686  C9 AA     CMP #$AA                        A:AA X:AA Y:00 P:A4 SP:FB CYC:215 SL:116
E688  D0 08     BNE $E692                       A:AA X:AA Y:00 P:27 SP:FB CYC:221 SL:116
E68A  E0 AA     CPX #$AA                        A:AA X:AA Y:00 P:27 SP:FB CYC:227 SL:116
E68C  D0 04     BNE $E692                       A:AA X:AA Y:00 P:27 SP:FB CYC:233 SL:116
E68E  C0 00     CPY #$00                        A:AA X:AA Y:00 P:27 SP:FB CYC:239 SL:116
E690  F0 04     BEQ $E696                       A:AA X:AA Y:00 P:27 SP:FB CYC:245 SL:116
E696  A9 87     LDA #$87                        A:AA X:AA Y:00 P:27 SP:FB CYC:254 SL:116
E698  85 67     STA $67 = 87                    A:87 X:AA Y:00 P:A5 SP:FB CYC:260 SL:116
E69A  A9 32     LDA #$32                        A:87 X:AA Y:00 P:A5 SP:FB CYC:269 SL:116
E69C  85 68     STA $68 = 32                    A:32 X:AA Y:00 P:25 SP:FB CYC:275 SL:116
E69E  A0 57     LDY #$57                        A:32 X:AA Y:00 P:25 SP:FB CYC:284 SL:116
E6A0  24 01     BIT $01 = FF                    A:32 X:AA Y:57 P:25 SP:FB CYC:290 SL:116
E6A2  38        SEC                             A:32 X:AA Y:57 P:E5 SP:FB CYC:299 SL:116
E6A3  A9 00     LDA #$00                        A:32 X:AA Y:57 P:E5 SP:FB CYC:305 SL:116
E6A5  B7 10    *LAX $10,Y @ 67 = 87             A:00 X:AA Y:57 P:67 SP:FB CYC:311 SL:116
E6A7  EA        NOP                             A:87 X:87 Y:57 P:E5 SP:FB CYC:323 SL:116
E6A8  EA        NOP                             A:87 X:87 Y:57 P:E5 SP:FB CYC:329 SL:116
E6A9  EA        NOP                             A:87 X:87 Y:57 P:E5 SP:FB CYC:335 SL:116
E6AA  EA        NOP                             A:87 X:87 Y:57 P:E5 SP:FB CYC:  0 SL:117
E6AB  F0 12     BEQ $E6BF                       A:87 X:87 Y:57 P:E5 SP:FB CYC:  6 SL:117
E6AD  10 10     BPL $E6BF                       A:87 X:87 Y:57 P:E5 SP:FB CYC: 12 SL:117
E6AF  50 0E     BVC $E6BF                       A:87 X:87 Y:57 P:E5 SP:FB CYC: 18 SL:117
E6B1  90 0C     BCC $E6BF                       A:87 X:87 Y:57 P:E5 SP:FB CYC: 24 SL:117
E6B3  C9 87     CMP #$87                        A:87 X:87 Y:57 P:E5 SP:FB CYC: 30 SL:117
E6B5  D0 08     BNE $E6BF                       A:87 X:87 Y:57 P:67 SP:FB CYC: 36 SL:117
E6B7  E0 87     CPX #$87                        A:87 X:87 Y:57 P:67 SP:FB CYC: 42 SL:117
E6B9  D0 04     BNE $E6BF                       A:87 X:87 Y:57 P:67 SP:FB CYC: 48 SL:117
E6BB  C0 57     CPY #$57                        A:87 X:87 Y:57 P:67 SP:FB CYC: 54 SL:117
E6BD  F0 04     BEQ $E6C3                       A:87 X:87 Y:57 P:67 SP:FB CYC: 60 SL:117
E6C3  A0 FF     LDY #$FF                        A:87 X:87 Y:57 P:67 SP:FB CYC: 69 SL:117
E6C5  B8        CLV                             A:87 X:87 Y:FF P:E5 SP:FB CYC: 75 SL:117
E6C6  18        CLC                             A:87 X:87 Y:FF P:A5 SP:FB CYC: 81 SL:117
E6C7  A9 00     LDA #$00                        A:87 X:87 Y:FF P:A4 SP:FB CYC: 87 SL:117
E6C9  B7 69    *LAX $69,Y @ 68 = 32             A:00 X:87 Y:FF P:26 SP:FB CYC: 93 SL:117
E6CB  EA        NOP                             A:32 X:32 Y:FF P:24 SP:FB CYC:105 SL:117
E6CC  EA        NOP                             A:32 X:32 Y:FF P:24 SP:FB CYC:111 SL:117
E6CD  EA        NOP                             A:32 X:32 Y:FF P:24 SP:FB CYC:117 SL:117
E6CE  EA        NOP                             A:32 X:32 Y:FF P:24 SP:FB CYC:123 SL:117
E6CF  F0 12     BEQ $E6E3                       A:32 X:32 Y:FF P:24 SP:FB CYC:129 SL:117
E6D1  30 10     BMI $E6E3                       A:32 X:32 Y:FF P:24 SP:FB CYC:135 SL:117
E6D3  70 0E     BVS $E6E3                       A:32 X:32 Y:FF P:24 SP:FB CYC:141 SL:117
E6D5  B0 0C     BCS $E6E3                       A:32 X:32 Y:FF P:24 SP:FB CYC:147 SL:117
E6D7  C9 32     CMP #$32                        A:32 X:32 Y:FF P:24 SP:FB CYC:153 SL:117
E6D9  D0 08     BNE $E6E3                       A:32 X:32 Y:FF P:27 SP:FB CYC:159 SL:117
E6DB  E0 32     CPX #$32                        A:32 X:32 Y:FF P:27 SP:FB CYC:165 SL:117
E6DD  D0 04     BNE $E6E3                       A:32 X:32 Y:FF P:27 SP:FB CYC:171 SL:117
E6DF  C0 FF     CPY #$FF                        A:32 X:32 Y:FF P:27 SP:FB CYC:177 SL:117
E6E1  F0 04     BEQ $E6E7                       A:32 X:32 Y:FF P:27 SP:FB CYC:183 SL:117
E6E7  A9 87     LDA #$87                        A:32 X:32 Y:FF P:27 SP:FB CYC:192 SL:117
E6E9  8D 87 05  STA $0587 = 00                  A:87 X:32 Y:FF P:A5 SP:FB CYC:198 SL:117
E6EC  A9 32     LDA #$32                        A:87 X:32 Y:FF P:A5 SP:FB CYC:210 SL:117
E6EE  8D 88 05  STA $0588 = 00                  A:32 X:32 Y:FF P:25 SP:FB CYC:216 SL:117
E6F1  A0 30     LDY #$30                        A:32 X:32 Y:FF P:25 SP:FB CYC:228 SL:117
E6F3  24 01     BIT $01 = FF                    A:32 X:32 Y:30 P:25 SP:FB CYC:234 SL:117
E6F5  38        SEC                             A:32 X:32 Y:30 P:E5 SP:FB CYC:243 SL:117
E6F6  A9 00     LDA #$00                        A:32 X:32 Y:30 P:E5 SP:FB CYC:249 SL:117
E6F8  BF 57 05 *LAX $0557,Y @ 0587 = 87         A:00 X:32 Y:30 P:67 SP:FB CYC:255 SL:117
E6FB  EA        NOP                             A:87 X:87 Y:30 P:E5 SP:FB CYC:267 SL:117
E6FC  EA        NOP                             A:87 X:87 Y:30 P:E5 SP:FB CYC:273 SL:117
E6FD  EA        NOP                             A:87 X:87 Y:30 P:E5 SP:FB CYC:279 SL:117
E6FE  EA        NOP                             A:87 X:87 Y:30 P:E5 SP:FB CYC:285 SL:117
E6FF  F0 12     BEQ $E713                       A:87 X:87 Y:30 P:E5 SP:FB CYC:291 SL:117
E701  10 10     BPL $E713                       A:87 X:87 Y:30 P:E5 SP:FB CYC:297 SL:117
E703  50 0E     BVC $E713                       A:87 X:87 Y:30 P:E5 SP:FB CYC:303 SL:117
E705  90 0C     BCC $E713                       A:87 X:87 Y:30 P:E5 SP:FB CYC:309 SL:117
E707  C9 87     CMP #$87                        A:87 X:87 Y:30 P:E5 SP:FB CYC:315 SL:117
E709  D0 08     BNE $E713                       A:87 X:87 Y:30 P:67 SP:FB CYC:321 SL:117
E70B  E0 87     CPX #$87                        A:87 X:87 Y:30 P:67 SP:FB CYC:327 SL:117
E70D  D0 04     BNE $E713                       A:87 X:87 Y:30 P:67 SP:FB CYC:333 SL:117
E70F  C0 30     CPY #$30                        A:87 X:87 Y:30 P:67 SP:FB CYC:339 SL:117
E711  F0 04     BEQ $E717                       A:87 X:87 Y:30 P:67 SP:FB CYC:  4 SL:118
E717  A0 40     LDY #$40                        A:87 X:87 Y:30 P:67 SP:FB CYC: 13 SL:118
E719  B8        CLV                             A:87 X:87 Y:40 P:65 SP:FB CYC: 19 SL:118
E71A  18        CLC                             A:87 X:87 Y:40 P:25 SP:FB CYC: 25 SL:118
E71B  A9 00     LDA #$00                        A:87 X:87 Y:40 P:24 SP:FB CYC: 31 SL:118
E71D  BF 48 05 *LAX $0548,Y @ 0588 = 32         A:00 X:87 Y:40 P:26 SP:FB CYC: 37 SL:118
E720  EA        NOP                             A:32 X:32 Y:40 P:24 SP:FB CYC: 49 SL:118
E721  EA        NOP                             A:32 X:32 Y:40 P:24 SP:FB CYC: 55 SL:118
E722  EA        NOP                             A:32 X:32 Y:40 P:24 SP:FB CYC: 61 SL:118
E723  EA        NOP                             A:32 X:32 Y:40 P:24 SP:FB CYC: 67 SL:118
E724  F0 12     BEQ $E738                       A:32 X:32 Y:40 P:24 SP:FB CYC: 73 SL:118
E726  30 10     BMI $E738                       A:32 X:32 Y:40 P:24 SP:FB CYC: 79 SL:118
E728  70 0E     BVS $E738                       A:32 X:32 Y:40 P:24 SP:FB CYC: 85 SL:118
E72A  B0 0C     BCS $E738                       A:32 X:32 Y:40 P:24 SP:FB CYC: 91 SL:118
E72C  C9 32     CMP #$32                        A:32 X:32 Y:40 P:24 SP:FB CYC: 97 SL:118
E72E  D0 08     BNE $E738                       A:32 X:32 Y:40 P:27 SP:FB CYC:103 SL:118
E730  E0 32     CPX #$32                        A:32 X:32 Y:40 P:27 SP:FB CYC:109 SL:118
E732  D0 04     BNE $E738                       A:32 X:32 Y:40 P:27 SP:FB CYC:115 SL:118
E734  C0 40     CPY #$40                        A:32 X:32 Y:40 P:27 SP:FB CYC:121 SL:118
E736  F0 04     BEQ $E73C                       A:32 X:32 Y:40 P:27 SP:FB CYC:127 SL:118
E73C  60        RTS                             A:32 X:32 Y:40 P:27 SP:FB CYC:136 SL:118
C635  20 3D E7  JSR $E73D                       A:32 X:32 Y:40 P:27 SP:FD CYC:154 SL:118
E73D  A9 C0     LDA #$C0                        A:32 X:32 Y:40 P:27 SP:FB CYC:172 SL:118
E73F  85 01     STA $01 = FF                    A:C0 X:32 Y:40 P:A5 SP:FB CYC:178 SL:118
E741  A9 00     LDA #$00                        A:C0 X:32 Y:40 P:A5 SP:FB CYC:187 SL:118
E743  8D 89 04  STA $0489 = 00                  A:00 X:32 Y:40 P:27 SP:FB CYC:193 SL:118
E746  A9 89     LDA #$89                        A:00 X:32 Y:40 P:27 SP:FB CYC:205 SL:118
E748  85 60     STA $60 = 00                    A:89 X:32 Y:40 P:A5 SP:FB CYC:211 SL:118
E74A  A9 04     LDA #$04                        A:89 X:32 Y:40 P:A5 SP:FB CYC:220 SL:118
E74C  85 61     STA $61 = 00                    A:04 X:32 Y:40 P:25 SP:FB CYC:226 SL:118
E74E  A0 44     LDY #$44                        A:04 X:32 Y:40 P:25 SP:FB CYC:235 SL:118
E750  A2 17     LDX #$17                        A:04 X:32 Y:44 P:25 SP:FB CYC:241 SL:118
E752  A9 3E     LDA #$3E                        A:04 X:17 Y:44 P:25 SP:FB CYC:247 SL:118
E754  24 01     BIT $01 = C0                    A:3E X:17 Y:44 P:25 SP:FB CYC:253 SL:118
E756  18        CLC                             A:3E X:17 Y:44 P:E7 SP:FB CYC:262 SL:118
E757  83 49    *SAX ($49,X) @ 60 = 0489 = 00    A:3E X:17 Y:44 P:E6 SP:FB CYC:268 SL:118
E759  EA        NOP                             A:3E X:17 Y:44 P:E6 SP:FB CYC:286 SL:118
E75A  EA        NOP                             A:3E X:17 Y:44 P:E6 SP:FB CYC:292 SL:118
E75B  EA        NOP                             A:3E X:17 Y:44 P:E6 SP:FB CYC:298 SL:118
E75C  EA        NOP                             A:3E X:17 Y:44 P:E6 SP:FB CYC:304 SL:118
E75D  D0 19     BNE $E778                       A:3E X:17 Y:44 P:E6 SP:FB CYC:310 SL:118
E75F  B0 17     BCS $E778                       A:3E X:17 Y:44 P:E6 SP:FB CYC:316 SL:118
E761  50 15     BVC $E778                       A:3E X:17 Y:44 P:E6 SP:FB CYC:322 SL:118
E763  10 13     BPL $E778                       A:3E X:17 Y:44 P:E6 SP:FB CYC:328 SL:118
E765  C9 3E     CMP #$3E                        A:3E X:17 Y:44 P:E6 SP:FB CYC:334 SL:118
E767  D0 0F     BNE $E778                       A:3E X:17 Y:44 P:67 SP:FB CYC:340 SL:118
E769  C0 44     CPY #$44                        A:3E X:17 Y:44 P:67 SP:FB CYC:  5 SL:119
E76B  D0 0B     BNE $E778                       A:3E X:17 Y:44 P:67 SP:FB CYC: 11 SL:119
E76D  E0 17     CPX #$17                        A:3E X:17 Y:44 P:67 SP:FB CYC: 17 SL:119
E76F  D0 07     BNE $E778                       A:3E X:17 Y:44 P:67 SP:FB CYC: 23 SL:119
E771  AD 89 04  LDA $0489 = 16                  A:3E X:17 Y:44 P:67 SP:FB CYC: 29 SL:119
E774  C9 16     CMP #$16                        A:16 X:17 Y:44 P:65 SP:FB CYC: 41 SL:119
E776  F0 04     BEQ $E77C                       A:16 X:17 Y:44 P:67 SP:FB CYC: 47 SL:119
E77C  A0 44     LDY #$44                        A:16 X:17 Y:44 P:67 SP:FB CYC: 56 SL:119
E77E  A2 7A     LDX #$7A                        A:16 X:17 Y:44 P:65 SP:FB CYC: 62 SL:119
E780  A9 66     LDA #$66                        A:16 X:7A Y:44 P:65 SP:FB CYC: 68 SL:119
E782  38        SEC                             A:66 X:7A Y:44 P:65 SP:FB CYC: 74 SL:119
E783  B8        CLV                             A:66 X:7A Y:44 P:65 SP:FB CYC: 80 SL:119
E784  83 E6    *SAX ($E6,X) @ 60 = 0489 = 16    A:66 X:7A Y:44 P:25 SP:FB CYC: 86 SL:119
E786  EA        NOP                             A:66 X:7A Y:44 P:25 SP:FB CYC:104 SL:119
E787  EA        NOP                             A:66 X:7A Y:44 P:25 SP:FB CYC:110 SL:119
E788  EA        NOP                             A:66 X:7A Y:44 P:25 SP:FB CYC:116 SL:119
E789  EA        NOP                             A:66 X:7A Y:44 P:25 SP:FB CYC:122 SL:119
E78A  F0 19     BEQ $E7A5                       A:66 X:7A Y:44 P:25 SP:FB CYC:128 SL:119
E78C  90 17     BCC $E7A5                       A:66 X:7A Y:44 P:25 SP:FB CYC:134 SL:119
E78E  70 15     BVS $E7A5                       A:66 X:7A Y:44 P:25 SP:FB CYC:140 SL:119
E790  30 13     BMI $E7A5                       A:66 X:7A Y:44 P:25 SP:FB CYC:146 SL:119
E792  C9 66     CMP #$66                        A:66 X:7A Y:44 P:25 SP:FB CYC:152 SL:119
E794  D0 0F     BNE $E7A5                       A:66 X:7A Y:44 P:27 SP:FB CYC:158 SL:119
E796  C0 44     CPY #$44                        A:66 X:7A Y:44 P:27 SP:FB CYC:164 SL:119
E798  D0 0B     BNE $E7A5                       A:66 X:7A Y:44 P:27 SP:FB CYC:170 SL:119
E79A  E0 7A     CPX #$7A                        A:66 X:7A Y:44 P:27 SP:FB CYC:176 SL:119
E79C  D0 07     BNE $E7A5                       A:66 X:7A Y:44 P:27 SP:FB CYC:182 SL:119
E79E  AD 89 04  LDA $0489 = 62                  A:66 X:7A Y:44 P:27 SP:FB CYC:188 SL:119
E7A1  C9 62     CMP #$62                        A:62 X:7A Y:44 P:25 SP:FB CYC:200 SL:119
E7A3  F0 04     BEQ $E7A9                       A:62 X:7A Y:44 P:27 SP:FB CYC:206 SL:119
E7A9  A9 FF     LDA #$FF                        A:62 X:7A Y:44 P:27 SP:FB CYC:215 SL:119
E7AB  85 49     STA $49 = 00                    A:FF X:7A Y:44 P:A5 SP:FB CYC:221 SL:119
E7AD  A0 44     LDY #$44                        A:FF X:7A Y:44 P:A5 SP:FB CYC:230 SL:119
E7AF  A2 AA     LDX #$AA                        A:FF X:7A Y:44 P:25 SP:FB CYC:236 SL:119
E7B1  A9 55     LDA #$55                        A:FF X:AA Y:44 P:A5 SP:FB CYC:242 SL:119
E7B3  24 01     BIT $01 = C0                    A:55 X:AA Y:44 P:25 SP:FB CYC:248 SL:119
E7B5  18        CLC                             A:55 X:AA Y:44 P:E5 SP:FB CYC:257 SL:119
E7B6  87 49    *SAX $49 = FF                    A:55 X:AA Y:44 P:E4 SP:FB CYC:263 SL:119
E7B8  EA        NOP                             A:55 X:AA Y:44 P:E4 SP:FB CYC:272 SL:119
E7B9  EA        NOP                             A:55 X:AA Y:44 P:E4 SP:FB CYC:278 SL:119
E7BA  EA        NOP                             A:55 X:AA Y:44 P:E4 SP:FB CYC:284 SL:119
E7BB  EA        NOP                             A:55 X:AA Y:44 P:E4 SP:FB CYC:290 SL:119
E7BC  F0 18     BEQ $E7D6                       A:55 X:AA Y:44 P:E4 SP:FB CYC:296 SL:119
E7BE  B0 16     BCS $E7D6                       A:55 X:AA Y:44 P:E4 SP:FB CYC:302 SL:119
E7C0  50 14     BVC $E7D6                       A:55 X:AA Y:44 P:E4 SP:FB CYC:308 SL:119
E7C2  10 12     BPL $E7D6                       A:55 X:AA Y:44 P:E4 SP:FB CYC:314 SL:119
E7C4  C9 55     CMP #$55                        A:55 X:AA Y:44 P:E4 SP:FB CYC:320 SL:119
E7C6  D0 0E     BNE $E7D6                       A:55 X:AA Y:44 P:67 SP:FB CYC:326 SL:119
E7C8  C0 44     CPY #$44                        A:55 X:AA Y:44 P:67 SP:FB CYC:332 SL:119
E7CA  D0 0A     BNE $E7D6                       A:55 X:AA Y:44 P:67 SP:FB CYC:338 SL:119
E7CC  E0 AA     CPX #$AA                        A:55 X:AA Y:44 P:67 SP:FB CYC:  3 SL:120
E7CE  D0 06     BNE $E7D6                       A:55 X:AA Y:44 P:67 SP:FB CYC:  9 SL:120
E7D0  A5 49     LDA $49 = 00                    A:55 X:AA Y:44 P:67 SP:FB CYC: 15 SL:120
E7D2  C9 00     CMP #$00                        A:00 X:AA Y:44 P:67 SP:FB CYC: 24 SL:120
E7D4  F0 04     BEQ $E7DA                       A:00 X:AA Y:44 P:67 SP:FB CYC: 30 SL:120
E7DA  A9 00     LDA #$00                        A:00 X:AA Y:44 P:67 SP:FB CYC: 39 SL:120
E7DC  85 56     STA $56 = 00                    A:00 X:AA Y:44 P:67 SP:FB CYC: 45 SL:120
E7DE  A0 58     LDY #$58                        A:00 X:AA Y:44 P:67 SP:FB CYC: 54 SL:120
E7E0  A2 EF     LDX #$EF                        A:00 X:AA Y:58 P:65 SP:FB CYC: 60 SL:120
E7E2  A9 66     LDA #$66                        A:00 X:EF Y:58 P:E5 SP:FB CYC: 66 SL:120
E7E4  38        SEC                             A:66 X:EF Y:58 P:65 SP:FB CYC: 72 SL:120
E7E5  B8        CLV                             A:66 X:EF Y:58 P:65 SP:FB CYC: 78 SL:120
E7E6  87 56    *SAX $56 = 00                    A:66 X:EF Y:58 P:25 SP:FB CYC: 84 SL:120
E7E8  EA        NOP                             A:66 X:EF Y:58 P:25 SP:FB CYC: 93 SL:120
E7E9  EA        NOP                             A:66 X:EF Y:58 P:25 SP:FB CYC: 99 SL:120
E7EA  EA        NOP                             A:66 X:EF Y:58 P:25 SP:FB CYC:105 SL:120
E7EB  EA        NOP                             A:66 X:EF Y:58 P:25 SP:FB CYC:111 SL:120
E7EC  F0 18     BEQ $E806                       A:66 X:EF Y:58 P:25 SP:FB CYC:117 SL:120
E7EE  90 16     BCC $E806                       A:66 X:EF Y:58 P:25 SP:FB CYC:123 SL:120
E7F0  70 14     BVS $E806                       A:66 X:EF Y:58 P:25 SP:FB CYC:129 SL:120
E7F2  30 12     BMI $E806                       A:66 X:EF Y:58 P:25 SP:FB CYC:135 SL:120
E7F4  C9 66     CMP #$66                        A:66 X:EF Y:58 P:25 SP:FB CYC:141 SL:120
E7F6  D0 0E     BNE $E806                       A:66 X:EF Y:58 P:27 SP:FB CYC:147 SL:120
E7F8  C0 58     CPY #$58                        A:66 X:EF Y:58 P:27 SP:FB CYC:153 SL:120
E7FA  D0 0A     BNE $E806                       A:66 X:EF Y:58 P:27 SP:FB CYC:159 SL:120
E7FC  E0 EF     CPX #$EF                        A:66 X:EF Y:58 P:27 SP:FB CYC:165 SL:120
E7FE  D0 06     BNE $E806                       A:66 X:EF Y:58 P:27 SP:FB CYC:171 SL:120
E800  A5 56     LDA $56 = 66                    A:66 X:EF Y:58 P:27 SP:FB CYC:177 SL:120
E802  C9 66     CMP #$66                        A:66 X:EF Y:58 P:25 SP:FB CYC:186 SL:120
E804  F0 04     BEQ $E80A                       A:66 X:EF Y:58 P:27 SP:FB CYC:192 SL:120
E80A  A9 FF     LDA #$FF                        A:66 X:EF Y:58 P:27 SP:FB CYC:201 SL:120
E80C  8D 49 05  STA $0549 = 00                  A:FF X:EF Y:58 P:A5 SP:FB CYC:207 SL:120
E80F  A0 E5     LDY #$E5                        A:FF X:EF Y:58 P:A5 SP:FB CYC:219 SL:120
E811  A2 AF     LDX #$AF                        A:FF X:EF Y:E5 P:A5 SP:FB CYC:225 SL:120
E813  A9 F5     LDA #$F5                        A:FF X:AF Y:E5 P:A5 SP:FB CYC:231 SL:120
E815  24 01     BIT $01 = C0                    A:F5 X:AF Y:E5 P:A5 SP:FB CYC:237 SL:120
E817  18        CLC                             A:F5 X:AF Y:E5 P:E5 SP:FB CYC:246 SL:120
E818  8F 49 05 *SAX $0549 = FF                  A:F5 X:AF Y:E5 P:E4 SP:FB CYC:252 SL:120
E81B  EA        NOP                             A:F5 X:AF Y:E5 P:E4 SP:FB CYC:264 SL:120
E81C  EA        NOP                             A:F5 X:AF Y:E5 P:E4 SP:FB CYC:270 SL:120
E81D  EA        NOP                             A:F5 X:AF Y:E5 P:E4 SP:FB CYC:276 SL:120
E81E  EA        NOP                             A:F5 X:AF Y:E5 P:E4 SP:FB CYC:282 SL:120
E81F  F0 19     BEQ $E83A                       A:F5 X:AF Y:E5 P:E4 SP:FB CYC:288 SL:120
E821  B0 17     BCS $E83A                       A:F5 X:AF Y:E5 P:E4 SP:FB CYC:294 SL:120
E823  50 15     BVC $E83A                       A:F5 X:AF Y:E5 P:E4 SP:FB CYC:300 SL:120
E825  10 13     BPL $E83A                       A:F5 X:AF Y:E5 P:E4 SP:FB CYC:306 SL:120
E827  C9 F5     CMP #$F5                        A:F5 X:AF Y:E5 P:E4 SP:FB CYC:312 SL:120
E829  D0 0F     BNE $E83A                       A:F5 X:AF Y:E5 P:67 SP:FB CYC:318 SL:120
E82B  C0 E5     CPY #$E5                        A:F5 X:AF Y:E5 P:67 SP:FB CYC:324 SL:120
E82D  D0 0B     BNE $E83A                       A:F5 X:AF Y:E5 P:67 SP:FB CYC:330 SL:120
E82F  E0 AF     CPX #$AF                        A:F5 X:AF Y:E5 P:67 SP:FB CYC:336 SL:120
E831  D0 07     BNE $E83A                       A:F5 X:AF Y:E5 P:67 SP:FB CYC:  1 SL:121
E833  AD 49 05  LDA $0549 = A5                  A:F5 X:AF Y:E5 P:67 SP:FB CYC:  7 SL:121
E836  C9 A5     CMP #$A5                        A:A5 X:AF Y:E5 P:E5 SP:FB CYC: 19 SL:121
E838  F0 04     BEQ $E83E                       A:A5 X:AF Y:E5 P:67 SP:FB CYC: 25 SL:121
E83E  A9 00     LDA #$00                        A:A5 X:AF Y:E5 P:67 SP:FB CYC: 34 SL:121
E840  8D 56 05  STA $0556 = 00                  A:00 X:AF Y:E5 P:67 SP:FB CYC: 40 SL:121
E843  A0 58     LDY #$58                        A:00 X:AF Y:E5 P:67 SP:FB CYC: 52 SL:121
E845  A2 B3     LDX #$B3                        A:00 X:AF Y:58 P:65 SP:FB CYC: 58 SL:121
E847  A9 97     LDA #$97                        A:00 X:B3 Y:58 P:E5 SP:FB CYC: 64 SL:121
E849  38        SEC                             A:97 X:B3 Y:58 P:E5 SP:FB CYC: 70 SL:121
E84A  B8        CLV                             A:97 X:B3 Y:58 P:E5 SP:FB CYC: 76 SL:121
E84B  8F 56 05 *SAX $0556 = 00                  A:97 X:B3 Y:58 P:A5 SP:FB CYC: 82 SL:121
E84E  EA        NOP                             A:97 X:B3 Y:58 P:A5 SP:FB CYC: 94 SL:121
E84F  EA        NOP                             A:97 X:B3 Y:58 P:A5 SP:FB CYC:100 SL:121
E850  EA        NOP                             A:97 X:B3 Y:58 P:A5 SP:FB CYC:106 SL:121
E851  EA        NOP                             A:97 X:B3 Y:58 P:A5 SP:FB CYC:112 SL:121
E852  F0 19     BEQ $E86D                       A:97 X:B3 Y:58 P:A5 SP:FB CYC:118 SL:121
E854  90 17     BCC $E86D                       A:97 X:B3 Y:58 P:A5 SP:FB CYC:124 SL:121
E856  70 15     BVS $E86D                       A:97 X:B3 Y:58 P:A5 SP:FB CYC:130 SL:121
E858  10 13     BPL $E86D                       A:97 X:B3 Y:58 P:A5 SP:FB CYC:136 SL:121
E85A  C9 97     CMP #$97                        A:97 X:B3 Y:58 P:A5 SP:FB CYC:142 SL:121
E85C  D0 0F     BNE $E86D                       A:97 X:B3 Y:58 P:27 SP:FB CYC:148 SL:121
E85E  C0 58     CPY #$58                        A:97 X:B3 Y:58 P:27 SP:FB CYC:154 SL:121
E860  D0 0B     BNE $E86D                       A:97 X:B3 Y:58 P:27 SP:FB CYC:160 SL:121
E862  E0 B3     CPX #$B3                        A:97 X:B3 Y:58 P:27 SP:FB CYC:166 SL:121
E864  D0 07     BNE $E86D                       A:97 X:B3 Y:58 P:27 SP:FB CYC:172 SL:121
E866  AD 56 05  LDA $0556 = 93                  A:97 X:B3 Y:58 P:27 SP:FB CYC:178 SL:121
E869  C9 93     CMP #$93                        A:93 X:B3 Y:58 P:A5 SP:FB CYC:190 SL:121
E86B  F0 04     BEQ $E871                       A:93 X:B3 Y:58 P:27 SP:FB CYC:196 SL:121
E871  A9 FF     LDA #$FF                        A:93 X:B3 Y:58 P:27 SP:FB CYC:205 SL:121
E873  85 49     STA $49 = 00                    A:FF X:B3 Y:58 P:A5 SP:FB CYC:211 SL:121
E875  A0 FF     LDY #$FF                        A:FF X:B3 Y:58 P:A5 SP:FB CYC:220 SL:121
E877  A2 AA     LDX #$AA                        A:FF X:B3 Y:FF P:A5 SP:FB CYC:226 SL:121
E879  A9 55     LDA #$55                        A:FF X:AA Y:FF P:A5 SP:FB CYC:232 SL:121
E87B  24 01     BIT $01 = C0                    A:55 X:AA Y:FF P:25 SP:FB CYC:238 SL:121
E87D  18        CLC                             A:55 X:AA Y:FF P:E5 SP:FB CYC:247 SL:121
E87E  97 4A    *SAX $4A,Y @ 49 = FF             A:55 X:AA Y:FF P:E4 SP:FB CYC:253 SL:121
E880  EA        NOP                             A:55 X:AA Y:FF P:E4 SP:FB CYC:265 SL:121
E881  EA        NOP                             A:55 X:AA Y:FF P:E4 SP:FB CYC:271 SL:121
E882  EA        NOP                             A:55 X:AA Y:FF P:E4 SP:FB CYC:277 SL:121
E883  EA        NOP                             A:55 X:AA Y:FF P:E4 SP:FB CYC:283 SL:121
E884  F0 18     BEQ $E89E                       A:55 X:AA Y:FF P:E4 SP:FB CYC:289 SL:121
E886  B0 16     BCS $E89E                       A:55 X:AA Y:FF P:E4 SP:FB CYC:295 SL:121
E888  50 14     BVC $E89E                       A:55 X:AA Y:FF P:E4 SP:FB CYC:301 SL:121
E88A  10 12     BPL $E89E                       A:55 X:AA Y:FF P:E4 SP:FB CYC:307 SL:121
E88C  C9 55     CMP #$55                        A:55 X:AA Y:FF P:E4 SP:FB CYC:313 SL:121
E88E  D0 0E     BNE $E89E                       A:55 X:AA Y:FF P:67 SP:FB CYC:319 SL:121
E890  C0 FF     CPY #$FF                        A:55 X:AA Y:FF P:67 SP:FB CYC:325 SL:121
E892  D0 0A     BNE $E89E                       A:55 X:AA Y:FF P:67 SP:FB CYC:331 SL:121
E894  E0 AA     CPX #$AA                        A:55 X:AA Y:FF P:67 SP:FB CYC:337 SL:121
E896  D0 06     BNE $E89E                       A:55 X:AA Y:FF P:67 SP:FB CYC:  2 SL:122
E898  A5 49     LDA $49 = 00                    A:55 X:AA Y:FF P:67 SP:FB CYC:  8 SL:122
E89A  C9 00     CMP #$00                        A:00 X:AA Y:FF P:67 SP:FB CYC: 17 SL:122
E89C  F0 04     BEQ $E8A2                       A:00 X:AA Y:FF P:67 SP:FB CYC: 23 SL:122
E8A2  A9 00     LDA #$00                        A:00 X:AA Y:FF P:67 SP:FB CYC: 32 SL:122
E8A4  85 56     STA $56 = 66                    A:00 X:AA Y:FF P:67 SP:FB CYC: 38 SL:122
E8A6  A0 06     LDY #$06                        A:00 X:AA Y:FF P:67 SP:FB CYC: 47 SL:122
E8A8  A2 EF     LDX #$EF                        A:00 X:AA Y:06 P:65 SP:FB CYC: 53 SL:122
E8AA  A9 66     LDA #$66                        A:00 X:EF Y:06 P:E5 SP:FB CYC: 59 SL:122
E8AC  38        SEC                             A:66 X:EF Y:06 P:65 SP:FB CYC: 65 SL:122
E8AD  B8        CLV                             A:66 X:EF Y:06 P:65 SP:FB CYC: 71 SL:122
E8AE  97 50    *SAX $50,Y @ 56 = 00             A:66 X:EF Y:06 P:25 SP:FB CYC: 77 SL:122
E8B0  EA        NOP                             A:66 X:EF Y:06 P:25 SP:FB CYC: 89 SL:122
E8B1  EA        NOP                             A:66 X:EF Y:06 P:25 SP:FB CYC: 95 SL:122
E8B2  EA        NOP                             A:66 X:EF Y:06 P:25 SP:FB CYC:101 SL:122
E8B3  EA        NOP                             A:66 X:EF Y:06 P:25 SP:FB CYC:107 SL:122
E8B4  F0 18     BEQ $E8CE                       A:66 X:EF Y:06 P:25 SP:FB CYC:113 SL:122
E8B6  90 16     BCC $E8CE                       A:66 X:EF Y:06 P:25 SP:FB CYC:119 SL:122
E8B8  70 14     BVS $E8CE                       A:66 X:EF Y:06 P:25 SP:FB CYC:125 SL:122
E8BA  30 12     BMI $E8CE                       A:66 X:EF Y:06 P:25 SP:FB CYC:131 SL:122
E8BC  C9 66     CMP #$66                        A:66 X:EF Y:06 P:25 SP:FB CYC:137 SL:122
E8BE  D0 0E     BNE $E8CE                       A:66 X:EF Y:06 P:27 SP:FB CYC:143 SL:122
E8C0  C0 06     CPY #$06                        A:66 X:EF Y:06 P:27 SP:FB CYC:149 SL:122
E8C2  D0 0A     BNE $E8CE                       A:66 X:EF Y:06 P:27 SP:FB CYC:155 SL:122
E8C4  E0 EF     CPX #$EF                        A:66 X:EF Y:06 P:27 SP:FB CYC:161 SL:122
E8C6  D0 06     BNE $E8CE                       A:66 X:EF Y:06 P:27 SP:FB CYC:167 SL:122
E8C8  A5 56     LDA $56 = 66                    A:66 X:EF Y:06 P:27 SP:FB CYC:173 SL:122
E8CA  C9 66     CMP #$66                        A:66 X:EF Y:06 P:25 SP:FB CYC:182 SL:122
E8CC  F0 04     BEQ $E8D2                       A:66 X:EF Y:06 P:27 SP:FB CYC:188 SL:122
E8D2  60        RTS                             A:66 X:EF Y:06 P:27 SP:FB CYC:197 SL:122
C638  20 D3 E8  JSR $E8D3                       A:66 X:EF Y:06 P:27 SP:FD CYC:215 SL:122
E8D3  A0 90     LDY #$90                        A:66 X:EF Y:06 P:27 SP:FB CYC:233 SL:122
E8D5  20 31 F9  JSR $F931                       A:66 X:EF Y:90 P:A5 SP:FB CYC:239 SL:122
F931  24 01     BIT $01 = C0                    A:66 X:EF Y:90 P:A5 SP:F9 CYC:257 SL:122
F933  A9 40     LDA #$40                        A:66 X:EF Y:90 P:E5 SP:F9 CYC:266 SL:122
F935  38        SEC                             A:40 X:EF Y:90 P:65 SP:F9 CYC:272 SL:122
F936  60        RTS                             A:40 X:EF Y:90 P:65 SP:F9 CYC:278 SL:122
E8D8  EB 40    *SBC #$40                        A:40 X:EF Y:90 P:65 SP:FB CYC:296 SL:122
E8DA  EA        NOP                             A:00 X:EF Y:90 P:27 SP:FB CYC:302 SL:122
E8DB  EA        NOP                             A:00 X:EF Y:90 P:27 SP:FB CYC:308 SL:122
E8DC  EA        NOP                             A:00 X:EF Y:90 P:27 SP:FB CYC:314 SL:122
E8DD  EA        NOP                             A:00 X:EF Y:90 P:27 SP:FB CYC:320 SL:122
E8DE  20 37 F9  JSR $F937                       A:00 X:EF Y:90 P:27 SP:FB CYC:326 SL:122
F937  30 0B     BMI $F944                       A:00 X:EF Y:90 P:27 SP:F9 CYC:  3 SL:123
F939  90 09     BCC $F944                       A:00 X:EF Y:90 P:27 SP:F9 CYC:  9 SL:123
F93B  D0 07     BNE $F944                       A:00 X:EF Y:90 P:27 SP:F9 CYC: 15 SL:123
F93D  70 05     BVS $F944                       A:00 X:EF Y:90 P:27 SP:F9 CYC: 21 SL:123
F93F  C9 00     CMP #$00                        A:00 X:EF Y:90 P:27 SP:F9 CYC: 27 SL:123
F941  D0 01     BNE $F944                       A:00 X:EF Y:90 P:27 SP:F9 CYC: 33 SL:123
F943  60        RTS                             A:00 X:EF Y:90 P:27 SP:F9 CYC: 39 SL:123
E8E1  C8        INY                             A:00 X:EF Y:90 P:27 SP:FB CYC: 57 SL:123
E8E2  20 47 F9  JSR $F947                       A:00 X:EF Y:91 P:A5 SP:FB CYC: 63 SL:123
F947  B8        CLV                             A:00 X:EF Y:91 P:A5 SP:F9 CYC: 81 SL:123
F948  38        SEC                             A:00 X:EF Y:91 P:A5 SP:F9 CYC: 87 SL:123
F949  A9 40     LDA #$40                        A:00 X:EF Y:91 P:A5 SP:F9 CYC: 93 SL:123
F94B  60        RTS                             A:40 X:EF Y:91 P:25 SP:F9 CYC: 99 SL:123
E8E5  EB 3F    *SBC #$3F                        A:40 X:EF Y:91 P:25 SP:FB CYC:117 SL:123
E8E7  EA        NOP                             A:01 X:EF Y:91 P:25 SP:FB CYC:123 SL:123
E8E8  EA        NOP                             A:01 X:EF Y:91 P:25 SP:FB CYC:129 SL:123
E8E9  EA        NOP                             A:01 X:EF Y:91 P:25 SP:FB CYC:135 SL:123
E8EA  EA        NOP                             A:01 X:EF Y:91 P:25 SP:FB CYC:141 SL:123
E8EB  20 4C F9  JSR $F94C                       A:01 X:EF Y:91 P:25 SP:FB CYC:147 SL:123
F94C  F0 0B     BEQ $F959                       A:01 X:EF Y:91 P:25 SP:F9 CYC:165 SL:123
F94E  30 09     BMI $F959                       A:01 X:EF Y:91 P:25 SP:F9 CYC:171 SL:123
F950  90 07     BCC $F959                       A:01 X:EF Y:91 P:25 SP:F9 CYC:177 SL:123
F952  70 05     BVS $F959                       A:01 X:EF Y:91 P:25 SP:F9 CYC:183 SL:123
F954  C9 01     CMP #$01                        A:01 X:EF Y:91 P:25 SP:F9 CYC:189 SL:123
F956  D0 01     BNE $F959                       A:01 X:EF Y:91 P:27 SP:F9 CYC:195 SL:123
F958  60        RTS                             A:01 X:EF Y:91 P:27 SP:F9 CYC:201 SL:123
E8EE  C8        INY                             A:01 X:EF Y:91 P:27 SP:FB CYC:219 SL:123
E8EF  20 5C F9  JSR $F95C                       A:01 X:EF Y:92 P:A5 SP:FB CYC:225 SL:123
F95C  A9 40     LDA #$40                        A:01 X:EF Y:92 P:A5 SP:F9 CYC:243 SL:123
F95E  38        SEC                             A:40 X:EF Y:92 P:25 SP:F9 CYC:249 SL:123
F95F  24 01     BIT $01 = C0                    A:40 X:EF Y:92 P:25 SP:F9 CYC:255 SL:123
F961  60        RTS                             A:40 X:EF Y:92 P:E5 SP:F9 CYC:264 SL:123
E8F2  EB 41    *SBC #$41                        A:40 X:EF Y:92 P:E5 SP:FB CYC:282 SL:123
E8F4  EA        NOP                             A:FF X:EF Y:92 P:A4 SP:FB CYC:288 SL:123
E8F5  EA        NOP                             A:FF X:EF Y:92 P:A4 SP:FB CYC:294 SL:123
E8F6  EA        NOP                             A:FF X:EF Y:92 P:A4 SP:FB CYC:300 SL:123
E8F7  EA        NOP                             A:FF X:EF Y:92 P:A4 SP:FB CYC:306 SL:123
E8F8  20 62 F9  JSR $F962                       A:FF X:EF Y:92 P:A4 SP:FB CYC:312 SL:123
F962  B0 0B     BCS $F96F                       A:FF X:EF Y:92 P:A4 SP:F9 CYC:330 SL:123
F964  F0 09     BEQ $F96F                       A:FF X:EF Y:92 P:A4 SP:F9 CYC:336 SL:123
F966  10 07     BPL $F96F                       A:FF X:EF Y:92 P:A4 SP:F9 CYC:  1 SL:124
F968  70 05     BVS $F96F                       A:FF X:EF Y:92 P:A4 SP:F9 CYC:  7 SL:124
F96A  C9 FF     CMP #$FF                        A:FF X:EF Y:92 P:A4 SP:F9 CYC: 13 SL:124
F96C  D0 01     BNE $F96F                       A:FF X:EF Y:92 P:27 SP:F9 CYC: 19 SL:124
F96E  60        RTS                             A:FF X:EF Y:92 P:27 SP:F9 CYC: 25 SL:124
E8FB  C8        INY                             A:FF X:EF Y:92 P:27 SP:FB CYC: 43 SL:124
E8FC  20 72 F9  JSR $F972                       A:FF X:EF Y:93 P:A5 SP:FB CYC: 49 SL:124
F972  18        CLC                             A:FF X:EF Y:93 P:A5 SP:F9 CYC: 67 SL:124
F973  A9 80     LDA #$80                        A:FF X:EF Y:93 P:A4 SP:F9 CYC: 73 SL:124
F975  60        RTS                             A:80 X:EF Y:93 P:A4 SP:F9 CYC: 79 SL:124
E8FF  EB 00    *SBC #$00                        A:80 X:EF Y:93 P:A4 SP:FB CYC: 97 SL:124
E901  EA        NOP                             A:7F X:EF Y:93 P:65 SP:FB CYC:103 SL:124
E902  EA        NOP                             A:7F X:EF Y:93 P:65 SP:FB CYC:109 SL:124
E903  EA        NOP                             A:7F X:EF Y:93 P:65 SP:FB CYC:115 SL:124
E904  EA        NOP                             A:7F X:EF Y:93 P:65 SP:FB CYC:121 SL:124
E905  20 76 F9  JSR $F976                       A:7F X:EF Y:93 P:65 SP:FB CYC:127 SL:124
F976  90 05     BCC $F97D                       A:7F X:EF Y:93 P:65 SP:F9 CYC:145 SL:124
F978  C9 7F     CMP #$7F                        A:7F X:EF Y:93 P:65 SP:F9 CYC:151 SL:124
F97A  D0 01     BNE $F97D                       A:7F X:EF Y:93 P:67 SP:F9 CYC:157 SL:124
F97C  60        RTS                             A:7F X:EF Y:93 P:67 SP:F9 CYC:163 SL:124
E908  C8        INY                             A:7F X:EF Y:93 P:67 SP:FB CYC:181 SL:124
E909  20 80 F9  JSR $F980                       A:7F X:EF Y:94 P:E5 SP:FB CYC:187 SL:124
F980  38        SEC                             A:7F X:EF Y:94 P:E5 SP:F9 CYC:205 SL:124
F981  A9 81     LDA #$81                        A:7F X:EF Y:94 P:E5 SP:F9 CYC:211 SL:124
F983  60        RTS                             A:81 X:EF Y:94 P:E5 SP:F9 CYC:217 SL:124
E90C  EB 7F    *SBC #$7F                        A:81 X:EF Y:94 P:E5 SP:FB CYC:235 SL:124
E90E  EA        NOP                             A:02 X:EF Y:94 P:65 SP:FB CYC:241 SL:124
E90F  EA        NOP                             A:02 X:EF Y:94 P:65 SP:FB CYC:247 SL:124
E910  EA        NOP                             A:02 X:EF Y:94 P:65 SP:FB CYC:253 SL:124
E911  EA        NOP                             A:02 X:EF Y:94 P:65 SP:FB CYC:259 SL:124
E912  20 84 F9  JSR $F984                       A:02 X:EF Y:94 P:65 SP:FB CYC:265 SL:124
F984  50 07     BVC $F98D                       A:02 X:EF Y:94 P:65 SP:F9 CYC:283 SL:124
F986  90 05     BCC $F98D                       A:02 X:EF Y:94 P:65 SP:F9 CYC:289 SL:124
F988  C9 02     CMP #$02                        A:02 X:EF Y:94 P:65 SP:F9 CYC:295 SL:124
F98A  D0 01     BNE $F98D                       A:02 X:EF Y:94 P:67 SP:F9 CYC:301 SL:124
F98C  60        RTS                             A:02 X:EF Y:94 P:67 SP:F9 CYC:307 SL:124
E915  60        RTS                             A:02 X:EF Y:94 P:67 SP:FB CYC:325 SL:124
C63B  20 16 E9  JSR $E916                       A:02 X:EF Y:94 P:67 SP:FD CYC:  2 SL:125
E916  A9 FF     LDA #$FF                        A:02 X:EF Y:94 P:67 SP:FB CYC: 20 SL:125
E918  85 01     STA $01 = C0                    A:FF X:EF Y:94 P:E5 SP:FB CYC: 26 SL:125
E91A  A0 95     LDY #$95                        A:FF X:EF Y:94 P:E5 SP:FB CYC: 35 SL:125
E91C  A2 02     LDX #$02                        A:FF X:EF Y:95 P:E5 SP:FB CYC: 41 SL:125
E91E  A9 47     LDA #$47                        A:FF X:02 Y:95 P:65 SP:FB CYC: 47 SL:125
E920  85 47     STA $47 = 00                    A:47 X:02 Y:95 P:65 SP:FB CYC: 53 SL:125
E922  A9 06     LDA #$06                        A:47 X:02 Y:95 P:65 SP:FB CYC: 62 SL:125
E924  85 48     STA $48 = 00                    A:06 X:02 Y:95 P:65 SP:FB CYC: 68 SL:125
E926  A9 EB     LDA #$EB                        A:06 X:02 Y:95 P:65 SP:FB CYC: 77 SL:125
E928  8D 47 06  STA $0647 = 00                  A:EB X:02 Y:95 P:E5 SP:FB CYC: 83 SL:125
E92B  20 31 FA  JSR $FA31                       A:EB X:02 Y:95 P:E5 SP:FB CYC: 95 SL:125
FA31  24 01     BIT $01 = FF                    A:EB X:02 Y:95 P:E5 SP:F9 CYC:113 SL:125
FA33  18        CLC                             A:EB X:02 Y:95 P:E5 SP:F9 CYC:122 SL:125
FA34  A9 40     LDA #$40                        A:EB X:02 Y:95 P:E4 SP:F9 CYC:128 SL:125
FA36  60        RTS                             A:40 X:02 Y:95 P:64 SP:F9 CYC:134 SL:125
E92E  C3 45    *DCP ($45,X) @ 47 = 0647 = EB    A:40 X:02 Y:95 P:64 SP:FB CYC:152 SL:125
E930  EA        NOP                             A:40 X:02 Y:95 P:64 SP:FB CYC:176 SL:125
E931  EA        NOP                             A:40 X:02 Y:95 P:64 SP:FB CYC:182 SL:125
E932  EA        NOP                             A:40 X:02 Y:95 P:64 SP:FB CYC:188 SL:125
E933  EA        NOP                             A:40 X:02 Y:95 P:64 SP:FB CYC:194 SL:125
E934  20 37 FA  JSR $FA37                       A:40 X:02 Y:95 P:64 SP:FB CYC:200 SL:125
FA37  50 2C     BVC $FA65                       A:40 X:02 Y:95 P:64 SP:F9 CYC:218 SL:125
FA39  B0 2A     BCS $FA65                       A:40 X:02 Y:95 P:64 SP:F9 CYC:224 SL:125
FA3B  30 28     BMI $FA65                       A:40 X:02 Y:95 P:64 SP:F9 CYC:230 SL:125
FA3D  C9 40     CMP #$40                        A:40 X:02 Y:95 P:64 SP:F9 CYC:236 SL:125
FA3F  D0 24     BNE $FA65                       A:40 X:02 Y:95 P:67 SP:F9 CYC:242 SL:125
FA41  60        RTS                             A:40 X:02 Y:95 P:67 SP:F9 CYC:248 SL:125
E937  AD 47 06  LDA $0647 = EA                  A:40 X:02 Y:95 P:67 SP:FB CYC:266 SL:125
E93A  C9 EA     CMP #$EA                        A:EA X:02 Y:95 P:E5 SP:FB CYC:278 SL:125
E93C  F0 02     BEQ $E940                       A:EA X:02 Y:95 P:67 SP:FB CYC:284 SL:125
E940  C8        INY                             A:EA X:02 Y:95 P:67 SP:FB CYC:293 SL:125
E941  A9 00     LDA #$00                        A:EA X:02 Y:96 P:E5 SP:FB CYC:299 SL:125
E943  8D 47 06  STA $0647 = EA                  A:00 X:02 Y:96 P:67 SP:FB CYC:305 SL:125
E946  20 42 FA  JSR $FA42                       A:00 X:02 Y:96 P:67 SP:FB CYC:317 SL:125
FA42  B8        CLV                             A:00 X:02 Y:96 P:67 SP:F9 CYC:335 SL:125
FA43  38        SEC                             A:00 X:02 Y:96 P:27 SP:F9 CYC:  0 SL:126
FA44  A9 FF     LDA #$FF                        A:00 X:02 Y:96 P:27 SP:F9 CYC:  6 SL:126
FA46  60        RTS                             A:FF X:02 Y:96 P:A5 SP:F9 CYC: 12 SL:126
E949  C3 45    *DCP ($45,X) @ 47 = 0647 = 00    A:FF X:02 Y:96 P:A5 SP:FB CYC: 30 SL:126
E94B  EA        NOP                             A:FF X:02 Y:96 P:27 SP:FB CYC: 54 SL:126
E94C  EA        NOP                             A:FF X:02 Y:96 P:27 SP:FB CYC: 60 SL:126
E94D  EA        NOP                             A:FF X:02 Y:96 P:27 SP:FB CYC: 66 SL:126
E94E  EA        NOP                             A:FF X:02 Y:96 P:27 SP:FB CYC: 72 SL:126
E94F  20 47 FA  JSR $FA47                       A:FF X:02 Y:96 P:27 SP:FB CYC: 78 SL:126
FA47  70 1C     BVS $FA65                       A:FF X:02 Y:96 P:27 SP:F9 CYC: 96 SL:126
FA49  D0 1A     BNE $FA65                       A:FF X:02 Y:96 P:27 SP:F9 CYC:102 SL:126
FA4B  30 18     BMI $FA65                       A:FF X:02 Y:96 P:27 SP:F9 CYC:108 SL:126
FA4D  90 16     BCC $FA65                       A:FF X:02 Y:96 P:27 SP:F9 CYC:114 SL:126
FA4F  C9 FF     CMP #$FF                        A:FF X:02 Y:96 P:27 SP:F9 CYC:120 SL:126
FA51  D0 12     BNE $FA65                       A:FF X:02 Y:96 P:27 SP:F9 CYC:126 SL:126
FA53  60        RTS                             A:FF X:02 Y:96 P:27 SP:F9 CYC:132 SL:126
E952  AD 47 06  LDA $0647 = FF                  A:FF X:02 Y:96 P:27 SP:FB CYC:150 SL:126
E955  C9 FF     CMP #$FF                        A:FF X:02 Y:96 P:A5 SP:FB CYC:162 SL:126
E957  F0 02     BEQ $E95B                       A:FF X:02 Y:96 P:27 SP:FB CYC:168 SL:126
E95B  C8        INY                             A:FF X:02 Y:96 P:27 SP:FB CYC:177 SL:126
E95C  A9 37     LDA #$37                        A:FF X:02 Y:97 P:A5 SP:FB CYC:183 SL:126
E95E  8D 47 06  STA $0647 = FF                  A:37 X:02 Y:97 P:25 SP:FB CYC:189 SL:126
E961  20 54 FA  JSR $FA54                       A:37 X:02 Y:97 P:25 SP:FB CYC:201 SL:126
FA54  24 01     BIT $01 = FF                    A:37 X:02 Y:97 P:25 SP:F9 CYC:219 SL:126
FA56  A9 F0     LDA #$F0                        A:37 X:02 Y:97 P:E5 SP:F9 CYC:228 SL:126
FA58  60        RTS                             A:F0 X:02 Y:97 P:E5 SP:F9 CYC:234 SL:126
E964  C3 45    *DCP ($45,X) @ 47 = 0647 = 37    A:F0 X:02 Y:97 P:E5 SP:FB CYC:252 SL:126
E966  EA        NOP                             A:F0 X:02 Y:97 P:E5 SP:FB CYC:276 SL:126
E967  EA        NOP                             A:F0 X:02 Y:97 P:E5 SP:FB CYC:282 SL:126
E968  EA        NOP                             A:F0 X:02 Y:97 P:E5 SP:FB CYC:288 SL:126
E969  EA        NOP                             A:F0 X:02 Y:97 P:E5 SP:FB CYC:294 SL:126
E96A  20 59 FA  JSR $FA59                       A:F0 X:02 Y:97 P:E5 SP:FB CYC:300 SL:126
FA59  50 0A     BVC $FA65                       A:F0 X:02 Y:97 P:E5 SP:F9 CYC:318 SL:126
FA5B  F0 08     BEQ $FA65                       A:F0 X:02 Y:97 P:E5 SP:F9 CYC:324 SL:126
FA5D  10 06     BPL $FA65                       A:F0 X:02 Y:97 P:E5 SP:F9 CYC:330 SL:126
FA5F  90 04     BCC $FA65                       A:F0 X:02 Y:97 P:E5 SP:F9 CYC:336 SL:126
FA61  C9 F0     CMP #$F0                        A:F0 X:02 Y:97 P:E5 SP:F9 CYC:  1 SL:127
FA63  F0 02     BEQ $FA67                       A:F0 X:02 Y:97 P:67 SP:F9 CYC:  7 SL:127
FA67  60        RTS                             A:F0 X:02 Y:97 P:67 SP:F9 CYC: 16 SL:127
E96D  AD 47 06  LDA $0647 = 36                  A:F0 X:02 Y:97 P:67 SP:FB CYC: 34 SL:127
E970  C9 36     CMP #$36                        A:36 X:02 Y:97 P:65 SP:FB CYC: 46 SL:127
E972  F0 02     BEQ $E976                       A:36 X:02 Y:97 P:67 SP:FB CYC: 52 SL:127
E976  C8        INY                             A:36 X:02 Y:97 P:67 SP:FB CYC: 61 SL:127
E977  A9 EB     LDA #$EB                        A:36 X:02 Y:98 P:E5 SP:FB CYC: 67 SL:127
E979  85 47     STA $47 = 47                    A:EB X:02 Y:98 P:E5 SP:FB CYC: 73 SL:127
E97B  20 31 FA  JSR $FA31                       A:EB X:02 Y:98 P:E5 SP:FB CYC: 82 SL:127
FA31  24 01     BIT $01 = FF                    A:EB X:02 Y:98 P:E5 SP:F9 CYC:100 SL:127
FA33  18        CLC                             A:EB X:02 Y:98 P:E5 SP:F9 CYC:109 SL:127
FA34  A9 40     LDA #$40                        A:EB X:02 Y:98 P:E4 SP:F9 CYC:115 SL:127
FA36  60        RTS                             A:40 X:02 Y:98 P:64 SP:F9 CYC:121 SL:127
E97E  C7 47    *DCP $47 = EB                    A:40 X:02 Y:98 P:64 SP:FB CYC:139 SL:127
E980  EA        NOP                             A:40 X:02 Y:98 P:64 SP:FB CYC:154 SL:127
E981  EA        NOP                             A:40 X:02 Y:98 P:64 SP:FB CYC:160 SL:127
E982  EA        NOP                             A:40 X:02 Y:98 P:64 SP:FB CYC:166 SL:127
E983  EA        NOP                             A:40 X:02 Y:98 P:64 SP:FB CYC:172 SL:127
E984  20 37 FA  JSR $FA37                       A:40 X:02 Y:98 P:64 SP:FB CYC:178 SL:127
FA37  50 2C     BVC $FA65                       A:40 X:02 Y:98 P:64 SP:F9 CYC:196 SL:127
FA39  B0 2A     BCS $FA65                       A:40 X:02 Y:98 P:64 SP:F9 CYC:202 SL:127
FA3B  30 28     BMI $FA65                       A:40 X:02 Y:98 P:64 SP:F9 CYC:208 SL:127
FA3D  C9 40     CMP #$40                        A:40 X:02 Y:98 P:64 SP:F9 CYC:214 SL:127
FA3F  D0 24     BNE $FA65                       A:40 X:02 Y:98 P:67 SP:F9 CYC:220 SL:127
FA41  60        RTS                             A:40 X:02 Y:98 P:67 SP:F9 CYC:226 SL:127
E987  A5 47     LDA $47 = EA                    A:40 X:02 Y:98 P:67 SP:FB CYC:244 SL:127
E989  C9 EA     CMP #$EA                        A:EA X:02 Y:98 P:E5 SP:FB CYC:253 SL:127
E98B  F0 02     BEQ $E98F                       A:EA X:02 Y:98 P:67 SP:FB CYC:259 SL:127
E98F  C8        INY                             A:EA X:02 Y:98 P:67 SP:FB CYC:268 SL:127
E990  A9 00     LDA #$00                        A:EA X:02 Y:99 P:E5 SP:FB CYC:274 SL:127
E992  85 47     STA $47 = EA                    A:00 X:02 Y:99 P:67 SP:FB CYC:280 SL:127
E994  20 42 FA  JSR $FA42                       A:00 X:02 Y:99 P:67 SP:FB CYC:289 SL:127
FA42  B8        CLV                             A:00 X:02 Y:99 P:67 SP:F9 CYC:307 SL:127
FA43  38        SEC                             A:00 X:02 Y:99 P:27 SP:F9 CYC:313 SL:127
FA44  A9 FF     LDA #$FF                        A:00 X:02 Y:99 P:27 SP:F9 CYC:319 SL:127
FA46  60        RTS                             A:FF X:02 Y:99 P:A5 SP:F9 CYC:325 SL:127
E997  C7 47    *DCP $47 = 00                    A:FF X:02 Y:99 P:A5 SP:FB CYC:  2 SL:128
E999  EA        NOP                             A:FF X:02 Y:99 P:27 SP:FB CYC: 17 SL:128
E99A  EA        NOP                             A:FF X:02 Y:99 P:27 SP:FB CYC: 23 SL:128
E99B  EA        NOP                             A:FF X:02 Y:99 P:27 SP:FB CYC: 29 SL:128
E99C  EA        NOP                             A:FF X:02 Y:99 P:27 SP:FB CYC: 35 SL:128
E99D  20 47 FA  JSR $FA47                       A:FF X:02 Y:99 P:27 SP:FB CYC: 41 SL:128
FA47  70 1C     BVS $FA65                       A:FF X:02 Y:99 P:27 SP:F9 CYC: 59 SL:128
FA49  D0 1A     BNE $FA65                       A:FF X:02 Y:99 P:27 SP:F9 CYC: 65 SL:128
FA4B  30 18     BMI $FA65                       A:FF X:02 Y:99 P:27 SP:F9 CYC: 71 SL:128
FA4D  90 16     BCC $FA65                       A:FF X:02 Y:99 P:27 SP:F9 CYC: 77 SL:128
FA4F  C9 FF     CMP #$FF                        A:FF X:02 Y:99 P:27 SP:F9 CYC: 83 SL:128
FA51  D0 12     BNE $FA65                       A:FF X:02 Y:99 P:27 SP:F9 CYC: 89 SL:128
FA53  60        RTS                             A:FF X:02 Y:99 P:27 SP:F9 CYC: 95 SL:128
E9A0  A5 47     LDA $47 = FF                    A:FF X:02 Y:99 P:27 SP:FB CYC:113 SL:128
E9A2  C9 FF     CMP #$FF                        A:FF X:02 Y:99 P:A5 SP:FB CYC:122 SL:128
E9A4  F0 02     BEQ $E9A8                       A:FF X:02 Y:99 P:27 SP:FB CYC:128 SL:128
E9A8  C8        INY                             A:FF X:02 Y:99 P:27 SP:FB CYC:137 SL:128
E9A9  A9 37     LDA #$37                        A:FF X:02 Y:9A P:A5 SP:FB CYC:143 SL:128
E9AB  85 47     STA $47 = FF                    A:37 X:02 Y:9A P:25 SP:FB CYC:149 SL:128
E9AD  20 54 FA  JSR $FA54                       A:37 X:02 Y:9A P:25 SP:FB CYC:158 SL:128
FA54  24 01     BIT $01 = FF                    A:37 X:02 Y:9A P:25 SP:F9 CYC:176 SL:128
FA56  A9 F0     LDA #$F0                        A:37 X:02 Y:9A P:E5 SP:F9 CYC:185 SL:128
FA58  60        RTS                             A:F0 X:02 Y:9A P:E5 SP:F9 CYC:191 SL:128
E9B0  C7 47    *DCP $47 = 37                    A:F0 X:02 Y:9A P:E5 SP:FB CYC:209 SL:128
E9B2  EA        NOP                             A:F0 X:02 Y:9A P:E5 SP:FB CYC:224 SL:128
E9B3  EA        NOP                             A:F0 X:02 Y:9A P:E5 SP:FB CYC:230 SL:128
E9B4  EA        NOP                             A:F0 X:02 Y:9A P:E5 SP:FB CYC:236 SL:128
E9B5  EA        NOP                             A:F0 X:02 Y:9A P:E5 SP:FB CYC:242 SL:128
E9B6  20 59 FA  JSR $FA59                       A:F0 X:02 Y:9A P:E5 SP:FB CYC:248 SL:128
FA59  50 0A     BVC $FA65                       A:F0 X:02 Y:9A P:E5 SP:F9 CYC:266 SL:128
FA5B  F0 08     BEQ $FA65                       A:F0 X:02 Y:9A P:E5 SP:F9 CYC:272 SL:128
FA5D  10 06     BPL $FA65                       A:F0 X:02 Y:9A P:E5 SP:F9 CYC:278 SL:128
FA5F  90 04     BCC $FA65                       A:F0 X:02 Y:9A P:E5 SP:F9 CYC:284 SL:128
FA61  C9 F0     CMP #$F0                        A:F0 X:02 Y:9A P:E5 SP:F9 CYC:290 SL:128
FA63  F0 02     BEQ $FA67                       A:F0 X:02 Y:9A P:67 SP:F9 CYC:296 SL:128
FA67  60        RTS                             A:F0 X:02 Y:9A P:67 SP:F9 CYC:305 SL:128
E9B9  A5 47     LDA $47 = 36                    A:F0 X:02 Y:9A P:67 SP:FB CYC:323 SL:128
E9BB  C9 36     CMP #$36                        A:36 X:02 Y:9A P:65 SP:FB CYC:332 SL:128
E9BD  F0 02     BEQ $E9C1                       A:36 X:02 Y:9A P:67 SP:FB CYC:338 SL:128
E9C1  C8        INY                             A:36 X:02 Y:9A P:67 SP:FB CYC:  6 SL:129
E9C2  A9 EB     LDA #$EB                        A:36 X:02 Y:9B P:E5 SP:FB CYC: 12 SL:129
E9C4  8D 47 06  STA $0647 = 36                  A:EB X:02 Y:9B P:E5 SP:FB CYC: 18 SL:129
E9C7  20 31 FA  JSR $FA31                       A:EB X:02 Y:9B P:E5 SP:FB CYC: 30 SL:129
FA31  24 01     BIT $01 = FF                    A:EB X:02 Y:9B P:E5 SP:F9 CYC: 48 SL:129
FA33  18        CLC                             A:EB X:02 Y:9B P:E5 SP:F9 CYC: 57 SL:129
FA34  A9 40     LDA #$40                        A:EB X:02 Y:9B P:E4 SP:F9 CYC: 63 SL:129
FA36  60        RTS                             A:40 X:02 Y:9B P:64 SP:F9 CYC: 69 SL:129
E9CA  CF 47 06 *DCP $0647 = EB                  A:40 X:02 Y:9B P:64 SP:FB CYC: 87 SL:129
E9CD  EA        NOP                             A:40 X:02 Y:9B P:64 SP:FB CYC:105 SL:129
E9CE  EA        NOP                             A:40 X:02 Y:9B P:64 SP:FB CYC:111 SL:129
E9CF  EA        NOP                             A:40 X:02 Y:9B P:64 SP:FB CYC:117 SL:129
E9D0  EA        NOP                             A:40 X:02 Y:9B P:64 SP:FB CYC:123 SL:129
E9D1  20 37 FA  JSR $FA37                       A:40 X:02 Y:9B P:64 SP:FB CYC:129 SL:129
FA37  50 2C     BVC $FA65                       A:40 X:02 Y:9B P:64 SP:F9 CYC:147 SL:129
FA39  B0 2A     BCS $FA65                       A:40 X:02 Y:9B P:64 SP:F9 CYC:153 SL:129
FA3B  30 28     BMI $FA65                       A:40 X:02 Y:9B P:64 SP:F9 CYC:159 SL:129
FA3D  C9 40     CMP #$40                        A:40 X:02 Y:9B P:64 SP:F9 CYC:165 SL:129
FA3F  D0 24     BNE $FA65                       A:40 X:02 Y:9B P:67 SP:F9 CYC:171 SL:129
FA41  60        RTS                             A:40 X:02 Y:9B P:67 SP:F9 CYC:177 SL:129
E9D4  AD 47 06  LDA $0647 = EA                  A:40 X:02 Y:9B P:67 SP:FB CYC:195 SL:129
E9D7  C9 EA     CMP #$EA                        A:EA X:02 Y:9B P:E5 SP:FB CYC:207 SL:129
E9D9  F0 02     BEQ $E9DD                       A:EA X:02 Y:9B P:67 SP:FB CYC:213 SL:129
E9DD  C8        INY                             A:EA X:02 Y:9B P:67 SP:FB CYC:222 SL:129
E9DE  A9 00     LDA #$00                        A:EA X:02 Y:9C P:E5 SP:FB CYC:228 SL:129
E9E0  8D 47 06  STA $0647 = EA                  A:00 X:02 Y:9C P:67 SP:FB CYC:234 SL:129
E9E3  20 42 FA  JSR $FA42                       A:00 X:02 Y:9C P:67 SP:FB CYC:246 SL:129
FA42  B8        CLV                             A:00 X:02 Y:9C P:67 SP:F9 CYC:264 SL:129
FA43  38        SEC                             A:00 X:02 Y:9C P:27 SP:F9 CYC:270 SL:129
FA44  A9 FF     LDA #$FF                        A:00 X:02 Y:9C P:27 SP:F9 CYC:276 SL:129
FA46  60        RTS                             A:FF X:02 Y:9C P:A5 SP:F9 CYC:282 SL:129
E9E6  CF 47 06 *DCP $0647 = 00                  A:FF X:02 Y:9C P:A5 SP:FB CYC:300 SL:129
E9E9  EA        NOP                             A:FF X:02 Y:9C P:27 SP:FB CYC:318 SL:129
E9EA  EA        NOP                             A:FF X:02 Y:9C P:27 SP:FB CYC:324 SL:129
E9EB  EA        NOP                             A:FF X:02 Y:9C P:27 SP:FB CYC:330 SL:129
E9EC  EA        NOP                             A:FF X:02 Y:9C P:27 SP:FB CYC:336 SL:129
E9ED  20 47 FA  JSR $FA47                       A:FF X:02 Y:9C P:27 SP:FB CYC:  1 SL:130
FA47  70 1C     BVS $FA65                       A:FF X:02 Y:9C P:27 SP:F9 CYC: 19 SL:130
FA49  D0 1A     BNE $FA65                       A:FF X:02 Y:9C P:27 SP:F9 CYC: 25 SL:130
FA4B  30 18     BMI $FA65                       A:FF X:02 Y:9C P:27 SP:F9 CYC: 31 SL:130
FA4D  90 16     BCC $FA65                       A:FF X:02 Y:9C P:27 SP:F9 CYC: 37 SL:130
FA4F  C9 FF     CMP #$FF                        A:FF X:02 Y:9C P:27 SP:F9 CYC: 43 SL:130
FA51  D0 12     BNE $FA65                       A:FF X:02 Y:9C P:27 SP:F9 CYC: 49 SL:130
FA53  60        RTS                             A:FF X:02 Y:9C P:27 SP:F9 CYC: 55 SL:130
E9F0  AD 47 06  LDA $0647 = FF                  A:FF X:02 Y:9C P:27 SP:FB CYC: 73 SL:130
E9F3  C9 FF     CMP #$FF                        A:FF X:02 Y:9C P:A5 SP:FB CYC: 85 SL:130
E9F5  F0 02     BEQ $E9F9                       A:FF X:02 Y:9C P:27 SP:FB CYC: 91 SL:130
E9F9  C8        INY                             A:FF X:02 Y:9C P:27 SP:FB CYC:100 SL:130
E9FA  A9 37     LDA #$37                        A:FF X:02 Y:9D P:A5 SP:FB CYC:106 SL:130
E9FC  8D 47 06  STA $0647 = FF                  A:37 X:02 Y:9D P:25 SP:FB CYC:112 SL:130
E9FF  20 54 FA  JSR $FA54                       A:37 X:02 Y:9D P:25 SP:FB CYC:124 SL:130
FA54  24 01     BIT $01 = FF                    A:37 X:02 Y:9D P:25 SP:F9 CYC:142 SL:130
FA56  A9 F0     LDA #$F0                        A:37 X:02 Y:9D P:E5 SP:F9 CYC:151 SL:130
FA58  60        RTS                             A:F0 X:02 Y:9D P:E5 SP:F9 CYC:157 SL:130
EA02  CF 47 06 *DCP $0647 = 37                  A:F0 X:02 Y:9D P:E5 SP:FB CYC:175 SL:130
EA05  EA        NOP                             A:F0 X:02 Y:9D P:E5 SP:FB CYC:193 SL:130
EA06  EA        NOP                             A:F0 X:02 Y:9D P:E5 SP:FB CYC:199 SL:130
EA07  EA        NOP                             A:F0 X:02 Y:9D P:E5 SP:FB CYC:205 SL:130
EA08  EA        NOP                             A:F0 X:02 Y:9D P:E5 SP:FB CYC:211 SL:130
EA09  20 59 FA  JSR $FA59                       A:F0 X:02 Y:9D P:E5 SP:FB CYC:217 SL:130
FA59  50 0A     BVC $FA65                       A:F0 X:02 Y:9D P:E5 SP:F9 CYC:235 SL:130
FA5B  F0 08     BEQ $FA65                       A:F0 X:02 Y:9D P:E5 SP:F9 CYC:241 SL:130
FA5D  10 06     BPL $FA65                       A:F0 X:02 Y:9D P:E5 SP:F9 CYC:247 SL:130
FA5F  90 04     BCC $FA65                       A:F0 X:02 Y:9D P:E5 SP:F9 CYC:253 SL:130
FA61  C9 F0     CMP #$F0                        A:F0 X:02 Y:9D P:E5 SP:F9 CYC:259 SL:130
FA63  F0 02     BEQ $FA67                       A:F0 X:02 Y:9D P:67 SP:F9 CYC:265 SL:130
FA67  60        RTS                             A:F0 X:02 Y:9D P:67 SP:F9 CYC:274 SL:130
EA0C  AD 47 06  LDA $0647 = 36                  A:F0 X:02 Y:9D P:67 SP:FB CYC:292 SL:130
EA0F  C9 36     CMP #$36                        A:36 X:02 Y:9D P:65 SP:FB CYC:304 SL:130
EA11  F0 02     BEQ $EA15                       A:36 X:02 Y:9D P:67 SP:FB CYC:310 SL:130
EA15  A9 EB     LDA #$EB                        A:36 X:02 Y:9D P:67 SP:FB CYC:319 SL:130
EA17  8D 47 06  STA $0647 = 36                  A:EB X:02 Y:9D P:E5 SP:FB CYC:325 SL:130
EA1A  A9 48     LDA #$48                        A:EB X:02 Y:9D P:E5 SP:FB CYC:337 SL:130
EA1C  85 45     STA $45 = 32                    A:48 X:02 Y:9D P:65 SP:FB CYC:  2 SL:131
EA1E  A9 05     LDA #$05                        A:48 X:02 Y:9D P:65 SP:FB CYC: 11 SL:131
EA20  85 46     STA $46 = 04                    A:05 X:02 Y:9D P:65 SP:FB CYC: 17 SL:131
EA22  A0 FF     LDY #$FF                        A:05 X:02 Y:9D P:65 SP:FB CYC: 26 SL:131
EA24  20 31 FA  JSR $FA31                       A:05 X:02 Y:FF P:E5 SP:FB CYC: 32 SL:131
FA31  24 01     BIT $01 = FF                    A:05 X:02 Y:FF P:E5 SP:F9 CYC: 50 SL:131
FA33  18        CLC                             A:05 X:02 Y:FF P:E5 SP:F9 CYC: 59 SL:131
FA34  A9 40     LDA #$40                        A:05 X:02 Y:FF P:E4 SP:F9 CYC: 65 SL:131
FA36  60        RTS                             A:40 X:02 Y:FF P:64 SP:F9 CYC: 71 SL:131
EA27  D3 45    *DCP ($45),Y = 0548 @ 0647 = EB  A:40 X:02 Y:FF P:64 SP:FB CYC: 89 SL:131
EA29  EA        NOP                             A:40 X:02 Y:FF P:64 SP:FB CYC:113 SL:131
EA2A  EA        NOP                             A:40 X:02 Y:FF P:64 SP:FB CYC:119 SL:131
EA2B  08        PHP                             A:40 X:02 Y:FF P:64 SP:FB CYC:125 SL:131
EA2C  48        PHA                             A:40 X:02 Y:FF P:64 SP:FA CYC:134 SL:131
EA2D  A0 9E     LDY #$9E                        A:40 X:02 Y:FF P:64 SP:F9 CYC:143 SL:131
EA2F  68        PLA                             A:40 X:02 Y:9E P:E4 SP:F9 CYC:149 SL:131
EA30  28        PLP                             A:40 X:02 Y:9E P:64 SP:FA CYC:161 SL:131
EA31  20 37 FA  JSR $FA37                       A:40 X:02 Y:9E P:64 SP:FB CYC:173 SL:131
FA37  50 2C     BVC $FA65                       A:40 X:02 Y:9E P:64 SP:F9 CYC:191 SL:131
FA39  B0 2A     BCS $FA65                       A:40 X:02 Y:9E P:64 SP:F9 CYC:197 SL:131
FA3B  30 28     BMI $FA65                       A:40 X:02 Y:9E P:64 SP:F9 CYC:203 SL:131
FA3D  C9 40     CMP #$40                        A:40 X:02 Y:9E P:64 SP:F9 CYC:209 SL:131
FA3F  D0 24     BNE $FA65                       A:40 X:02 Y:9E P:67 SP:F9 CYC:215 SL:131
FA41  60        RTS                             A:40 X:02 Y:9E P:67 SP:F9 CYC:221 SL:131
EA34  AD 47 06  LDA $0647 = EA                  A:40 X:02 Y:9E P:67 SP:FB CYC:239 SL:131
EA37  C9 EA     CMP #$EA                        A:EA X:02 Y:9E P:E5 SP:FB CYC:251 SL:131
EA39  F0 02     BEQ $EA3D                       A:EA X:02 Y:9E P:67 SP:FB CYC:257 SL:131
EA3D  A0 FF     LDY #$FF                        A:EA X:02 Y:9E P:67 SP:FB CYC:266 SL:131
EA3F  A9 00     LDA #$00                        A:EA X:02 Y:FF P:E5 SP:FB CYC:272 SL:131
EA41  8D 47 06  STA $0647 = EA                  A:00 X:02 Y:FF P:67 SP:FB CYC:278 SL:131
EA44  20 42 FA  JSR $FA42                       A:00 X:02 Y:FF P:67 SP:FB CYC:290 SL:131
FA42  B8        CLV                             A:00 X:02 Y:FF P:67 SP:F9 CYC:308 SL:131
FA43  38        SEC                             A:00 X:02 Y:FF P:27 SP:F9 CYC:314 SL:131
FA44  A9 FF     LDA #$FF                        A:00 X:02 Y:FF P:27 SP:F9 CYC:320 SL:131
FA46  60        RTS                             A:FF X:02 Y:FF P:A5 SP:F9 CYC:326 SL:131
EA47  D3 45    *DCP ($45),Y = 0548 @ 0647 = 00  A:FF X:02 Y:FF P:A5 SP:FB CYC:  3 SL:132
EA49  EA        NOP                             A:FF X:02 Y:FF P:27 SP:FB CYC: 27 SL:132
EA4A  EA        NOP                             A:FF X:02 Y:FF P:27 SP:FB CYC: 33 SL:132
EA4B  08        PHP                             A:FF X:02 Y:FF P:27 SP:FB CYC: 39 SL:132
EA4C  48        PHA                             A:FF X:02 Y:FF P:27 SP:FA CYC: 48 SL:132
EA4D  A0 9F     LDY #$9F                        A:FF X:02 Y:FF P:27 SP:F9 CYC: 57 SL:132
EA4F  68        PLA                             A:FF X:02 Y:9F P:A5 SP:F9 CYC: 63 SL:132
EA50  28        PLP                             A:FF X:02 Y:9F P:A5 SP:FA CYC: 75 SL:132
EA51  20 47 FA  JSR $FA47                       A:FF X:02 Y:9F P:27 SP:FB CYC: 87 SL:132
FA47  70 1C     BVS $FA65                       A:FF X:02 Y:9F P:27 SP:F9 CYC:105 SL:132
FA49  D0 1A     BNE $FA65                       A:FF X:02 Y:9F P:27 SP:F9 CYC:111 SL:132
FA4B  30 18     BMI $FA65                       A:FF X:02 Y:9F P:27 SP:F9 CYC:117 SL:132
FA4D  90 16     BCC $FA65                       A:FF X:02 Y:9F P:27 SP:F9 CYC:123 SL:132
FA4F  C9 FF     CMP #$FF                        A:FF X:02 Y:9F P:27 SP:F9 CYC:129 SL:132
FA51  D0 12     BNE $FA65                       A:FF X:02 Y:9F P:27 SP:F9 CYC:135 SL:132
FA53  60        RTS                             A:FF X:02 Y:9F P:27 SP:F9 CYC:141 SL:132
EA54  AD 47 06  LDA $0647 = FF                  A:FF X:02 Y:9F P:27 SP:FB CYC:159 SL:132
EA57  C9 FF     CMP #$FF                        A:FF X:02 Y:9F P:A5 SP:FB CYC:171 SL:132
EA59  F0 02     BEQ $EA5D                       A:FF X:02 Y:9F P:27 SP:FB CYC:177 SL:132
EA5D  A0 FF     LDY #$FF                        A:FF X:02 Y:9F P:27 SP:FB CYC:186 SL:132
EA5F  A9 37     LDA #$37                        A:FF X:02 Y:FF P:A5 SP:FB CYC:192 SL:132
EA61  8D 47 06  STA $0647 = FF                  A:37 X:02 Y:FF P:25 SP:FB CYC:198 SL:132
EA64  20 54 FA  JSR $FA54                       A:37 X:02 Y:FF P:25 SP:FB CYC:210 SL:132
FA54  24 01     BIT $01 = FF                    A:37 X:02 Y:FF P:25 SP:F9 CYC:228 SL:132
FA56  A9 F0     LDA #$F0                        A:37 X:02 Y:FF P:E5 SP:F9 CYC:237 SL:132
FA58  60        RTS                             A:F0 X:02 Y:FF P:E5 SP:F9 CYC:243 SL:132
EA67  D3 45    *DCP ($45),Y = 0548 @ 0647 = 37  A:F0 X:02 Y:FF P:E5 SP:FB CYC:261 SL:132
EA69  EA        NOP                             A:F0 X:02 Y:FF P:E5 SP:FB CYC:285 SL:132
EA6A  EA        NOP                             A:F0 X:02 Y:FF P:E5 SP:FB CYC:291 SL:132
EA6B  08        PHP                             A:F0 X:02 Y:FF P:E5 SP:FB CYC:297 SL:132
EA6C  48        PHA                             A:F0 X:02 Y:FF P:E5 SP:FA CYC:306 SL:132
EA6D  A0 A0     LDY #$A0                        A:F0 X:02 Y:FF P:E5 SP:F9 CYC:315 SL:132
EA6F  68        PLA                             A:F0 X:02 Y:A0 P:E5 SP:F9 CYC:321 SL:132
EA70  28        PLP                             A:F0 X:02 Y:A0 P:E5 SP:FA CYC:333 SL:132
EA71  20 59 FA  JSR $FA59                       A:F0 X:02 Y:A0 P:E5 SP:FB CYC:  4 SL:133
FA59  50 0A     BVC $FA65                       A:F0 X:02 Y:A0 P:E5 SP:F9 CYC: 22 SL:133
FA5B  F0 08     BEQ $FA65                       A:F0 X:02 Y:A0 P:E5 SP:F9 CYC: 28 SL:133
FA5D  10 06     BPL $FA65                       A:F0 X:02 Y:A0 P:E5 SP:F9 CYC: 34 SL:133
FA5F  90 04     BCC $FA65                       A:F0 X:02 Y:A0 P:E5 SP:F9 CYC: 40 SL:133
FA61  C9 F0     CMP #$F0                        A:F0 X:02 Y:A0 P:E5 SP:F9 CYC: 46 SL:133
FA63  F0 02     BEQ $FA67                       A:F0 X:02 Y:A0 P:67 SP:F9 CYC: 52 SL:133
FA67  60        RTS                             A:F0 X:02 Y:A0 P:67 SP:F9 CYC: 61 SL:133
EA74  AD 47 06  LDA $0647 = 36                  A:F0 X:02 Y:A0 P:67 SP:FB CYC: 79 SL:133
EA77  C9 36     CMP #$36                        A:36 X:02 Y:A0 P:65 SP:FB CYC: 91 SL:133
EA79  F0 02     BEQ $EA7D                       A:36 X:02 Y:A0 P:67 SP:FB CYC: 97 SL:133
EA7D  A0 A1     LDY #$A1                        A:36 X:02 Y:A0 P:67 SP:FB CYC:106 SL:133
EA7F  A2 FF     LDX #$FF                        A:36 X:02 Y:A1 P:E5 SP:FB CYC:112 SL:133
EA81  A9 EB     LDA #$EB                        A:36 X:FF Y:A1 P:E5 SP:FB CYC:118 SL:133
EA83  85 47     STA $47 = 36                    A:EB X:FF Y:A1 P:E5 SP:FB CYC:124 SL:133
EA85  20 31 FA  JSR $FA31                       A:EB X:FF Y:A1 P:E5 SP:FB CYC:133 SL:133
FA31  24 01     BIT $01 = FF                    A:EB X:FF Y:A1 P:E5 SP:F9 CYC:151 SL:133
FA33  18        CLC                             A:EB X:FF Y:A1 P:E5 SP:F9 CYC:160 SL:133
FA34  A9 40     LDA #$40                        A:EB X:FF Y:A1 P:E4 SP:F9 CYC:166 SL:133
FA36  60        RTS                             A:40 X:FF Y:A1 P:64 SP:F9 CYC:172 SL:133
EA88  D7 48    *DCP $48,X @ 47 = EB             A:40 X:FF Y:A1 P:64 SP:FB CYC:190 SL:133
EA8A  EA        NOP                             A:40 X:FF Y:A1 P:64 SP:FB CYC:208 SL:133
EA8B  EA        NOP                             A:40 X:FF Y:A1 P:64 SP:FB CYC:214 SL:133
EA8C  EA        NOP                             A:40 X:FF Y:A1 P:64 SP:FB CYC:220 SL:133
EA8D  EA        NOP                             A:40 X:FF Y:A1 P:64 SP:FB CYC:226 SL:133
EA8E  20 37 FA  JSR $FA37                       A:40 X:FF Y:A1 P:64 SP:FB CYC:232 SL:133
FA37  50 2C     BVC $FA65                       A:40 X:FF Y:A1 P:64 SP:F9 CYC:250 SL:133
FA39  B0 2A     BCS $FA65                       A:40 X:FF Y:A1 P:64 SP:F9 CYC:256 SL:133
FA3B  30 28     BMI $FA65                       A:40 X:FF Y:A1 P:64 SP:F9 CYC:262 SL:133
FA3D  C9 40     CMP #$40                        A:40 X:FF Y:A1 P:64 SP:F9 CYC:268 SL:133
FA3F  D0 24     BNE $FA65                       A:40 X:FF Y:A1 P:67 SP:F9 CYC:274 SL:133
FA41  60        RTS                             A:40 X:FF Y:A1 P:67 SP:F9 CYC:280 SL:133
EA91  A5 47     LDA $47 = EA                    A:40 X:FF Y:A1 P:67 SP:FB CYC:298 SL:133
EA93  C9 EA     CMP #$EA                        A:EA X:FF Y:A1 P:E5 SP:FB CYC:307 SL:133
EA95  F0 02     BEQ $EA99                       A:EA X:FF Y:A1 P:67 SP:FB CYC:313 SL:133
EA99  C8        INY                             A:EA X:FF Y:A1 P:67 SP:FB CYC:322 SL:133
EA9A  A9 00     LDA #$00                        A:EA X:FF Y:A2 P:E5 SP:FB CYC:328 SL:133
EA9C  85 47     STA $47 = EA                    A:00 X:FF Y:A2 P:67 SP:FB CYC:334 SL:133
EA9E  20 42 FA  JSR $FA42                       A:00 X:FF Y:A2 P:67 SP:FB CYC:  2 SL:134
FA42  B8        CLV                             A:00 X:FF Y:A2 P:67 SP:F9 CYC: 20 SL:134
FA43  38        SEC                             A:00 X:FF Y:A2 P:27 SP:F9 CYC: 26 SL:134
FA44  A9 FF     LDA #$FF                        A:00 X:FF Y:A2 P:27 SP:F9 CYC: 32 SL:134
FA46  60        RTS                             A:FF X:FF Y:A2 P:A5 SP:F9 CYC: 38 SL:134
EAA1  D7 48    *DCP $48,X @ 47 = 00             A:FF X:FF Y:A2 P:A5 SP:FB CYC: 56 SL:134
EAA3  EA        NOP                             A:FF X:FF Y:A2 P:27 SP:FB CYC: 74 SL:134
EAA4  EA        NOP                             A:FF X:FF Y:A2 P:27 SP:FB CYC: 80 SL:134
EAA5  EA        NOP                             A:FF X:FF Y:A2 P:27 SP:FB CYC: 86 SL:134
EAA6  EA        NOP                             A:FF X:FF Y:A2 P:27 SP:FB CYC: 92 SL:134
EAA7  20 47 FA  JSR $FA47                       A:FF X:FF Y:A2 P:27 SP:FB CYC: 98 SL:134
FA47  70 1C     BVS $FA65                       A:FF X:FF Y:A2 P:27 SP:F9 CYC:116 SL:134
FA49  D0 1A     BNE $FA65                       A:FF X:FF Y:A2 P:27 SP:F9 CYC:122 SL:134
FA4B  30 18     BMI $FA65                       A:FF X:FF Y:A2 P:27 SP:F9 CYC:128 SL:134
FA4D  90 16     BCC $FA65                       A:FF X:FF Y:A2 P:27 SP:F9 CYC:134 SL:134
FA4F  C9 FF     CMP #$FF                        A:FF X:FF Y:A2 P:27 SP:F9 CYC:140 SL:134
FA51  D0 12     BNE $FA65                       A:FF X:FF Y:A2 P:27 SP:F9 CYC:146 SL:134
FA53  60        RTS                             A:FF X:FF Y:A2 P:27 SP:F9 CYC:152 SL:134
EAAA  A5 47     LDA $47 = FF                    A:FF X:FF Y:A2 P:27 SP:FB CYC:170 SL:134
EAAC  C9 FF     CMP #$FF                        A:FF X:FF Y:A2 P:A5 SP:FB CYC:179 SL:134
EAAE  F0 02     BEQ $EAB2                       A:FF X:FF Y:A2 P:27 SP:FB CYC:185 SL:134
EAB2  C8        INY                             A:FF X:FF Y:A2 P:27 SP:FB CYC:194 SL:134
EAB3  A9 37     LDA #$37                        A:FF X:FF Y:A3 P:A5 SP:FB CYC:200 SL:134
EAB5  85 47     STA $47 = FF                    A:37 X:FF Y:A3 P:25 SP:FB CYC:206 SL:134
EAB7  20 54 FA  JSR $FA54                       A:37 X:FF Y:A3 P:25 SP:FB CYC:215 SL:134
FA54  24 01     BIT $01 = FF                    A:37 X:FF Y:A3 P:25 SP:F9 CYC:233 SL:134
FA56  A9 F0     LDA #$F0                        A:37 X:FF Y:A3 P:E5 SP:F9 CYC:242 SL:134
FA58  60        RTS                             A:F0 X:FF Y:A3 P:E5 SP:F9 CYC:248 SL:134
EABA  D7 48    *DCP $48,X @ 47 = 37             A:F0 X:FF Y:A3 P:E5 SP:FB CYC:266 SL:134
EABC  EA        NOP                             A:F0 X:FF Y:A3 P:E5 SP:FB CYC:284 SL:134
EABD  EA        NOP                             A:F0 X:FF Y:A3 P:E5 SP:FB CYC:290 SL:134
EABE  EA        NOP                             A:F0 X:FF Y:A3 P:E5 SP:FB CYC:296 SL:134
EABF  EA        NOP                             A:F0 X:FF Y:A3 P:E5 SP:FB CYC:302 SL:134
EAC0  20 59 FA  JSR $FA59                       A:F0 X:FF Y:A3 P:E5 SP:FB CYC:308 SL:134
FA59  50 0A     BVC $FA65                       A:F0 X:FF Y:A3 P:E5 SP:F9 CYC:326 SL:134
FA5B  F0 08     BEQ $FA65                       A:F0 X:FF Y:A3 P:E5 SP:F9 CYC:332 SL:134
FA5D  10 06     BPL $FA65                       A:F0 X:FF Y:A3 P:E5 SP:F9 CYC:338 SL:134
FA5F  90 04     BCC $FA65                       A:F0 X:FF Y:A3 P:E5 SP:F9 CYC:  3 SL:135
FA61  C9 F0     CMP #$F0                        A:F0 X:FF Y:A3 P:E5 SP:F9 CYC:  9 SL:135
FA63  F0 02     BEQ $FA67                       A:F0 X:FF Y:A3 P:67 SP:F9 CYC: 15 SL:135
FA67  60        RTS                             A:F0 X:FF Y:A3 P:67 SP:F9 CYC: 24 SL:135
EAC3  A5 47     LDA $47 = 36                    A:F0 X:FF Y:A3 P:67 SP:FB CYC: 42 SL:135
EAC5  C9 36     CMP #$36                        A:36 X:FF Y:A3 P:65 SP:FB CYC: 51 SL:135
EAC7  F0 02     BEQ $EACB                       A:36 X:FF Y:A3 P:67 SP:FB CYC: 57 SL:135
EACB  A9 EB     LDA #$EB                        A:36 X:FF Y:A3 P:67 SP:FB CYC: 66 SL:135
EACD  8D 47 06  STA $0647 = 36                  A:EB X:FF Y:A3 P:E5 SP:FB CYC: 72 SL:135
EAD0  A0 FF     LDY #$FF                        A:EB X:FF Y:A3 P:E5 SP:FB CYC: 84 SL:135
EAD2  20 31 FA  JSR $FA31                       A:EB X:FF Y:FF P:E5 SP:FB CYC: 90 SL:135
FA31  24 01     BIT $01 = FF                    A:EB X:FF Y:FF P:E5 SP:F9 CYC:108 SL:135
FA33  18        CLC                             A:EB X:FF Y:FF P:E5 SP:F9 CYC:117 SL:135
FA34  A9 40     LDA #$40                        A:EB X:FF Y:FF P:E4 SP:F9 CYC:123 SL:135
FA36  60        RTS                             A:40 X:FF Y:FF P:64 SP:F9 CYC:129 SL:135
EAD5  DB 48 05 *DCP $0548,Y @ 0647 = EB         A:40 X:FF Y:FF P:64 SP:FB CYC:147 SL:135
EAD8  EA        NOP                             A:40 X:FF Y:FF P:64 SP:FB CYC:168 SL:135
EAD9  EA        NOP                             A:40 X:FF Y:FF P:64 SP:FB CYC:174 SL:135
EADA  08        PHP                             A:40 X:FF Y:FF P:64 SP:FB CYC:180 SL:135
EADB  48        PHA                             A:40 X:FF Y:FF P:64 SP:FA CYC:189 SL:135
EADC  A0 A4     LDY #$A4                        A:40 X:FF Y:FF P:64 SP:F9 CYC:198 SL:135
EADE  68        PLA                             A:40 X:FF Y:A4 P:E4 SP:F9 CYC:204 SL:135
EADF  28        PLP                             A:40 X:FF Y:A4 P:64 SP:FA CYC:216 SL:135
EAE0  20 37 FA  JSR $FA37                       A:40 X:FF Y:A4 P:64 SP:FB CYC:228 SL:135
FA37  50 2C     BVC $FA65                       A:40 X:FF Y:A4 P:64 SP:F9 CYC:246 SL:135
FA39  B0 2A     BCS $FA65                       A:40 X:FF Y:A4 P:64 SP:F9 CYC:252 SL:135
FA3B  30 28     BMI $FA65                       A:40 X:FF Y:A4 P:64 SP:F9 CYC:258 SL:135
FA3D  C9 40     CMP #$40                        A:40 X:FF Y:A4 P:64 SP:F9 CYC:264 SL:135
FA3F  D0 24     BNE $FA65                       A:40 X:FF Y:A4 P:67 SP:F9 CYC:270 SL:135
FA41  60        RTS                             A:40 X:FF Y:A4 P:67 SP:F9 CYC:276 SL:135
EAE3  AD 47 06  LDA $0647 = EA                  A:40 X:FF Y:A4 P:67 SP:FB CYC:294 SL:135
EAE6  C9 EA     CMP #$EA                        A:EA X:FF Y:A4 P:E5 SP:FB CYC:306 SL:135
EAE8  F0 02     BEQ $EAEC                       A:EA X:FF Y:A4 P:67 SP:FB CYC:312 SL:135
EAEC  A0 FF     LDY #$FF                        A:EA X:FF Y:A4 P:67 SP:FB CYC:321 SL:135
EAEE  A9 00     LDA #$00                        A:EA X:FF Y:FF P:E5 SP:FB CYC:327 SL:135
EAF0  8D 47 06  STA $0647 = EA                  A:00 X:FF Y:FF P:67 SP:FB CYC:333 SL:135
EAF3  20 42 FA  JSR $FA42                       A:00 X:FF Y:FF P:67 SP:FB CYC:  4 SL:136
FA42  B8        CLV                             A:00 X:FF Y:FF P:67 SP:F9 CYC: 22 SL:136
FA43  38        SEC                             A:00 X:FF Y:FF P:27 SP:F9 CYC: 28 SL:136
FA44  A9 FF     LDA #$FF                        A:00 X:FF Y:FF P:27 SP:F9 CYC: 34 SL:136
FA46  60        RTS                             A:FF X:FF Y:FF P:A5 SP:F9 CYC: 40 SL:136
EAF6  DB 48 05 *DCP $0548,Y @ 0647 = 00         A:FF X:FF Y:FF P:A5 SP:FB CYC: 58 SL:136
EAF9  EA        NOP                             A:FF X:FF Y:FF P:27 SP:FB CYC: 79 SL:136
EAFA  EA        NOP                             A:FF X:FF Y:FF P:27 SP:FB CYC: 85 SL:136
EAFB  08        PHP                             A:FF X:FF Y:FF P:27 SP:FB CYC: 91 SL:136
EAFC  48        PHA                             A:FF X:FF Y:FF P:27 SP:FA CYC:100 SL:136
EAFD  A0 A5     LDY #$A5                        A:FF X:FF Y:FF P:27 SP:F9 CYC:109 SL:136
EAFF  68        PLA                             A:FF X:FF Y:A5 P:A5 SP:F9 CYC:115 SL:136
EB00  28        PLP                             A:FF X:FF Y:A5 P:A5 SP:FA CYC:127 SL:136
EB01  20 47 FA  JSR $FA47                       A:FF X:FF Y:A5 P:27 SP:FB CYC:139 SL:136
FA47  70 1C     BVS $FA65                       A:FF X:FF Y:A5 P:27 SP:F9 CYC:157 SL:136
FA49  D0 1A     BNE $FA65                       A:FF X:FF Y:A5 P:27 SP:F9 CYC:163 SL:136
FA4B  30 18     BMI $FA65                       A:FF X:FF Y:A5 P:27 SP:F9 CYC:169 SL:136
FA4D  90 16     BCC $FA65                       A:FF X:FF Y:A5 P:27 SP:F9 CYC:175 SL:136
FA4F  C9 FF     CMP #$FF                        A:FF X:FF Y:A5 P:27 SP:F9 CYC:181 SL:136
FA51  D0 12     BNE $FA65                       A:FF X:FF Y:A5 P:27 SP:F9 CYC:187 SL:136
FA53  60        RTS                             A:FF X:FF Y:A5 P:27 SP:F9 CYC:193 SL:136
EB04  AD 47 06  LDA $0647 = FF                  A:FF X:FF Y:A5 P:27 SP:FB CYC:211 SL:136
EB07  C9 FF     CMP #$FF                        A:FF X:FF Y:A5 P:A5 SP:FB CYC:223 SL:136
EB09  F0 02     BEQ $EB0D                       A:FF X:FF Y:A5 P:27 SP:FB CYC:229 SL:136
EB0D  A0 FF     LDY #$FF                        A:FF X:FF Y:A5 P:27 SP:FB CYC:238 SL:136
EB0F  A9 37     LDA #$37                        A:FF X:FF Y:FF P:A5 SP:FB CYC:244 SL:136
EB11  8D 47 06  STA $0647 = FF                  A:37 X:FF Y:FF P:25 SP:FB CYC:250 SL:136
EB14  20 54 FA  JSR $FA54                       A:37 X:FF Y:FF P:25 SP:FB CYC:262 SL:136
FA54  24 01     BIT $01 = FF                    A:37 X:FF Y:FF P:25 SP:F9 CYC:280 SL:136
FA56  A9 F0     LDA #$F0                        A:37 X:FF Y:FF P:E5 SP:F9 CYC:289 SL:136
FA58  60        RTS                             A:F0 X:FF Y:FF P:E5 SP:F9 CYC:295 SL:136
EB17  DB 48 05 *DCP $0548,Y @ 0647 = 37         A:F0 X:FF Y:FF P:E5 SP:FB CYC:313 SL:136
EB1A  EA        NOP                             A:F0 X:FF Y:FF P:E5 SP:FB CYC:334 SL:136
EB1B  EA        NOP                             A:F0 X:FF Y:FF P:E5 SP:FB CYC:340 SL:136
EB1C  08        PHP                             A:F0 X:FF Y:FF P:E5 SP:FB CYC:  5 SL:137
EB1D  48        PHA                             A:F0 X:FF Y:FF P:E5 SP:FA CYC: 14 SL:137
EB1E  A0 A6     LDY #$A6                        A:F0 X:FF Y:FF P:E5 SP:F9 CYC: 23 SL:137
EB20  68        PLA                             A:F0 X:FF Y:A6 P:E5 SP:F9 CYC: 29 SL:137
EB21  28        PLP                             A:F0 X:FF Y:A6 P:E5 SP:FA CYC: 41 SL:137
EB22  20 59 FA  JSR $FA59                       A:F0 X:FF Y:A6 P:E5 SP:FB CYC: 53 SL:137
FA59  50 0A     BVC $FA65                       A:F0 X:FF Y:A6 P:E5 SP:F9 CYC: 71 SL:137
FA5B  F0 08     BEQ $FA65                       A:F0 X:FF Y:A6 P:E5 SP:F9 CYC: 77 SL:137
FA5D  10 06     BPL $FA65                       A:F0 X:FF Y:A6 P:E5 SP:F9 CYC: 83 SL:137
FA5F  90 04     BCC $FA65                       A:F0 X:FF Y:A6 P:E5 SP:F9 CYC: 89 SL:137
FA61  C9 F0     CMP #$F0                        A:F0 X:FF Y:A6 P:E5 SP:F9 CYC: 95 SL:137
FA63  F0 02     BEQ $FA67                       A:F0 X:FF Y:A6 P:67 SP:F9 CYC:101 SL:137
FA67  60        RTS                             A:F0 X:FF Y:A6 P:67 SP:F9 CYC:110 SL:137
EB25  AD 47 06  LDA $0647 = 36                  A:F0 X:FF Y:A6 P:67 SP:FB CYC:128 SL:137
EB28  C9 36     CMP #$36                        A:36 X:FF Y:A6 P:65 SP:FB CYC:140 SL:137
EB2A  F0 02     BEQ $EB2E                       A:36 X:FF Y:A6 P:67 SP:FB CYC:146 SL:137
EB2E  A0 A7     LDY #$A7                        A:36 X:FF Y:A6 P:67 SP:FB CYC:155 SL:137
EB30  A2 FF     LDX #$FF                        A:36 X:FF Y:A7 P:E5 SP:FB CYC:161 SL:137
EB32  A9 EB     LDA #$EB                        A:36 X:FF Y:A7 P:E5 SP:FB CYC:167 SL:137
EB34  8D 47 06  STA $0647 = 36                  A:EB X:FF Y:A7 P:E5 SP:FB CYC:173 SL:137
EB37  20 31 FA  JSR $FA31                       A:EB X:FF Y:A7 P:E5 SP:FB CYC:185 SL:137
FA31  24 01     BIT $01 = FF                    A:EB X:FF Y:A7 P:E5 SP:F9 CYC:203 SL:137
FA33  18        CLC                             A:EB X:FF Y:A7 P:E5 SP:F9 CYC:212 SL:137
FA34  A9 40     LDA #$40                        A:EB X:FF Y:A7 P:E4 SP:F9 CYC:218 SL:137
FA36  60        RTS                             A:40 X:FF Y:A7 P:64 SP:F9 CYC:224 SL:137
EB3A  DF 48 05 *DCP $0548,X @ 0647 = EB         A:40 X:FF Y:A7 P:64 SP:FB CYC:242 SL:137
EB3D  EA        NOP                             A:40 X:FF Y:A7 P:64 SP:FB CYC:263 SL:137
EB3E  EA        NOP                             A:40 X:FF Y:A7 P:64 SP:FB CYC:269 SL:137
EB3F  EA        NOP                             A:40 X:FF Y:A7 P:64 SP:FB CYC:275 SL:137
EB40  EA        NOP                             A:40 X:FF Y:A7 P:64 SP:FB CYC:281 SL:137
EB41  20 37 FA  JSR $FA37                       A:40 X:FF Y:A7 P:64 SP:FB CYC:287 SL:137
FA37  50 2C     BVC $FA65                       A:40 X:FF Y:A7 P:64 SP:F9 CYC:305 SL:137
FA39  B0 2A     BCS $FA65                       A:40 X:FF Y:A7 P:64 SP:F9 CYC:311 SL:137
FA3B  30 28     BMI $FA65                       A:40 X:FF Y:A7 P:64 SP:F9 CYC:317 SL:137
FA3D  C9 40     CMP #$40                        A:40 X:FF Y:A7 P:64 SP:F9 CYC:323 SL:137
FA3F  D0 24     BNE $FA65                       A:40 X:FF Y:A7 P:67 SP:F9 CYC:329 SL:137
FA41  60        RTS                             A:40 X:FF Y:A7 P:67 SP:F9 CYC:335 SL:137
EB44  AD 47 06  LDA $0647 = EA                  A:40 X:FF Y:A7 P:67 SP:FB CYC: 12 SL:138
EB47  C9 EA     CMP #$EA                        A:EA X:FF Y:A7 P:E5 SP:FB CYC: 24 SL:138
EB49  F0 02     BEQ $EB4D                       A:EA X:FF Y:A7 P:67 SP:FB CYC: 30 SL:138
EB4D  C8        INY                             A:EA X:FF Y:A7 P:67 SP:FB CYC: 39 SL:138
EB4E  A9 00     LDA #$00                        A:EA X:FF Y:A8 P:E5 SP:FB CYC: 45 SL:138
EB50  8D 47 06  STA $0647 = EA                  A:00 X:FF Y:A8 P:67 SP:FB CYC: 51 SL:138
EB53  20 42 FA  JSR $FA42                       A:00 X:FF Y:A8 P:67 SP:FB CYC: 63 SL:138
FA42  B8        CLV                             A:00 X:FF Y:A8 P:67 SP:F9 CYC: 81 SL:138
FA43  38        SEC                             A:00 X:FF Y:A8 P:27 SP:F9 CYC: 87 SL:138
FA44  A9 FF     LDA #$FF                        A:00 X:FF Y:A8 P:27 SP:F9 CYC: 93 SL:138
FA46  60        RTS                             A:FF X:FF Y:A8 P:A5 SP:F9 CYC: 99 SL:138
EB56  DF 48 05 *DCP $0548,X @ 0647 = 00         A:FF X:FF Y:A8 P:A5 SP:FB CYC:117 SL:138
EB59  EA        NOP                             A:FF X:FF Y:A8 P:27 SP:FB CYC:138 SL:138
EB5A  EA        NOP                             A:FF X:FF Y:A8 P:27 SP:FB CYC:144 SL:138
EB5B  EA        NOP                             A:FF X:FF Y:A8 P:27 SP:FB CYC:150 SL:138
EB5C  EA        NOP                             A:FF X:FF Y:A8 P:27 SP:FB CYC:156 SL:138
EB5D  20 47 FA  JSR $FA47                       A:FF X:FF Y:A8 P:27 SP:FB CYC:162 SL:138
FA47  70 1C     BVS $FA65                       A:FF X:FF Y:A8 P:27 SP:F9 CYC:180 SL:138
FA49  D0 1A     BNE $FA65                       A:FF X:FF Y:A8 P:27 SP:F9 CYC:186 SL:138
FA4B  30 18     BMI $FA65                       A:FF X:FF Y:A8 P:27 SP:F9 CYC:192 SL:138
FA4D  90 16     BCC $FA65                       A:FF X:FF Y:A8 P:27 SP:F9 CYC:198 SL:138
FA4F  C9 FF     CMP #$FF                        A:FF X:FF Y:A8 P:27 SP:F9 CYC:204 SL:138
FA51  D0 12     BNE $FA65                       A:FF X:FF Y:A8 P:27 SP:F9 CYC:210 SL:138
FA53  60        RTS                             A:FF X:FF Y:A8 P:27 SP:F9 CYC:216 SL:138
EB60  AD 47 06  LDA $0647 = FF                  A:FF X:FF Y:A8 P:27 SP:FB CYC:234 SL:138
EB63  C9 FF     CMP #$FF                        A:FF X:FF Y:A8 P:A5 SP:FB CYC:246 SL:138
EB65  F0 02     BEQ $EB69                       A:FF X:FF Y:A8 P:27 SP:FB CYC:252 SL:138
EB69  C8        INY                             A:FF X:FF Y:A8 P:27 SP:FB CYC:261 SL:138
EB6A  A9 37     LDA #$37                        A:FF X:FF Y:A9 P:A5 SP:FB CYC:267 SL:138
EB6C  8D 47 06  STA $0647 = FF                  A:37 X:FF Y:A9 P:25 SP:FB CYC:273 SL:138
EB6F  20 54 FA  JSR $FA54                       A:37 X:FF Y:A9 P:25 SP:FB CYC:285 SL:138
FA54  24 01     BIT $01 = FF                    A:37 X:FF Y:A9 P:25 SP:F9 CYC:303 SL:138
FA56  A9 F0     LDA #$F0                        A:37 X:FF Y:A9 P:E5 SP:F9 CYC:312 SL:138
FA58  60        RTS                             A:F0 X:FF Y:A9 P:E5 SP:F9 CYC:318 SL:138
EB72  DF 48 05 *DCP $0548,X @ 0647 = 37         A:F0 X:FF Y:A9 P:E5 SP:FB CYC:336 SL:138
EB75  EA        NOP                             A:F0 X:FF Y:A9 P:E5 SP:FB CYC: 16 SL:139
EB76  EA        NOP                             A:F0 X:FF Y:A9 P:E5 SP:FB CYC: 22 SL:139
EB77  EA        NOP                             A:F0 X:FF Y:A9 P:E5 SP:FB CYC: 28 SL:139
EB78  EA        NOP                             A:F0 X:FF Y:A9 P:E5 SP:FB CYC: 34 SL:139
EB79  20 59 FA  JSR $FA59                       A:F0 X:FF Y:A9 P:E5 SP:FB CYC: 40 SL:139
FA59  50 0A     BVC $FA65                       A:F0 X:FF Y:A9 P:E5 SP:F9 CYC: 58 SL:139
FA5B  F0 08     BEQ $FA65                       A:F0 X:FF Y:A9 P:E5 SP:F9 CYC: 64 SL:139
FA5D  10 06     BPL $FA65                       A:F0 X:FF Y:A9 P:E5 SP:F9 CYC: 70 SL:139
FA5F  90 04     BCC $FA65                       A:F0 X:FF Y:A9 P:E5 SP:F9 CYC: 76 SL:139
FA61  C9 F0     CMP #$F0                        A:F0 X:FF Y:A9 P:E5 SP:F9 CYC: 82 SL:139
FA63  F0 02     BEQ $FA67                       A:F0 X:FF Y:A9 P:67 SP:F9 CYC: 88 SL:139
FA67  60        RTS                             A:F0 X:FF Y:A9 P:67 SP:F9 CYC: 97 SL:139
EB7C  AD 47 06  LDA $0647 = 36                  A:F0 X:FF Y:A9 P:67 SP:FB CYC:115 SL:139
EB7F  C9 36     CMP #$36                        A:36 X:FF Y:A9 P:65 SP:FB CYC:127 SL:139
EB81  F0 02     BEQ $EB85                       A:36 X:FF Y:A9 P:67 SP:FB CYC:133 SL:139
EB85  60        RTS                             A:36 X:FF Y:A9 P:67 SP:FB CYC:142 SL:139
C63E  20 86 EB  JSR $EB86                       A:36 X:FF Y:A9 P:67 SP:FD CYC:160 SL:139
EB86  A9 FF     LDA #$FF                        A:36 X:FF Y:A9 P:67 SP:FB CYC:178 SL:139
EB88  85 01     STA $01 = FF                    A:FF X:FF Y:A9 P:E5 SP:FB CYC:184 SL:139
EB8A  A0 AA     LDY #$AA                        A:FF X:FF Y:A9 P:E5 SP:FB CYC:193 SL:139
EB8C  A2 02     LDX #$02                        A:FF X:FF Y:AA P:E5 SP:FB CYC:199 SL:139
EB8E  A9 47     LDA #$47                        A:FF X:02 Y:AA P:65 SP:FB CYC:205 SL:139
EB90  85 47     STA $47 = 36                    A:47 X:02 Y:AA P:65 SP:FB CYC:211 SL:139
EB92  A9 06     LDA #$06                        A:47 X:02 Y:AA P:65 SP:FB CYC:220 SL:139
EB94  85 48     STA $48 = 06                    A:06 X:02 Y:AA P:65 SP:FB CYC:226 SL:139
EB96  A9 EB     LDA #$EB                        A:06 X:02 Y:AA P:65 SP:FB CYC:235 SL:139
EB98  8D 47 06  STA $0647 = 36                  A:EB X:02 Y:AA P:E5 SP:FB CYC:241 SL:139
EB9B  20 B1 FA  JSR $FAB1                       A:EB X:02 Y:AA P:E5 SP:FB CYC:253 SL:139
FAB1  24 01     BIT $01 = FF                    A:EB X:02 Y:AA P:E5 SP:F9 CYC:271 SL:139
FAB3  18        CLC                             A:EB X:02 Y:AA P:E5 SP:F9 CYC:280 SL:139
FAB4  A9 40     LDA #$40                        A:EB X:02 Y:AA P:E4 SP:F9 CYC:286 SL:139
FAB6  60        RTS                             A:40 X:02 Y:AA P:64 SP:F9 CYC:292 SL:139
EB9E  E3 45    *ISB ($45,X) @ 47 = 0647 = EB    A:40 X:02 Y:AA P:64 SP:FB CYC:310 SL:139
EBA0  EA        NOP                             A:53 X:02 Y:AA P:24 SP:FB CYC:334 SL:139
EBA1  EA        NOP                             A:53 X:02 Y:AA P:24 SP:FB CYC:340 SL:139
EBA2  EA        NOP                             A:53 X:02 Y:AA P:24 SP:FB CYC:  5 SL:140
EBA3  EA        NOP                             A:53 X:02 Y:AA P:24 SP:FB CYC: 11 SL:140
EBA4  20 B7 FA  JSR $FAB7                       A:53 X:02 Y:AA P:24 SP:FB CYC: 17 SL:140
FAB7  70 2D     BVS $FAE6                       A:53 X:02 Y:AA P:24 SP:F9 CYC: 35 SL:140
FAB9  B0 2B     BCS $FAE6                       A:53 X:02 Y:AA P:24 SP:F9 CYC: 41 SL:140
FABB  30 29     BMI $FAE6                       A:53 X:02 Y:AA P:24 SP:F9 CYC: 47 SL:140
FABD  C9 53     CMP #$53                        A:53 X:02 Y:AA P:24 SP:F9 CYC: 53 SL:140
FABF  D0 25     BNE $FAE6                       A:53 X:02 Y:AA P:27 SP:F9 CYC: 59 SL:140
FAC1  60        RTS                             A:53 X:02 Y:AA P:27 SP:F9 CYC: 65 SL:140
EBA7  AD 47 06  LDA $0647 = EC                  A:53 X:02 Y:AA P:27 SP:FB CYC: 83 SL:140
EBAA  C9 EC     CMP #$EC                        A:EC X:02 Y:AA P:A5 SP:FB CYC: 95 SL:140
EBAC  F0 02     BEQ $EBB0                       A:EC X:02 Y:AA P:27 SP:FB CYC:101 SL:140
EBB0  C8        INY                             A:EC X:02 Y:AA P:27 SP:FB CYC:110 SL:140
EBB1  A9 FF     LDA #$FF                        A:EC X:02 Y:AB P:A5 SP:FB CYC:116 SL:140
EBB3  8D 47 06  STA $0647 = EC                  A:FF X:02 Y:AB P:A5 SP:FB CYC:122 SL:140
EBB6  20 C2 FA  JSR $FAC2                       A:FF X:02 Y:AB P:A5 SP:FB CYC:134 SL:140
FAC2  B8        CLV                             A:FF X:02 Y:AB P:A5 SP:F9 CYC:152 SL:140
FAC3  38        SEC                             A:FF X:02 Y:AB P:A5 SP:F9 CYC:158 SL:140
FAC4  A9 FF     LDA #$FF                        A:FF X:02 Y:AB P:A5 SP:F9 CYC:164 SL:140
FAC6  60        RTS                             A:FF X:02 Y:AB P:A5 SP:F9 CYC:170 SL:140
EBB9  E3 45    *ISB ($45,X) @ 47 = 0647 = FF    A:FF X:02 Y:AB P:A5 SP:FB CYC:188 SL:140
EBBB  EA        NOP                             A:FF X:02 Y:AB P:A5 SP:FB CYC:212 SL:140
EBBC  EA        NOP                             A:FF X:02 Y:AB P:A5 SP:FB CYC:218 SL:140
EBBD  EA        NOP                             A:FF X:02 Y:AB P:A5 SP:FB CYC:224 SL:140
EBBE  EA        NOP                             A:FF X:02 Y:AB P:A5 SP:FB CYC:230 SL:140
EBBF  20 C7 FA  JSR $FAC7                       A:FF X:02 Y:AB P:A5 SP:FB CYC:236 SL:140
FAC7  70 1D     BVS $FAE6                       A:FF X:02 Y:AB P:A5 SP:F9 CYC:254 SL:140
FAC9  F0 1B     BEQ $FAE6                       A:FF X:02 Y:AB P:A5 SP:F9 CYC:260 SL:140
FACB  10 19     BPL $FAE6                       A:FF X:02 Y:AB P:A5 SP:F9 CYC:266 SL:140
FACD  90 17     BCC $FAE6                       A:FF X:02 Y:AB P:A5 SP:F9 CYC:272 SL:140
FACF  C9 FF     CMP #$FF                        A:FF X:02 Y:AB P:A5 SP:F9 CYC:278 SL:140
FAD1  D0 13     BNE $FAE6                       A:FF X:02 Y:AB P:27 SP:F9 CYC:284 SL:140
FAD3  60        RTS                             A:FF X:02 Y:AB P:27 SP:F9 CYC:290 SL:140
EBC2  AD 47 06  LDA $0647 = 00                  A:FF X:02 Y:AB P:27 SP:FB CYC:308 SL:140
EBC5  C9 00     CMP #$00                        A:00 X:02 Y:AB P:27 SP:FB CYC:320 SL:140
EBC7  F0 02     BEQ $EBCB                       A:00 X:02 Y:AB P:27 SP:FB CYC:326 SL:140
EBCB  C8        INY                             A:00 X:02 Y:AB P:27 SP:FB CYC:335 SL:140
EBCC  A9 37     LDA #$37                        A:00 X:02 Y:AC P:A5 SP:FB CYC:  0 SL:141
EBCE  8D 47 06  STA $0647 = 00                  A:37 X:02 Y:AC P:25 SP:FB CYC:  6 SL:141
EBD1  20 D4 FA  JSR $FAD4                       A:37 X:02 Y:AC P:25 SP:FB CYC: 18 SL:141
FAD4  24 01     BIT $01 = FF                    A:37 X:02 Y:AC P:25 SP:F9 CYC: 36 SL:141
FAD6  38        SEC                             A:37 X:02 Y:AC P:E5 SP:F9 CYC: 45 SL:141
FAD7  A9 F0     LDA #$F0                        A:37 X:02 Y:AC P:E5 SP:F9 CYC: 51 SL:141
FAD9  60        RTS                             A:F0 X:02 Y:AC P:E5 SP:F9 CYC: 57 SL:141
EBD4  E3 45    *ISB ($45,X) @ 47 = 0647 = 37    A:F0 X:02 Y:AC P:E5 SP:FB CYC: 75 SL:141
EBD6  EA        NOP                             A:B8 X:02 Y:AC P:A5 SP:FB CYC: 99 SL:141
EBD7  EA        NOP                             A:B8 X:02 Y:AC P:A5 SP:FB CYC:105 SL:141
EBD8  EA        NOP                             A:B8 X:02 Y:AC P:A5 SP:FB CYC:111 SL:141
EBD9  EA        NOP                             A:B8 X:02 Y:AC P:A5 SP:FB CYC:117 SL:141
EBDA  20 DA FA  JSR $FADA                       A:B8 X:02 Y:AC P:A5 SP:FB CYC:123 SL:141
FADA  70 0A     BVS $FAE6                       A:B8 X:02 Y:AC P:A5 SP:F9 CYC:141 SL:141
FADC  F0 08     BEQ $FAE6                       A:B8 X:02 Y:AC P:A5 SP:F9 CYC:147 SL:141
FADE  10 06     BPL $FAE6                       A:B8 X:02 Y:AC P:A5 SP:F9 CYC:153 SL:141
FAE0  90 04     BCC $FAE6                       A:B8 X:02 Y:AC P:A5 SP:F9 CYC:159 SL:141
FAE2  C9 B8     CMP #$B8                        A:B8 X:02 Y:AC P:A5 SP:F9 CYC:165 SL:141
FAE4  F0 02     BEQ $FAE8                       A:B8 X:02 Y:AC P:27 SP:F9 CYC:171 SL:141
FAE8  60        RTS                             A:B8 X:02 Y:AC P:27 SP:F9 CYC:180 SL:141
EBDD  AD 47 06  LDA $0647 = 38                  A:B8 X:02 Y:AC P:27 SP:FB CYC:198 SL:141
EBE0  C9 38     CMP #$38                        A:38 X:02 Y:AC P:25 SP:FB CYC:210 SL:141
EBE2  F0 02     BEQ $EBE6                       A:38 X:02 Y:AC P:27 SP:FB CYC:216 SL:141
EBE6  C8        INY                             A:38 X:02 Y:AC P:27 SP:FB CYC:225 SL:141
EBE7  A9 EB     LDA #$EB                        A:38 X:02 Y:AD P:A5 SP:FB CYC:231 SL:141
EBE9  85 47     STA $47 = 47                    A:EB X:02 Y:AD P:A5 SP:FB CYC:237 SL:141
EBEB  20 B1 FA  JSR $FAB1                       A:EB X:02 Y:AD P:A5 SP:FB CYC:246 SL:141
FAB1  24 01     BIT $01 = FF                    A:EB X:02 Y:AD P:A5 SP:F9 CYC:264 SL:141
FAB3  18        CLC                             A:EB X:02 Y:AD P:E5 SP:F9 CYC:273 SL:141
FAB4  A9 40     LDA #$40                        A:EB X:02 Y:AD P:E4 SP:F9 CYC:279 SL:141
FAB6  60        RTS                             A:40 X:02 Y:AD P:64 SP:F9 CYC:285 SL:141
EBEE  E7 47    *ISB $47 = EB                    A:40 X:02 Y:AD P:64 SP:FB CYC:303 SL:141
EBF0  EA        NOP                             A:53 X:02 Y:AD P:24 SP:FB CYC:318 SL:141
EBF1  EA        NOP                             A:53 X:02 Y:AD P:24 SP:FB CYC:324 SL:141
EBF2  EA        NOP                             A:53 X:02 Y:AD P:24 SP:FB CYC:330 SL:141
EBF3  EA        NOP                             A:53 X:02 Y:AD P:24 SP:FB CYC:336 SL:141
EBF4  20 B7 FA  JSR $FAB7                       A:53 X:02 Y:AD P:24 SP:FB CYC:  1 SL:142
FAB7  70 2D     BVS $FAE6                       A:53 X:02 Y:AD P:24 SP:F9 CYC: 19 SL:142
FAB9  B0 2B     BCS $FAE6                       A:53 X:02 Y:AD P:24 SP:F9 CYC: 25 SL:142
FABB  30 29     BMI $FAE6                       A:53 X:02 Y:AD P:24 SP:F9 CYC: 31 SL:142
FABD  C9 53     CMP #$53                        A:53 X:02 Y:AD P:24 SP:F9 CYC: 37 SL:142
FABF  D0 25     BNE $FAE6                       A:53 X:02 Y:AD P:27 SP:F9 CYC: 43 SL:142
FAC1  60        RTS                             A:53 X:02 Y:AD P:27 SP:F9 CYC: 49 SL:142
EBF7  A5 47     LDA $47 = EC                    A:53 X:02 Y:AD P:27 SP:FB CYC: 67 SL:142
EBF9  C9 EC     CMP #$EC                        A:EC X:02 Y:AD P:A5 SP:FB CYC: 76 SL:142
EBFB  F0 02     BEQ $EBFF                       A:EC X:02 Y:AD P:27 SP:FB CYC: 82 SL:142
EBFF  C8        INY                             A:EC X:02 Y:AD P:27 SP:FB CYC: 91 SL:142
EC00  A9 FF     LDA #$FF                        A:EC X:02 Y:AE P:A5 SP:FB CYC: 97 SL:142
EC02  85 47     STA $47 = EC                    A:FF X:02 Y:AE P:A5 SP:FB CYC:103 SL:142
EC04  20 C2 FA  JSR $FAC2                       A:FF X:02 Y:AE P:A5 SP:FB CYC:112 SL:142
FAC2  B8        CLV                             A:FF X:02 Y:AE P:A5 SP:F9 CYC:130 SL:142
FAC3  38        SEC                             A:FF X:02 Y:AE P:A5 SP:F9 CYC:136 SL:142
FAC4  A9 FF     LDA #$FF                        A:FF X:02 Y:AE P:A5 SP:F9 CYC:142 SL:142
FAC6  60        RTS                             A:FF X:02 Y:AE P:A5 SP:F9 CYC:148 SL:142
EC07  E7 47    *ISB $47 = FF                    A:FF X:02 Y:AE P:A5 SP:FB CYC:166 SL:142
EC09  EA        NOP                             A:FF X:02 Y:AE P:A5 SP:FB CYC:181 SL:142
EC0A  EA        NOP                             A:FF X:02 Y:AE P:A5 SP:FB CYC:187 SL:142
EC0B  EA        NOP                             A:FF X:02 Y:AE P:A5 SP:FB CYC:193 SL:142
EC0C  EA        NOP                             A:FF X:02 Y:AE P:A5 SP:FB CYC:199 SL:142
EC0D  20 C7 FA  JSR $FAC7                       A:FF X:02 Y:AE P:A5 SP:FB CYC:205 SL:142
FAC7  70 1D     BVS $FAE6                       A:FF X:02 Y:AE P:A5 SP:F9 CYC:223 SL:142
FAC9  F0 1B     BEQ $FAE6                       A:FF X:02 Y:AE P:A5 SP:F9 CYC:229 SL:142
FACB  10 19     BPL $FAE6                       A:FF X:02 Y:AE P:A5 SP:F9 CYC:235 SL:142
FACD  90 17     BCC $FAE6                       A:FF X:02 Y:AE P:A5 SP:F9 CYC:241 SL:142
FACF  C9 FF     CMP #$FF                        A:FF X:02 Y:AE P:A5 SP:F9 CYC:247 SL:142
FAD1  D0 13     BNE $FAE6                       A:FF X:02 Y:AE P:27 SP:F9 CYC:253 SL:142
FAD3  60        RTS                             A:FF X:02 Y:AE P:27 SP:F9 CYC:259 SL:142
EC10  A5 47     LDA $47 = 00                    A:FF X:02 Y:AE P:27 SP:FB CYC:277 SL:142
EC12  C9 00     CMP #$00                        A:00 X:02 Y:AE P:27 SP:FB CYC:286 SL:142
EC14  F0 02     BEQ $EC18                       A:00 X:02 Y:AE P:27 SP:FB CYC:292 SL:142
EC18  C8        INY                             A:00 X:02 Y:AE P:27 SP:FB CYC:301 SL:142
EC19  A9 37     LDA #$37                        A:00 X:02 Y:AF P:A5 SP:FB CYC:307 SL:142
EC1B  85 47     STA $47 = 00                    A:37 X:02 Y:AF P:25 SP:FB CYC:313 SL:142
EC1D  20 D4 FA  JSR $FAD4                       A:37 X:02 Y:AF P:25 SP:FB CYC:322 SL:142
FAD4  24 01     BIT $01 = FF                    A:37 X:02 Y:AF P:25 SP:F9 CYC:340 SL:142
FAD6  38        SEC                             A:37 X:02 Y:AF P:E5 SP:F9 CYC:  8 SL:143
FAD7  A9 F0     LDA #$F0                        A:37 X:02 Y:AF P:E5 SP:F9 CYC: 14 SL:143
FAD9  60        RTS                             A:F0 X:02 Y:AF P:E5 SP:F9 CYC: 20 SL:143
EC20  E7 47    *ISB $47 = 37                    A:F0 X:02 Y:AF P:E5 SP:FB CYC: 38 SL:143
EC22  EA        NOP                             A:B8 X:02 Y:AF P:A5 SP:FB CYC: 53 SL:143
EC23  EA        NOP                             A:B8 X:02 Y:AF P:A5 SP:FB CYC: 59 SL:143
EC24  EA        NOP                             A:B8 X:02 Y:AF P:A5 SP:FB CYC: 65 SL:143
EC25  EA        NOP                             A:B8 X:02 Y:AF P:A5 SP:FB CYC: 71 SL:143
EC26  20 DA FA  JSR $FADA                       A:B8 X:02 Y:AF P:A5 SP:FB CYC: 77 SL:143
FADA  70 0A     BVS $FAE6                       A:B8 X:02 Y:AF P:A5 SP:F9 CYC: 95 SL:143
FADC  F0 08     BEQ $FAE6                       A:B8 X:02 Y:AF P:A5 SP:F9 CYC:101 SL:143
FADE  10 06     BPL $FAE6                       A:B8 X:02 Y:AF P:A5 SP:F9 CYC:107 SL:143
FAE0  90 04     BCC $FAE6                       A:B8 X:02 Y:AF P:A5 SP:F9 CYC:113 SL:143
FAE2  C9 B8     CMP #$B8                        A:B8 X:02 Y:AF P:A5 SP:F9 CYC:119 SL:143
FAE4  F0 02     BEQ $FAE8                       A:B8 X:02 Y:AF P:27 SP:F9 CYC:125 SL:143
FAE8  60        RTS                             A:B8 X:02 Y:AF P:27 SP:F9 CYC:134 SL:143
EC29  A5 47     LDA $47 = 38                    A:B8 X:02 Y:AF P:27 SP:FB CYC:152 SL:143
EC2B  C9 38     CMP #$38                        A:38 X:02 Y:AF P:25 SP:FB CYC:161 SL:143
EC2D  F0 02     BEQ $EC31                       A:38 X:02 Y:AF P:27 SP:FB CYC:167 SL:143
EC31  C8        INY                             A:38 X:02 Y:AF P:27 SP:FB CYC:176 SL:143
EC32  A9 EB     LDA #$EB                        A:38 X:02 Y:B0 P:A5 SP:FB CYC:182 SL:143
EC34  8D 47 06  STA $0647 = 38                  A:EB X:02 Y:B0 P:A5 SP:FB CYC:188 SL:143
EC37  20 B1 FA  JSR $FAB1                       A:EB X:02 Y:B0 P:A5 SP:FB CYC:200 SL:143
FAB1  24 01     BIT $01 = FF                    A:EB X:02 Y:B0 P:A5 SP:F9 CYC:218 SL:143
FAB3  18        CLC                             A:EB X:02 Y:B0 P:E5 SP:F9 CYC:227 SL:143
FAB4  A9 40     LDA #$40                        A:EB X:02 Y:B0 P:E4 SP:F9 CYC:233 SL:143
FAB6  60        RTS                             A:40 X:02 Y:B0 P:64 SP:F9 CYC:239 SL:143
EC3A  EF 47 06 *ISB $0647 = EB                  A:40 X:02 Y:B0 P:64 SP:FB CYC:257 SL:143
EC3D  EA        NOP                             A:53 X:02 Y:B0 P:24 SP:FB CYC:275 SL:143
EC3E  EA        NOP                             A:53 X:02 Y:B0 P:24 SP:FB CYC:281 SL:143
EC3F  EA        NOP                             A:53 X:02 Y:B0 P:24 SP:FB CYC:287 SL:143
EC40  EA        NOP                             A:53 X:02 Y:B0 P:24 SP:FB CYC:293 SL:143
EC41  20 B7 FA  JSR $FAB7                       A:53 X:02 Y:B0 P:24 SP:FB CYC:299 SL:143
FAB7  70 2D     BVS $FAE6                       A:53 X:02 Y:B0 P:24 SP:F9 CYC:317 SL:143
FAB9  B0 2B     BCS $FAE6                       A:53 X:02 Y:B0 P:24 SP:F9 CYC:323 SL:143
FABB  30 29     BMI $FAE6                       A:53 X:02 Y:B0 P:24 SP:F9 CYC:329 SL:143
FABD  C9 53     CMP #$53                        A:53 X:02 Y:B0 P:24 SP:F9 CYC:335 SL:143
FABF  D0 25     BNE $FAE6                       A:53 X:02 Y:B0 P:27 SP:F9 CYC:  0 SL:144
FAC1  60        RTS                             A:53 X:02 Y:B0 P:27 SP:F9 CYC:  6 SL:144
EC44  AD 47 06  LDA $0647 = EC                  A:53 X:02 Y:B0 P:27 SP:FB CYC: 24 SL:144
EC47  C9 EC     CMP #$EC                        A:EC X:02 Y:B0 P:A5 SP:FB CYC: 36 SL:144
EC49  F0 02     BEQ $EC4D                       A:EC X:02 Y:B0 P:27 SP:FB CYC: 42 SL:144
EC4D  C8        INY                             A:EC X:02 Y:B0 P:27 SP:FB CYC: 51 SL:144
EC4E  A9 FF     LDA #$FF                        A:EC X:02 Y:B1 P:A5 SP:FB CYC: 57 SL:144
EC50  8D 47 06  STA $0647 = EC                  A:FF X:02 Y:B1 P:A5 SP:FB CYC: 63 SL:144
EC53  20 C2 FA  JSR $FAC2                       A:FF X:02 Y:B1 P:A5 SP:FB CYC: 75 SL:144
FAC2  B8        CLV                             A:FF X:02 Y:B1 P:A5 SP:F9 CYC: 93 SL:144
FAC3  38        SEC                             A:FF X:02 Y:B1 P:A5 SP:F9 CYC: 99 SL:144
FAC4  A9 FF     LDA #$FF                        A:FF X:02 Y:B1 P:A5 SP:F9 CYC:105 SL:144
FAC6  60        RTS                             A:FF X:02 Y:B1 P:A5 SP:F9 CYC:111 SL:144
EC56  EF 47 06 *ISB $0647 = FF                  A:FF X:02 Y:B1 P:A5 SP:FB CYC:129 SL:144
EC59  EA        NOP                             A:FF X:02 Y:B1 P:A5 SP:FB CYC:147 SL:144
EC5A  EA        NOP                             A:FF X:02 Y:B1 P:A5 SP:FB CYC:153 SL:144
EC5B  EA        NOP                             A:FF X:02 Y:B1 P:A5 SP:FB CYC:159 SL:144
EC5C  EA        NOP                             A:FF X:02 Y:B1 P:A5 SP:FB CYC:165 SL:144
EC5D  20 C7 FA  JSR $FAC7                       A:FF X:02 Y:B1 P:A5 SP:FB CYC:171 SL:144
FAC7  70 1D     BVS $FAE6                       A:FF X:02 Y:B1 P:A5 SP:F9 CYC:189 SL:144
FAC9  F0 1B     BEQ $FAE6                       A:FF X:02 Y:B1 P:A5 SP:F9 CYC:195 SL:144
FACB  10 19     BPL $FAE6                       A:FF X:02 Y:B1 P:A5 SP:F9 CYC:201 SL:144
FACD  90 17     BCC $FAE6                       A:FF X:02 Y:B1 P:A5 SP:F9 CYC:207 SL:144
FACF  C9 FF     CMP #$FF                        A:FF X:02 Y:B1 P:A5 SP:F9 CYC:213 SL:144
FAD1  D0 13     BNE $FAE6                       A:FF X:02 Y:B1 P:27 SP:F9 CYC:219 SL:144
FAD3  60        RTS                             A:FF X:02 Y:B1 P:27 SP:F9 CYC:225 SL:144
EC60  AD 47 06  LDA $0647 = 00                  A:FF X:02 Y:B1 P:27 SP:FB CYC:243 SL:144
EC63  C9 00     CMP #$00                        A:00 X:02 Y:B1 P:27 SP:FB CYC:255 SL:144
EC65  F0 02     BEQ $EC69                       A:00 X:02 Y:B1 P:27 SP:FB CYC:261 SL:144
EC69  C8        INY                             A:00 X:02 Y:B1 P:27 SP:FB CYC:270 SL:144
EC6A  A9 37     LDA #$37                        A:00 X:02 Y:B2 P:A5 SP:FB CYC:276 SL:144
EC6C  8D 47 06  STA $0647 = 00                  A:37 X:02 Y:B2 P:25 SP:FB CYC:282 SL:144
EC6F  20 D4 FA  JSR $FAD4                       A:37 X:02 Y:B2 P:25 SP:FB CYC:294 SL:144
FAD4  24 01     BIT $01 = FF                    A:37 X:02 Y:B2 P:25 SP:F9 CYC:312 SL:144
FAD6  38        SEC                             A:37 X:02 Y:B2 P:E5 SP:F9 CYC:321 SL:144
FAD7  A9 F0     LDA #$F0                        A:37 X:02 Y:B2 P:E5 SP:F9 CYC:327 SL:144
FAD9  60        RTS                             A:F0 X:02 Y:B2 P:E5 SP:F9 CYC:333 SL:144
EC72  EF 47 06 *ISB $0647 = 37                  A:F0 X:02 Y:B2 P:E5 SP:FB CYC: 10 SL:145
EC75  EA        NOP                             A:B8 X:02 Y:B2 P:A5 SP:FB CYC: 28 SL:145
EC76  EA        NOP                             A:B8 X:02 Y:B2 P:A5 SP:FB CYC: 34 SL:145
EC77  EA        NOP                             A:B8 X:02 Y:B2 P:A5 SP:FB CYC: 40 SL:145
EC78  EA        NOP                             A:B8 X:02 Y:B2 P:A5 SP:FB CYC: 46 SL:145
EC79  20 DA FA  JSR $FADA                       A:B8 X:02 Y:B2 P:A5 SP:FB CYC: 52 SL:145
FADA  70 0A     BVS $FAE6                       A:B8 X:02 Y:B2 P:A5 SP:F9 CYC: 70 SL:145
FADC  F0 08     BEQ $FAE6                       A:B8 X:02 Y:B2 P:A5 SP:F9 CYC: 76 SL:145
FADE  10 06     BPL $FAE6                       A:B8 X:02 Y:B2 P:A5 SP:F9 CYC: 82 SL:145
FAE0  90 04     BCC $FAE6                       A:B8 X:02 Y:B2 P:A5 SP:F9 CYC: 88 SL:145
FAE2  C9 B8     CMP #$B8                        A:B8 X:02 Y:B2 P:A5 SP:F9 CYC: 94 SL:145
FAE4  F0 02     BEQ $FAE8                       A:B8 X:02 Y:B2 P:27 SP:F9 CYC:100 SL:145
FAE8  60        RTS                             A:B8 X:02 Y:B2 P:27 SP:F9 CYC:109 SL:145
EC7C  AD 47 06  LDA $0647 = 38                  A:B8 X:02 Y:B2 P:27 SP:FB CYC:127 SL:145
EC7F  C9 38     CMP #$38                        A:38 X:02 Y:B2 P:25 SP:FB CYC:139 SL:145
EC81  F0 02     BEQ $EC85                       A:38 X:02 Y:B2 P:27 SP:FB CYC:145 SL:145
EC85  A9 EB     LDA #$EB                        A:38 X:02 Y:B2 P:27 SP:FB CYC:154 SL:145
EC87  8D 47 06  STA $0647 = 38                  A:EB X:02 Y:B2 P:A5 SP:FB CYC:160 SL:145
EC8A  A9 48     LDA #$48                        A:EB X:02 Y:B2 P:A5 SP:FB CYC:172 SL:145
EC8C  85 45     STA $45 = 48                    A:48 X:02 Y:B2 P:25 SP:FB CYC:178 SL:145
EC8E  A9 05     LDA #$05                        A:48 X:02 Y:B2 P:25 SP:FB CYC:187 SL:145
EC90  85 46     STA $46 = 05                    A:05 X:02 Y:B2 P:25 SP:FB CYC:193 SL:145
EC92  A0 FF     LDY #$FF                        A:05 X:02 Y:B2 P:25 SP:FB CYC:202 SL:145
EC94  20 B1 FA  JSR $FAB1                       A:05 X:02 Y:FF P:A5 SP:FB CYC:208 SL:145
FAB1  24 01     BIT $01 = FF                    A:05 X:02 Y:FF P:A5 SP:F9 CYC:226 SL:145
FAB3  18        CLC                             A:05 X:02 Y:FF P:E5 SP:F9 CYC:235 SL:145
FAB4  A9 40     LDA #$40                        A:05 X:02 Y:FF P:E4 SP:F9 CYC:241 SL:145
FAB6  60        RTS                             A:40 X:02 Y:FF P:64 SP:F9 CYC:247 SL:145
EC97  F3 45    *ISB ($45),Y = 0548 @ 0647 = EB  A:40 X:02 Y:FF P:64 SP:FB CYC:265 SL:145
EC99  EA        NOP                             A:53 X:02 Y:FF P:24 SP:FB CYC:289 SL:145
EC9A  EA        NOP                             A:53 X:02 Y:FF P:24 SP:FB CYC:295 SL:145
EC9B  08        PHP                             A:53 X:02 Y:FF P:24 SP:FB CYC:301 SL:145
EC9C  48        PHA                             A:53 X:02 Y:FF P:24 SP:FA CYC:310 SL:145
EC9D  A0 B3     LDY #$B3                        A:53 X:02 Y:FF P:24 SP:F9 CYC:319 SL:145
EC9F  68        PLA                             A:53 X:02 Y:B3 P:A4 SP:F9 CYC:325 SL:145
ECA0  28        PLP                             A:53 X:02 Y:B3 P:24 SP:FA CYC:337 SL:145
ECA1  20 B7 FA  JSR $FAB7                       A:53 X:02 Y:B3 P:24 SP:FB CYC:  8 SL:146
FAB7  70 2D     BVS $FAE6                       A:53 X:02 Y:B3 P:24 SP:F9 CYC: 26 SL:146
FAB9  B0 2B     BCS $FAE6                       A:53 X:02 Y:B3 P:24 SP:F9 CYC: 32 SL:146
FABB  30 29     BMI $FAE6                       A:53 X:02 Y:B3 P:24 SP:F9 CYC: 38 SL:146
FABD  C9 53     CMP #$53                        A:53 X:02 Y:B3 P:24 SP:F9 CYC: 44 SL:146
FABF  D0 25     BNE $FAE6                       A:53 X:02 Y:B3 P:27 SP:F9 CYC: 50 SL:146
FAC1  60        RTS                             A:53 X:02 Y:B3 P:27 SP:F9 CYC: 56 SL:146
ECA4  AD 47 06  LDA $0647 = EC                  A:53 X:02 Y:B3 P:27 SP:FB CYC: 74 SL:146
ECA7  C9 EC     CMP #$EC                        A:EC X:02 Y:B3 P:A5 SP:FB CYC: 86 SL:146
ECA9  F0 02     BEQ $ECAD                       A:EC X:02 Y:B3 P:27 SP:FB CYC: 92 SL:146
ECAD  A0 FF     LDY #$FF                        A:EC X:02 Y:B3 P:27 SP:FB CYC:101 SL:146
ECAF  A9 FF     LDA #$FF                        A:EC X:02 Y:FF P:A5 SP:FB CYC:107 SL:146
ECB1  8D 47 06  STA $0647 = EC                  A:FF X:02 Y:FF P:A5 SP:FB CYC:113 SL:146
ECB4  20 C2 FA  JSR $FAC2                       A:FF X:02 Y:FF P:A5 SP:FB CYC:125 SL:146
FAC2  B8        CLV                             A:FF X:02 Y:FF P:A5 SP:F9 CYC:143 SL:146
FAC3  38        SEC                             A:FF X:02 Y:FF P:A5 SP:F9 CYC:149 SL:146
FAC4  A9 FF     LDA #$FF                        A:FF X:02 Y:FF P:A5 SP:F9 CYC:155 SL:146
FAC6  60        RTS                             A:FF X:02 Y:FF P:A5 SP:F9 CYC:161 SL:146
ECB7  F3 45    *ISB ($45),Y = 0548 @ 0647 = FF  A:FF X:02 Y:FF P:A5 SP:FB CYC:179 SL:146
ECB9  EA        NOP                             A:FF X:02 Y:FF P:A5 SP:FB CYC:203 SL:146
ECBA  EA        NOP                             A:FF X:02 Y:FF P:A5 SP:FB CYC:209 SL:146
ECBB  08        PHP                             A:FF X:02 Y:FF P:A5 SP:FB CYC:215 SL:146
ECBC  48        PHA                             A:FF X:02 Y:FF P:A5 SP:FA CYC:224 SL:146
ECBD  A0 B4     LDY #$B4                        A:FF X:02 Y:FF P:A5 SP:F9 CYC:233 SL:146
ECBF  68        PLA                             A:FF X:02 Y:B4 P:A5 SP:F9 CYC:239 SL:146
ECC0  28        PLP                             A:FF X:02 Y:B4 P:A5 SP:FA CYC:251 SL:146
ECC1  20 C7 FA  JSR $FAC7                       A:FF X:02 Y:B4 P:A5 SP:FB CYC:263 SL:146
FAC7  70 1D     BVS $FAE6                       A:FF X:02 Y:B4 P:A5 SP:F9 CYC:281 SL:146
FAC9  F0 1B     BEQ $FAE6                       A:FF X:02 Y:B4 P:A5 SP:F9 CYC:287 SL:146
FACB  10 19     BPL $FAE6                       A:FF X:02 Y:B4 P:A5 SP:F9 CYC:293 SL:146
FACD  90 17     BCC $FAE6                       A:FF X:02 Y:B4 P:A5 SP:F9 CYC:299 SL:146
FACF  C9 FF     CMP #$FF                        A:FF X:02 Y:B4 P:A5 SP:F9 CYC:305 SL:146
FAD1  D0 13     BNE $FAE6                       A:FF X:02 Y:B4 P:27 SP:F9 CYC:311 SL:146
FAD3  60        RTS                             A:FF X:02 Y:B4 P:27 SP:F9 CYC:317 SL:146
ECC4  AD 47 06  LDA $0647 = 00                  A:FF X:02 Y:B4 P:27 SP:FB CYC:335 SL:146
ECC7  C9 00     CMP #$00                        A:00 X:02 Y:B4 P:27 SP:FB CYC:  6 SL:147
ECC9  F0 02     BEQ $ECCD                       A:00 X:02 Y:B4 P:27 SP:FB CYC: 12 SL:147
ECCD  A0 FF     LDY #$FF                        A:00 X:02 Y:B4 P:27 SP:FB CYC: 21 SL:147
ECCF  A9 37     LDA #$37                        A:00 X:02 Y:FF P:A5 SP:FB CYC: 27 SL:147
ECD1  8D 47 06  STA $0647 = 00                  A:37 X:02 Y:FF P:25 SP:FB CYC: 33 SL:147
ECD4  20 D4 FA  JSR $FAD4                       A:37 X:02 Y:FF P:25 SP:FB CYC: 45 SL:147
FAD4  24 01     BIT $01 = FF                    A:37 X:02 Y:FF P:25 SP:F9 CYC: 63 SL:147
FAD6  38        SEC                             A:37 X:02 Y:FF P:E5 SP:F9 CYC: 72 SL:147
FAD7  A9 F0     LDA #$F0                        A:37 X:02 Y:FF P:E5 SP:F9 CYC: 78 SL:147
FAD9  60        RTS                             A:F0 X:02 Y:FF P:E5 SP:F9 CYC: 84 SL:147
ECD7  F3 45    *ISB ($45),Y = 0548 @ 0647 = 37  A:F0 X:02 Y:FF P:E5 SP:FB CYC:102 SL:147
ECD9  EA        NOP                             A:B8 X:02 Y:FF P:A5 SP:FB CYC:126 SL:147
ECDA  EA        NOP                             A:B8 X:02 Y:FF P:A5 SP:FB CYC:132 SL:147
ECDB  08        PHP                             A:B8 X:02 Y:FF P:A5 SP:FB CYC:138 SL:147
ECDC  48        PHA                             A:B8 X:02 Y:FF P:A5 SP:FA CYC:147 SL:147
ECDD  A0 B5     LDY #$B5                        A:B8 X:02 Y:FF P:A5 SP:F9 CYC:156 SL:147
ECDF  68        PLA                             A:B8 X:02 Y:B5 P:A5 SP:F9 CYC:162 SL:147
ECE0  28        PLP                             A:B8 X:02 Y:B5 P:A5 SP:FA CYC:174 SL:147
ECE1  20 DA FA  JSR $FADA                       A:B8 X:02 Y:B5 P:A5 SP:FB CYC:186 SL:147
FADA  70 0A     BVS $FAE6                       A:B8 X:02 Y:B5 P:A5 SP:F9 CYC:204 SL:147
FADC  F0 08     BEQ $FAE6                       A:B8 X:02 Y:B5 P:A5 SP:F9 CYC:210 SL:147
FADE  10 06     BPL $FAE6                       A:B8 X:02 Y:B5 P:A5 SP:F9 CYC:216 SL:147
FAE0  90 04     BCC $FAE6                       A:B8 X:02 Y:B5 P:A5 SP:F9 CYC:222 SL:147
FAE2  C9 B8     CMP #$B8                        A:B8 X:02 Y:B5 P:A5 SP:F9 CYC:228 SL:147
FAE4  F0 02     BEQ $FAE8                       A:B8 X:02 Y:B5 P:27 SP:F9 CYC:234 SL:147
FAE8  60        RTS                             A:B8 X:02 Y:B5 P:27 SP:F9 CYC:243 SL:147
ECE4  AD 47 06  LDA $0647 = 38                  A:B8 X:02 Y:B5 P:27 SP:FB CYC:261 SL:147
ECE7  C9 38     CMP #$38                        A:38 X:02 Y:B5 P:25 SP:FB CYC:273 SL:147
ECE9  F0 02     BEQ $ECED                       A:38 X:02 Y:B5 P:27 SP:FB CYC:279 SL:147
ECED  A0 B6     LDY #$B6                        A:38 X:02 Y:B5 P:27 SP:FB CYC:288 SL:147
ECEF  A2 FF     LDX #$FF                        A:38 X:02 Y:B6 P:A5 SP:FB CYC:294 SL:147
ECF1  A9 EB     LDA #$EB                        A:38 X:FF Y:B6 P:A5 SP:FB CYC:300 SL:147
ECF3  85 47     STA $47 = 38                    A:EB X:FF Y:B6 P:A5 SP:FB CYC:306 SL:147
ECF5  20 B1 FA  JSR $FAB1                       A:EB X:FF Y:B6 P:A5 SP:FB CYC:315 SL:147
FAB1  24 01     BIT $01 = FF                    A:EB X:FF Y:B6 P:A5 SP:F9 CYC:333 SL:147
FAB3  18        CLC                             A:EB X:FF Y:B6 P:E5 SP:F9 CYC:  1 SL:148
FAB4  A9 40     LDA #$40                        A:EB X:FF Y:B6 P:E4 SP:F9 CYC:  7 SL:148
FAB6  60        RTS                             A:40 X:FF Y:B6 P:64 SP:F9 CYC: 13 SL:148
ECF8  F7 48    *ISB $48,X @ 47 = EB             A:40 X:FF Y:B6 P:64 SP:FB CYC: 31 SL:148
ECFA  EA        NOP                             A:53 X:FF Y:B6 P:24 SP:FB CYC: 49 SL:148
ECFB  EA        NOP                             A:53 X:FF Y:B6 P:24 SP:FB CYC: 55 SL:148
ECFC  EA        NOP                             A:53 X:FF Y:B6 P:24 SP:FB CYC: 61 SL:148
ECFD  EA        NOP                             A:53 X:FF Y:B6 P:24 SP:FB CYC: 67 SL:148
ECFE  20 B7 FA  JSR $FAB7                       A:53 X:FF Y:B6 P:24 SP:FB CYC: 73 SL:148
FAB7  70 2D     BVS $FAE6                       A:53 X:FF Y:B6 P:24 SP:F9 CYC: 91 SL:148
FAB9  B0 2B     BCS $FAE6                       A:53 X:FF Y:B6 P:24 SP:F9 CYC: 97 SL:148
FABB  30 29     BMI $FAE6                       A:53 X:FF Y:B6 P:24 SP:F9 CYC:103 SL:148
FABD  C9 53     CMP #$53                        A:53 X:FF Y:B6 P:24 SP:F9 CYC:109 SL:148
FABF  D0 25     BNE $FAE6                       A:53 X:FF Y:B6 P:27 SP:F9 CYC:115 SL:148
FAC1  60        RTS                             A:53 X:FF Y:B6 P:27 SP:F9 CYC:121 SL:148
ED01  A5 47     LDA $47 = EC                    A:53 X:FF Y:B6 P:27 SP:FB CYC:139 SL:148
ED03  C9 EC     CMP #$EC                        A:EC X:FF Y:B6 P:A5 SP:FB CYC:148 SL:148
ED05  F0 02     BEQ $ED09                       A:EC X:FF Y:B6 P:27 SP:FB CYC:154 SL:148
ED09  C8        INY                             A:EC X:FF Y:B6 P:27 SP:FB CYC:163 SL:148
ED0A  A9 FF     LDA #$FF                        A:EC X:FF Y:B7 P:A5 SP:FB CYC:169 SL:148
ED0C  85 47     STA $47 = EC                    A:FF X:FF Y:B7 P:A5 SP:FB CYC:175 SL:148
ED0E  20 C2 FA  JSR $FAC2                       A:FF X:FF Y:B7 P:A5 SP:FB CYC:184 SL:148
FAC2  B8        CLV                             A:FF X:FF Y:B7 P:A5 SP:F9 CYC:202 SL:148
FAC3  38        SEC                             A:FF X:FF Y:B7 P:A5 SP:F9 CYC:208 SL:148
FAC4  A9 FF     LDA #$FF                        A:FF X:FF Y:B7 P:A5 SP:F9 CYC:214 SL:148
FAC6  60        RTS                             A:FF X:FF Y:B7 P:A5 SP:F9 CYC:220 SL:148
ED11  F7 48    *ISB $48,X @ 47 = FF             A:FF X:FF Y:B7 P:A5 SP:FB CYC:238 SL:148
ED13  EA        NOP                             A:FF X:FF Y:B7 P:A5 SP:FB CYC:256 SL:148
ED14  EA        NOP                             A:FF X:FF Y:B7 P:A5 SP:FB CYC:262 SL:148
ED15  EA        NOP                             A:FF X:FF Y:B7 P:A5 SP:FB CYC:268 SL:148
ED16  EA        NOP                             A:FF X:FF Y:B7 P:A5 SP:FB CYC:274 SL:148
ED17  20 C7 FA  JSR $FAC7                       A:FF X:FF Y:B7 P:A5 SP:FB CYC:280 SL:148
FAC7  70 1D     BVS $FAE6                       A:FF X:FF Y:B7 P:A5 SP:F9 CYC:298 SL:148
FAC9  F0 1B     BEQ $FAE6                       A:FF X:FF Y:B7 P:A5 SP:F9 CYC:304 SL:148
FACB  10 19     BPL $FAE6                       A:FF X:FF Y:B7 P:A5 SP:F9 CYC:310 SL:148
FACD  90 17     BCC $FAE6                       A:FF X:FF Y:B7 P:A5 SP:F9 CYC:316 SL:148
FACF  C9 FF     CMP #$FF                        A:FF X:FF Y:B7 P:A5 SP:F9 CYC:322 SL:148
FAD1  D0 13     BNE $FAE6                       A:FF X:FF Y:B7 P:27 SP:F9 CYC:328 SL:148
FAD3  60        RTS                             A:FF X:FF Y:B7 P:27 SP:F9 CYC:334 SL:148
ED1A  A5 47     LDA $47 = 00                    A:FF X:FF Y:B7 P:27 SP:FB CYC: 11 SL:149
ED1C  C9 00     CMP #$00                        A:00 X:FF Y:B7 P:27 SP:FB CYC: 20 SL:149
ED1E  F0 02     BEQ $ED22                       A:00 X:FF Y:B7 P:27 SP:FB CYC: 26 SL:149
ED22  C8        INY                             A:00 X:FF Y:B7 P:27 SP:FB CYC: 35 SL:149
ED23  A9 37     LDA #$37                        A:00 X:FF Y:B8 P:A5 SP:FB CYC: 41 SL:149
ED25  85 47     STA $47 = 00                    A:37 X:FF Y:B8 P:25 SP:FB CYC: 47 SL:149
ED27  20 D4 FA  JSR $FAD4                       A:37 X:FF Y:B8 P:25 SP:FB CYC: 56 SL:149
FAD4  24 01     BIT $01 = FF                    A:37 X:FF Y:B8 P:25 SP:F9 CYC: 74 SL:149
FAD6  38        SEC                             A:37 X:FF Y:B8 P:E5 SP:F9 CYC: 83 SL:149
FAD7  A9 F0     LDA #$F0                        A:37 X:FF Y:B8 P:E5 SP:F9 CYC: 89 SL:149
FAD9  60        RTS                             A:F0 X:FF Y:B8 P:E5 SP:F9 CYC: 95 SL:149
ED2A  F7 48    *ISB $48,X @ 47 = 37             A:F0 X:FF Y:B8 P:E5 SP:FB CYC:113 SL:149
ED2C  EA        NOP                             A:B8 X:FF Y:B8 P:A5 SP:FB CYC:131 SL:149
ED2D  EA        NOP                             A:B8 X:FF Y:B8 P:A5 SP:FB CYC:137 SL:149
ED2E  EA        NOP                             A:B8 X:FF Y:B8 P:A5 SP:FB CYC:143 SL:149
ED2F  EA        NOP                             A:B8 X:FF Y:B8 P:A5 SP:FB CYC:149 SL:149
ED30  20 DA FA  JSR $FADA                       A:B8 X:FF Y:B8 P:A5 SP:FB CYC:155 SL:149
FADA  70 0A     BVS $FAE6                       A:B8 X:FF Y:B8 P:A5 SP:F9 CYC:173 SL:149
FADC  F0 08     BEQ $FAE6                       A:B8 X:FF Y:B8 P:A5 SP:F9 CYC:179 SL:149
FADE  10 06     BPL $FAE6                       A:B8 X:FF Y:B8 P:A5 SP:F9 CYC:185 SL:149
FAE0  90 04     BCC $FAE6                       A:B8 X:FF Y:B8 P:A5 SP:F9 CYC:191 SL:149
FAE2  C9 B8     CMP #$B8                        A:B8 X:FF Y:B8 P:A5 SP:F9 CYC:197 SL:149
FAE4  F0 02     BEQ $FAE8                       A:B8 X:FF Y:B8 P:27 SP:F9 CYC:203 SL:149
FAE8  60        RTS                             A:B8 X:FF Y:B8 P:27 SP:F9 CYC:212 SL:149
ED33  A5 47     LDA $47 = 38                    A:B8 X:FF Y:B8 P:27 SP:FB CYC:230 SL:149
ED35  C9 38     CMP #$38                        A:38 X:FF Y:B8 P:25 SP:FB CYC:239 SL:149
ED37  F0 02     BEQ $ED3B                       A:38 X:FF Y:B8 P:27 SP:FB CYC:245 SL:149
ED3B  A9 EB     LDA #$EB                        A:38 X:FF Y:B8 P:27 SP:FB CYC:254 SL:149
ED3D  8D 47 06  STA $0647 = 38                  A:EB X:FF Y:B8 P:A5 SP:FB CYC:260 SL:149
ED40  A0 FF     LDY #$FF                        A:EB X:FF Y:B8 P:A5 SP:FB CYC:272 SL:149
ED42  20 B1 FA  JSR $FAB1                       A:EB X:FF Y:FF P:A5 SP:FB CYC:278 SL:149
FAB1  24 01     BIT $01 = FF                    A:EB X:FF Y:FF P:A5 SP:F9 CYC:296 SL:149
FAB3  18        CLC                             A:EB X:FF Y:FF P:E5 SP:F9 CYC:305 SL:149
FAB4  A9 40     LDA #$40                        A:EB X:FF Y:FF P:E4 SP:F9 CYC:311 SL:149
FAB6  60        RTS                             A:40 X:FF Y:FF P:64 SP:F9 CYC:317 SL:149
ED45  FB 48 05 *ISB $0548,Y @ 0647 = EB         A:40 X:FF Y:FF P:64 SP:FB CYC:335 SL:149
ED48  EA        NOP                             A:53 X:FF Y:FF P:24 SP:FB CYC: 15 SL:150
ED49  EA        NOP                             A:53 X:FF Y:FF P:24 SP:FB CYC: 21 SL:150
ED4A  08        PHP                             A:53 X:FF Y:FF P:24 SP:FB CYC: 27 SL:150
ED4B  48        PHA                             A:53 X:FF Y:FF P:24 SP:FA CYC: 36 SL:150
ED4C  A0 B9     LDY #$B9                        A:53 X:FF Y:FF P:24 SP:F9 CYC: 45 SL:150
ED4E  68        PLA                             A:53 X:FF Y:B9 P:A4 SP:F9 CYC: 51 SL:150
ED4F  28        PLP                             A:53 X:FF Y:B9 P:24 SP:FA CYC: 63 SL:150
ED50  20 B7 FA  JSR $FAB7                       A:53 X:FF Y:B9 P:24 SP:FB CYC: 75 SL:150
FAB7  70 2D     BVS $FAE6                       A:53 X:FF Y:B9 P:24 SP:F9 CYC: 93 SL:150
FAB9  B0 2B     BCS $FAE6                       A:53 X:FF Y:B9 P:24 SP:F9 CYC: 99 SL:150
FABB  30 29     BMI $FAE6                       A:53 X:FF Y:B9 P:24 SP:F9 CYC:105 SL:150
FABD  C9 53     CMP #$53                        A:53 X:FF Y:B9 P:24 SP:F9 CYC:111 SL:150
FABF  D0 25     BNE $FAE6                       A:53 X:FF Y:B9 P:27 SP:F9 CYC:117 SL:150
FAC1  60        RTS                             A:53 X:FF Y:B9 P:27 SP:F9 CYC:123 SL:150
ED53  AD 47 06  LDA $0647 = EC                  A:53 X:FF Y:B9 P:27 SP:FB CYC:141 SL:150
ED56  C9 EC     CMP #$EC                        A:EC X:FF Y:B9 P:A5 SP:FB CYC:153 SL:150
ED58  F0 02     BEQ $ED5C                       A:EC X:FF Y:B9 P:27 SP:FB CYC:159 SL:150
ED5C  A0 FF     LDY #$FF                        A:EC X:FF Y:B9 P:27 SP:FB CYC:168 SL:150
ED5E  A9 FF     LDA #$FF                        A:EC X:FF Y:FF P:A5 SP:FB CYC:174 SL:150
ED60  8D 47 06  STA $0647 = EC                  A:FF X:FF Y:FF P:A5 SP:FB CYC:180 SL:150
ED63  20 C2 FA  JSR $FAC2                       A:FF X:FF Y:FF P:A5 SP:FB CYC:192 SL:150
FAC2  B8        CLV                             A:FF X:FF Y:FF P:A5 SP:F9 CYC:210 SL:150
FAC3  38        SEC                             A:FF X:FF Y:FF P:A5 SP:F9 CYC:216 SL:150
FAC4  A9 FF     LDA #$FF                        A:FF X:FF Y:FF P:A5 SP:F9 CYC:222 SL:150
FAC6  60        RTS                             A:FF X:FF Y:FF P:A5 SP:F9 CYC:228 SL:150
ED66  FB 48 05 *ISB $0548,Y @ 0647 = FF         A:FF X:FF Y:FF P:A5 SP:FB CYC:246 SL:150
ED69  EA        NOP                             A:FF X:FF Y:FF P:A5 SP:FB CYC:267 SL:150
ED6A  EA        NOP                             A:FF X:FF Y:FF P:A5 SP:FB CYC:273 SL:150
ED6B  08        PHP                             A:FF X:FF Y:FF P:A5 SP:FB CYC:279 SL:150
ED6C  48        PHA                             A:FF X:FF Y:FF P:A5 SP:FA CYC:288 SL:150
ED6D  A0 BA     LDY #$BA                        A:FF X:FF Y:FF P:A5 SP:F9 CYC:297 SL:150
ED6F  68        PLA                             A:FF X:FF Y:BA P:A5 SP:F9 CYC:303 SL:150
ED70  28        PLP                             A:FF X:FF Y:BA P:A5 SP:FA CYC:315 SL:150
ED71  20 C7 FA  JSR $FAC7                       A:FF X:FF Y:BA P:A5 SP:FB CYC:327 SL:150
FAC7  70 1D     BVS $FAE6                       A:FF X:FF Y:BA P:A5 SP:F9 CYC:  4 SL:151
FAC9  F0 1B     BEQ $FAE6                       A:FF X:FF Y:BA P:A5 SP:F9 CYC: 10 SL:151
FACB  10 19     BPL $FAE6                       A:FF X:FF Y:BA P:A5 SP:F9 CYC: 16 SL:151
FACD  90 17     BCC $FAE6                       A:FF X:FF Y:BA P:A5 SP:F9 CYC: 22 SL:151
FACF  C9 FF     CMP #$FF                        A:FF X:FF Y:BA P:A5 SP:F9 CYC: 28 SL:151
FAD1  D0 13     BNE $FAE6                       A:FF X:FF Y:BA P:27 SP:F9 CYC: 34 SL:151
FAD3  60        RTS                             A:FF X:FF Y:BA P:27 SP:F9 CYC: 40 SL:151
ED74  AD 47 06  LDA $0647 = 00                  A:FF X:FF Y:BA P:27 SP:FB CYC: 58 SL:151
ED77  C9 00     CMP #$00                        A:00 X:FF Y:BA P:27 SP:FB CYC: 70 SL:151
ED79  F0 02     BEQ $ED7D                       A:00 X:FF Y:BA P:27 SP:FB CYC: 76 SL:151
ED7D  A0 FF     LDY #$FF                        A:00 X:FF Y:BA P:27 SP:FB CYC: 85 SL:151
ED7F  A9 37     LDA #$37                        A:00 X:FF Y:FF P:A5 SP:FB CYC: 91 SL:151
ED81  8D 47 06  STA $0647 = 00                  A:37 X:FF Y:FF P:25 SP:FB CYC: 97 SL:151
ED84  20 D4 FA  JSR $FAD4                       A:37 X:FF Y:FF P:25 SP:FB CYC:109 SL:151
FAD4  24 01     BIT $01 = FF                    A:37 X:FF Y:FF P:25 SP:F9 CYC:127 SL:151
FAD6  38        SEC                             A:37 X:FF Y:FF P:E5 SP:F9 CYC:136 SL:151
FAD7  A9 F0     LDA #$F0                        A:37 X:FF Y:FF P:E5 SP:F9 CYC:142 SL:151
FAD9  60        RTS                             A:F0 X:FF Y:FF P:E5 SP:F9 CYC:148 SL:151
ED87  FB 48 05 *ISB $0548,Y @ 0647 = 37         A:F0 X:FF Y:FF P:E5 SP:FB CYC:166 SL:151
ED8A  EA        NOP                             A:B8 X:FF Y:FF P:A5 SP:FB CYC:187 SL:151
ED8B  EA        NOP                             A:B8 X:FF Y:FF P:A5 SP:FB CYC:193 SL:151
ED8C  08        PHP                             A:B8 X:FF Y:FF P:A5 SP:FB CYC:199 SL:151
ED8D  48        PHA                             A:B8 X:FF Y:FF P:A5 SP:FA CYC:208 SL:151
ED8E  A0 BB     LDY #$BB                        A:B8 X:FF Y:FF P:A5 SP:F9 CYC:217 SL:151
ED90  68        PLA                             A:B8 X:FF Y:BB P:A5 SP:F9 CYC:223 SL:151
ED91  28        PLP                             A:B8 X:FF Y:BB P:A5 SP:FA CYC:235 SL:151
ED92  20 DA FA  JSR $FADA                       A:B8 X:FF Y:BB P:A5 SP:FB CYC:247 SL:151
FADA  70 0A     BVS $FAE6                       A:B8 X:FF Y:BB P:A5 SP:F9 CYC:265 SL:151
FADC  F0 08     BEQ $FAE6                       A:B8 X:FF Y:BB P:A5 SP:F9 CYC:271 SL:151
FADE  10 06     BPL $FAE6                       A:B8 X:FF Y:BB P:A5 SP:F9 CYC:277 SL:151
FAE0  90 04     BCC $FAE6                       A:B8 X:FF Y:BB P:A5 SP:F9 CYC:283 SL:151
FAE2  C9 B8     CMP #$B8                        A:B8 X:FF Y:BB P:A5 SP:F9 CYC:289 SL:151
FAE4  F0 02     BEQ $FAE8                       A:B8 X:FF Y:BB P:27 SP:F9 CYC:295 SL:151
FAE8  60        RTS                             A:B8 X:FF Y:BB P:27 SP:F9 CYC:304 SL:151
ED95  AD 47 06  LDA $0647 = 38                  A:B8 X:FF Y:BB P:27 SP:FB CYC:322 SL:151
ED98  C9 38     CMP #$38                        A:38 X:FF Y:BB P:25 SP:FB CYC:334 SL:151
ED9A  F0 02     BEQ $ED9E                       A:38 X:FF Y:BB P:27 SP:FB CYC:340 SL:151
ED9E  A0 BC     LDY #$BC                        A:38 X:FF Y:BB P:27 SP:FB CYC:  8 SL:152
EDA0  A2 FF     LDX #$FF                        A:38 X:FF Y:BC P:A5 SP:FB CYC: 14 SL:152
EDA2  A9 EB     LDA #$EB                        A:38 X:FF Y:BC P:A5 SP:FB CYC: 20 SL:152
EDA4  8D 47 06  STA $0647 = 38                  A:EB X:FF Y:BC P:A5 SP:FB CYC: 26 SL:152
EDA7  20 B1 FA  JSR $FAB1                       A:EB X:FF Y:BC P:A5 SP:FB CYC: 38 SL:152
FAB1  24 01     BIT $01 = FF                    A:EB X:FF Y:BC P:A5 SP:F9 CYC: 56 SL:152
FAB3  18        CLC                             A:EB X:FF Y:BC P:E5 SP:F9 CYC: 65 SL:152
FAB4  A9 40     LDA #$40                        A:EB X:FF Y:BC P:E4 SP:F9 CYC: 71 SL:152
FAB6  60        RTS                             A:40 X:FF Y:BC P:64 SP:F9 CYC: 77 SL:152
EDAA  FF 48 05 *ISB $0548,X @ 0647 = EB         A:40 X:FF Y:BC P:64 SP:FB CYC: 95 SL:152
EDAD  EA        NOP                             A:53 X:FF Y:BC P:24 SP:FB CYC:116 SL:152
EDAE  EA        NOP                             A:53 X:FF Y:BC P:24 SP:FB CYC:122 SL:152
EDAF  EA        NOP                             A:53 X:FF Y:BC P:24 SP:FB CYC:128 SL:152
EDB0  EA        NOP                             A:53 X:FF Y:BC P:24 SP:FB CYC:134 SL:152
EDB1  20 B7 FA  JSR $FAB7                       A:53 X:FF Y:BC P:24 SP:FB CYC:140 SL:152
FAB7  70 2D     BVS $FAE6                       A:53 X:FF Y:BC P:24 SP:F9 CYC:158 SL:152
FAB9  B0 2B     BCS $FAE6                       A:53 X:FF Y:BC P:24 SP:F9 CYC:164 SL:152
FABB  30 29     BMI $FAE6                       A:53 X:FF Y:BC P:24 SP:F9 CYC:170 SL:152
FABD  C9 53     CMP #$53                        A:53 X:FF Y:BC P:24 SP:F9 CYC:176 SL:152
FABF  D0 25     BNE $FAE6                       A:53 X:FF Y:BC P:27 SP:F9 CYC:182 SL:152
FAC1  60        RTS                             A:53 X:FF Y:BC P:27 SP:F9 CYC:188 SL:152
EDB4  AD 47 06  LDA $0647 = EC                  A:53 X:FF Y:BC P:27 SP:FB CYC:206 SL:152
EDB7  C9 EC     CMP #$EC                        A:EC X:FF Y:BC P:A5 SP:FB CYC:218 SL:152
EDB9  F0 02     BEQ $EDBD                       A:EC X:FF Y:BC P:27 SP:FB CYC:224 SL:152
EDBD  C8        INY                             A:EC X:FF Y:BC P:27 SP:FB CYC:233 SL:152
EDBE  A9 FF     LDA #$FF                        A:EC X:FF Y:BD P:A5 SP:FB CYC:239 SL:152
EDC0  8D 47 06  STA $0647 = EC                  A:FF X:FF Y:BD P:A5 SP:FB CYC:245 SL:152
EDC3  20 C2 FA  JSR $FAC2                       A:FF X:FF Y:BD P:A5 SP:FB CYC:257 SL:152
FAC2  B8        CLV                             A:FF X:FF Y:BD P:A5 SP:F9 CYC:275 SL:152
FAC3  38        SEC                             A:FF X:FF Y:BD P:A5 SP:F9 CYC:281 SL:152
FAC4  A9 FF     LDA #$FF                        A:FF X:FF Y:BD P:A5 SP:F9 CYC:287 SL:152
FAC6  60        RTS                             A:FF X:FF Y:BD P:A5 SP:F9 CYC:293 SL:152
EDC6  FF 48 05 *ISB $0548,X @ 0647 = FF         A:FF X:FF Y:BD P:A5 SP:FB CYC:311 SL:152
EDC9  EA        NOP                             A:FF X:FF Y:BD P:A5 SP:FB CYC:332 SL:152
EDCA  EA        NOP                             A:FF X:FF Y:BD P:A5 SP:FB CYC:338 SL:152
EDCB  EA        NOP                             A:FF X:FF Y:BD P:A5 SP:FB CYC:  3 SL:153
EDCC  EA        NOP                             A:FF X:FF Y:BD P:A5 SP:FB CYC:  9 SL:153
EDCD  20 C7 FA  JSR $FAC7                       A:FF X:FF Y:BD P:A5 SP:FB CYC: 15 SL:153
FAC7  70 1D     BVS $FAE6                       A:FF X:FF Y:BD P:A5 SP:F9 CYC: 33 SL:153
FAC9  F0 1B     BEQ $FAE6                       A:FF X:FF Y:BD P:A5 SP:F9 CYC: 39 SL:153
FACB  10 19     BPL $FAE6                       A:FF X:FF Y:BD P:A5 SP:F9 CYC: 45 SL:153
FACD  90 17     BCC $FAE6                       A:FF X:FF Y:BD P:A5 SP:F9 CYC: 51 SL:153
FACF  C9 FF     CMP #$FF                        A:FF X:FF Y:BD P:A5 SP:F9 CYC: 57 SL:153
FAD1  D0 13     BNE $FAE6                       A:FF X:FF Y:BD P:27 SP:F9 CYC: 63 SL:153
FAD3  60        RTS                             A:FF X:FF Y:BD P:27 SP:F9 CYC: 69 SL:153
EDD0  AD 47 06  LDA $0647 = 00                  A:FF X:FF Y:BD P:27 SP:FB CYC: 87 SL:153
EDD3  C9 00     CMP #$00                        A:00 X:FF Y:BD P:27 SP:FB CYC: 99 SL:153
EDD5  F0 02     BEQ $EDD9                       A:00 X:FF Y:BD P:27 SP:FB CYC:105 SL:153
EDD9  C8        INY                             A:00 X:FF Y:BD P:27 SP:FB CYC:114 SL:153
EDDA  A9 37     LDA #$37                        A:00 X:FF Y:BE P:A5 SP:FB CYC:120 SL:153
EDDC  8D 47 06  STA $0647 = 00                  A:37 X:FF Y:BE P:25 SP:FB CYC:126 SL:153
EDDF  20 D4 FA  JSR $FAD4                       A:37 X:FF Y:BE P:25 SP:FB CYC:138 SL:153
FAD4  24 01     BIT $01 = FF                    A:37 X:FF Y:BE P:25 SP:F9 CYC:156 SL:153
FAD6  38        SEC                             A:37 X:FF Y:BE P:E5 SP:F9 CYC:165 SL:153
FAD7  A9 F0     LDA #$F0                        A:37 X:FF Y:BE P:E5 SP:F9 CYC:171 SL:153
FAD9  60        RTS                             A:F0 X:FF Y:BE P:E5 SP:F9 CYC:177 SL:153
EDE2  FF 48 05 *ISB $0548,X @ 0647 = 37         A:F0 X:FF Y:BE P:E5 SP:FB CYC:195 SL:153
EDE5  EA        NOP                             A:B8 X:FF Y:BE P:A5 SP:FB CYC:216 SL:153
EDE6  EA        NOP                             A:B8 X:FF Y:BE P:A5 SP:FB CYC:222 SL:153
EDE7  EA        NOP                             A:B8 X:FF Y:BE P:A5 SP:FB CYC:228 SL:153
EDE8  EA        NOP                             A:B8 X:FF Y:BE P:A5 SP:FB CYC:234 SL:153
EDE9  20 DA FA  JSR $FADA                       A:B8 X:FF Y:BE P:A5 SP:FB CYC:240 SL:153
FADA  70 0A     BVS $FAE6                       A:B8 X:FF Y:BE P:A5 SP:F9 CYC:258 SL:153
FADC  F0 08     BEQ $FAE6                       A:B8 X:FF Y:BE P:A5 SP:F9 CYC:264 SL:153
FADE  10 06     BPL $FAE6                       A:B8 X:FF Y:BE P:A5 SP:F9 CYC:270 SL:153
FAE0  90 04     BCC $FAE6                       A:B8 X:FF Y:BE P:A5 SP:F9 CYC:276 SL:153
FAE2  C9 B8     CMP #$B8                        A:B8 X:FF Y:BE P:A5 SP:F9 CYC:282 SL:153
FAE4  F0 02     BEQ $FAE8                       A:B8 X:FF Y:BE P:27 SP:F9 CYC:288 SL:153
FAE8  60        RTS                             A:B8 X:FF Y:BE P:27 SP:F9 CYC:297 SL:153
EDEC  AD 47 06  LDA $0647 = 38                  A:B8 X:FF Y:BE P:27 SP:FB CYC:315 SL:153
EDEF  C9 38     CMP #$38                        A:38 X:FF Y:BE P:25 SP:FB CYC:327 SL:153
EDF1  F0 02     BEQ $EDF5                       A:38 X:FF Y:BE P:27 SP:FB CYC:333 SL:153
EDF5  60        RTS                             A:38 X:FF Y:BE P:27 SP:FB CYC:  1 SL:154
C641  20 F6 ED  JSR $EDF6                       A:38 X:FF Y:BE P:27 SP:FD CYC: 19 SL:154
EDF6  A9 FF     LDA #$FF                        A:38 X:FF Y:BE P:27 SP:FB CYC: 37 SL:154
EDF8  85 01     STA $01 = FF                    A:FF X:FF Y:BE P:A5 SP:FB CYC: 43 SL:154
EDFA  A0 BF     LDY #$BF                        A:FF X:FF Y:BE P:A5 SP:FB CYC: 52 SL:154
EDFC  A2 02     LDX #$02                        A:FF X:FF Y:BF P:A5 SP:FB CYC: 58 SL:154
EDFE  A9 47     LDA #$47                        A:FF X:02 Y:BF P:25 SP:FB CYC: 64 SL:154
EE00  85 47     STA $47 = 38                    A:47 X:02 Y:BF P:25 SP:FB CYC: 70 SL:154
EE02  A9 06     LDA #$06                        A:47 X:02 Y:BF P:25 SP:FB CYC: 79 SL:154
EE04  85 48     STA $48 = 06                    A:06 X:02 Y:BF P:25 SP:FB CYC: 85 SL:154
EE06  A9 A5     LDA #$A5                        A:06 X:02 Y:BF P:25 SP:FB CYC: 94 SL:154
EE08  8D 47 06  STA $0647 = 38                  A:A5 X:02 Y:BF P:A5 SP:FB CYC:100 SL:154
EE0B  20 7B FA  JSR $FA7B                       A:A5 X:02 Y:BF P:A5 SP:FB CYC:112 SL:154
FA7B  24 01     BIT $01 = FF                    A:A5 X:02 Y:BF P:A5 SP:F9 CYC:130 SL:154
FA7D  18        CLC                             A:A5 X:02 Y:BF P:E5 SP:F9 CYC:139 SL:154
FA7E  A9 B3     LDA #$B3                        A:A5 X:02 Y:BF P:E4 SP:F9 CYC:145 SL:154
FA80  60        RTS                             A:B3 X:02 Y:BF P:E4 SP:F9 CYC:151 SL:154
EE0E  03 45    *SLO ($45,X) @ 47 = 0647 = A5    A:B3 X:02 Y:BF P:E4 SP:FB CYC:169 SL:154
EE10  EA        NOP                             A:FB X:02 Y:BF P:E5 SP:FB CYC:193 SL:154
EE11  EA        NOP                             A:FB X:02 Y:BF P:E5 SP:FB CYC:199 SL:154
EE12  EA        NOP                             A:FB X:02 Y:BF P:E5 SP:FB CYC:205 SL:154
EE13  EA        NOP                             A:FB X:02 Y:BF P:E5 SP:FB CYC:211 SL:154
EE14  20 81 FA  JSR $FA81                       A:FB X:02 Y:BF P:E5 SP:FB CYC:217 SL:154
FA81  50 63     BVC $FAE6                       A:FB X:02 Y:BF P:E5 SP:F9 CYC:235 SL:154
FA83  90 61     BCC $FAE6                       A:FB X:02 Y:BF P:E5 SP:F9 CYC:241 SL:154
FA85  10 5F     BPL $FAE6                       A:FB X:02 Y:BF P:E5 SP:F9 CYC:247 SL:154
FA87  C9 FB     CMP #$FB                        A:FB X:02 Y:BF P:E5 SP:F9 CYC:253 SL:154
FA89  D0 5B     BNE $FAE6                       A:FB X:02 Y:BF P:67 SP:F9 CYC:259 SL:154
FA8B  60        RTS                             A:FB X:02 Y:BF P:67 SP:F9 CYC:265 SL:154
EE17  AD 47 06  LDA $0647 = 4A                  A:FB X:02 Y:BF P:67 SP:FB CYC:283 SL:154
EE1A  C9 4A     CMP #$4A                        A:4A X:02 Y:BF P:65 SP:FB CYC:295 SL:154
EE1C  F0 02     BEQ $EE20                       A:4A X:02 Y:BF P:67 SP:FB CYC:301 SL:154
EE20  C8        INY                             A:4A X:02 Y:BF P:67 SP:FB CYC:310 SL:154
EE21  A9 29     LDA #$29                        A:4A X:02 Y:C0 P:E5 SP:FB CYC:316 SL:154
EE23  8D 47 06  STA $0647 = 4A                  A:29 X:02 Y:C0 P:65 SP:FB CYC:322 SL:154
EE26  20 8C FA  JSR $FA8C                       A:29 X:02 Y:C0 P:65 SP:FB CYC:334 SL:154
FA8C  B8        CLV                             A:29 X:02 Y:C0 P:65 SP:F9 CYC: 11 SL:155
FA8D  18        CLC                             A:29 X:02 Y:C0 P:25 SP:F9 CYC: 17 SL:155
FA8E  A9 C3     LDA #$C3                        A:29 X:02 Y:C0 P:24 SP:F9 CYC: 23 SL:155
FA90  60        RTS                             A:C3 X:02 Y:C0 P:A4 SP:F9 CYC: 29 SL:155
EE29  03 45    *SLO ($45,X) @ 47 = 0647 = 29    A:C3 X:02 Y:C0 P:A4 SP:FB CYC: 47 SL:155
EE2B  EA        NOP                             A:D3 X:02 Y:C0 P:A4 SP:FB CYC: 71 SL:155
EE2C  EA        NOP                             A:D3 X:02 Y:C0 P:A4 SP:FB CYC: 77 SL:155
EE2D  EA        NOP                             A:D3 X:02 Y:C0 P:A4 SP:FB CYC: 83 SL:155
EE2E  EA        NOP                             A:D3 X:02 Y:C0 P:A4 SP:FB CYC: 89 SL:155
EE2F  20 91 FA  JSR $FA91                       A:D3 X:02 Y:C0 P:A4 SP:FB CYC: 95 SL:155
FA91  70 53     BVS $FAE6                       A:D3 X:02 Y:C0 P:A4 SP:F9 CYC:113 SL:155
FA93  F0 51     BEQ $FAE6                       A:D3 X:02 Y:C0 P:A4 SP:F9 CYC:119 SL:155
FA95  10 4F     BPL $FAE6                       A:D3 X:02 Y:C0 P:A4 SP:F9 CYC:125 SL:155
FA97  B0 4D     BCS $FAE6                       A:D3 X:02 Y:C0 P:A4 SP:F9 CYC:131 SL:155
FA99  C9 D3     CMP #$D3                        A:D3 X:02 Y:C0 P:A4 SP:F9 CYC:137 SL:155
FA9B  D0 49     BNE $FAE6                       A:D3 X:02 Y:C0 P:27 SP:F9 CYC:143 SL:155
FA9D  60        RTS                             A:D3 X:02 Y:C0 P:27 SP:F9 CYC:149 SL:155
EE32  AD 47 06  LDA $0647 = 52                  A:D3 X:02 Y:C0 P:27 SP:FB CYC:167 SL:155
EE35  C9 52     CMP #$52                        A:52 X:02 Y:C0 P:25 SP:FB CYC:179 SL:155
EE37  F0 02     BEQ $EE3B                       A:52 X:02 Y:C0 P:27 SP:FB CYC:185 SL:155
EE3B  C8        INY                             A:52 X:02 Y:C0 P:27 SP:FB CYC:194 SL:155
EE3C  A9 37     LDA #$37                        A:52 X:02 Y:C1 P:A5 SP:FB CYC:200 SL:155
EE3E  8D 47 06  STA $0647 = 52                  A:37 X:02 Y:C1 P:25 SP:FB CYC:206 SL:155
EE41  20 9E FA  JSR $FA9E                       A:37 X:02 Y:C1 P:25 SP:FB CYC:218 SL:155
FA9E  24 01     BIT $01 = FF                    A:37 X:02 Y:C1 P:25 SP:F9 CYC:236 SL:155
FAA0  38        SEC                             A:37 X:02 Y:C1 P:E5 SP:F9 CYC:245 SL:155
FAA1  A9 10     LDA #$10                        A:37 X:02 Y:C1 P:E5 SP:F9 CYC:251 SL:155
FAA3  60        RTS                             A:10 X:02 Y:C1 P:65 SP:F9 CYC:257 SL:155
EE44  03 45    *SLO ($45,X) @ 47 = 0647 = 37    A:10 X:02 Y:C1 P:65 SP:FB CYC:275 SL:155
EE46  EA        NOP                             A:7E X:02 Y:C1 P:64 SP:FB CYC:299 SL:155
EE47  EA        NOP                             A:7E X:02 Y:C1 P:64 SP:FB CYC:305 SL:155
EE48  EA        NOP                             A:7E X:02 Y:C1 P:64 SP:FB CYC:311 SL:155
EE49  EA        NOP                             A:7E X:02 Y:C1 P:64 SP:FB CYC:317 SL:155
EE4A  20 A4 FA  JSR $FAA4                       A:7E X:02 Y:C1 P:64 SP:FB CYC:323 SL:155
FAA4  50 40     BVC $FAE6                       A:7E X:02 Y:C1 P:64 SP:F9 CYC:  0 SL:156
FAA6  F0 3E     BEQ $FAE6                       A:7E X:02 Y:C1 P:64 SP:F9 CYC:  6 SL:156
FAA8  30 3C     BMI $FAE6                       A:7E X:02 Y:C1 P:64 SP:F9 CYC: 12 SL:156
FAAA  B0 3A     BCS $FAE6                       A:7E X:02 Y:C1 P:64 SP:F9 CYC: 18 SL:156
FAAC  C9 7E     CMP #$7E                        A:7E X:02 Y:C1 P:64 SP:F9 CYC: 24 SL:156
FAAE  D0 36     BNE $FAE6                       A:7E X:02 Y:C1 P:67 SP:F9 CYC: 30 SL:156
FAB0  60        RTS                             A:7E X:02 Y:C1 P:67 SP:F9 CYC: 36 SL:156
EE4D  AD 47 06  LDA $0647 = 6E                  A:7E X:02 Y:C1 P:67 SP:FB CYC: 54 SL:156
EE50  C9 6E     CMP #$6E                        A:6E X:02 Y:C1 P:65 SP:FB CYC: 66 SL:156
EE52  F0 02     BEQ $EE56                       A:6E X:02 Y:C1 P:67 SP:FB CYC: 72 SL:156
EE56  C8        INY                             A:6E X:02 Y:C1 P:67 SP:FB CYC: 81 SL:156
EE57  A9 A5     LDA #$A5                        A:6E X:02 Y:C2 P:E5 SP:FB CYC: 87 SL:156
EE59  85 47     STA $47 = 47                    A:A5 X:02 Y:C2 P:E5 SP:FB CYC: 93 SL:156
EE5B  20 7B FA  JSR $FA7B                       A:A5 X:02 Y:C2 P:E5 SP:FB CYC:102 SL:156
FA7B  24 01     BIT $01 = FF                    A:A5 X:02 Y:C2 P:E5 SP:F9 CYC:120 SL:156
FA7D  18        CLC                             A:A5 X:02 Y:C2 P:E5 SP:F9 CYC:129 SL:156
FA7E  A9 B3     LDA #$B3                        A:A5 X:02 Y:C2 P:E4 SP:F9 CYC:135 SL:156
FA80  60        RTS                             A:B3 X:02 Y:C2 P:E4 SP:F9 CYC:141 SL:156
EE5E  07 47    *SLO $47 = A5                    A:B3 X:02 Y:C2 P:E4 SP:FB CYC:159 SL:156
EE60  EA        NOP                             A:FB X:02 Y:C2 P:E5 SP:FB CYC:174 SL:156
EE61  EA        NOP                             A:FB X:02 Y:C2 P:E5 SP:FB CYC:180 SL:156
EE62  EA        NOP                             A:FB X:02 Y:C2 P:E5 SP:FB CYC:186 SL:156
EE63  EA        NOP                             A:FB X:02 Y:C2 P:E5 SP:FB CYC:192 SL:156
EE64  20 81 FA  JSR $FA81                       A:FB X:02 Y:C2 P:E5 SP:FB CYC:198 SL:156
FA81  50 63     BVC $FAE6                       A:FB X:02 Y:C2 P:E5 SP:F9 CYC:216 SL:156
FA83  90 61     BCC $FAE6                       A:FB X:02 Y:C2 P:E5 SP:F9 CYC:222 SL:156
FA85  10 5F     BPL $FAE6                       A:FB X:02 Y:C2 P:E5 SP:F9 CYC:228 SL:156
FA87  C9 FB     CMP #$FB                        A:FB X:02 Y:C2 P:E5 SP:F9 CYC:234 SL:156
FA89  D0 5B     BNE $FAE6                       A:FB X:02 Y:C2 P:67 SP:F9 CYC:240 SL:156
FA8B  60        RTS                             A:FB X:02 Y:C2 P:67 SP:F9 CYC:246 SL:156
EE67  A5 47     LDA $47 = 4A                    A:FB X:02 Y:C2 P:67 SP:FB CYC:264 SL:156
EE69  C9 4A     CMP #$4A                        A:4A X:02 Y:C2 P:65 SP:FB CYC:273 SL:156
EE6B  F0 02     BEQ $EE6F                       A:4A X:02 Y:C2 P:67 SP:FB CYC:279 SL:156
EE6F  C8        INY                             A:4A X:02 Y:C2 P:67 SP:FB CYC:288 SL:156
EE70  A9 29     LDA #$29                        A:4A X:02 Y:C3 P:E5 SP:FB CYC:294 SL:156
EE72  85 47     STA $47 = 4A                    A:29 X:02 Y:C3 P:65 SP:FB CYC:300 SL:156
EE74  20 8C FA  JSR $FA8C                       A:29 X:02 Y:C3 P:65 SP:FB CYC:309 SL:156
FA8C  B8        CLV                             A:29 X:02 Y:C3 P:65 SP:F9 CYC:327 SL:156
FA8D  18        CLC                             A:29 X:02 Y:C3 P:25 SP:F9 CYC:333 SL:156
FA8E  A9 C3     LDA #$C3                        A:29 X:02 Y:C3 P:24 SP:F9 CYC:339 SL:156
FA90  60        RTS                             A:C3 X:02 Y:C3 P:A4 SP:F9 CYC:  4 SL:157
EE77  07 47    *SLO $47 = 29                    A:C3 X:02 Y:C3 P:A4 SP:FB CYC: 22 SL:157
EE79  EA        NOP                             A:D3 X:02 Y:C3 P:A4 SP:FB CYC: 37 SL:157
EE7A  EA        NOP                             A:D3 X:02 Y:C3 P:A4 SP:FB CYC: 43 SL:157
EE7B  EA        NOP                             A:D3 X:02 Y:C3 P:A4 SP:FB CYC: 49 SL:157
EE7C  EA        NOP                             A:D3 X:02 Y:C3 P:A4 SP:FB CYC: 55 SL:157
EE7D  20 91 FA  JSR $FA91                       A:D3 X:02 Y:C3 P:A4 SP:FB CYC: 61 SL:157
FA91  70 53     BVS $FAE6                       A:D3 X:02 Y:C3 P:A4 SP:F9 CYC: 79 SL:157
FA93  F0 51     BEQ $FAE6                       A:D3 X:02 Y:C3 P:A4 SP:F9 CYC: 85 SL:157
FA95  10 4F     BPL $FAE6                       A:D3 X:02 Y:C3 P:A4 SP:F9 CYC: 91 SL:157
FA97  B0 4D     BCS $FAE6                       A:D3 X:02 Y:C3 P:A4 SP:F9 CYC: 97 SL:157
FA99  C9 D3     CMP #$D3                        A:D3 X:02 Y:C3 P:A4 SP:F9 CYC:103 SL:157
FA9B  D0 49     BNE $FAE6                       A:D3 X:02 Y:C3 P:27 SP:F9 CYC:109 SL:157
FA9D  60        RTS                             A:D3 X:02 Y:C3 P:27 SP:F9 CYC:115 SL:157
EE80  A5 47     LDA $47 = 52                    A:D3 X:02 Y:C3 P:27 SP:FB CYC:133 SL:157
EE82  C9 52     CMP #$52                        A:52 X:02 Y:C3 P:25 SP:FB CYC:142 SL:157
EE84  F0 02     BEQ $EE88                       A:52 X:02 Y:C3 P:27 SP:FB CYC:148 SL:157
EE88  C8        INY                             A:52 X:02 Y:C3 P:27 SP:FB CYC:157 SL:157
EE89  A9 37     LDA #$37                        A:52 X:02 Y:C4 P:A5 SP:FB CYC:163 SL:157
EE8B  85 47     STA $47 = 52                    A:37 X:02 Y:C4 P:25 SP:FB CYC:169 SL:157
EE8D  20 9E FA  JSR $FA9E                       A:37 X:02 Y:C4 P:25 SP:FB CYC:178 SL:157
FA9E  24 01     BIT $01 = FF                    A:37 X:02 Y:C4 P:25 SP:F9 CYC:196 SL:157
FAA0  38        SEC                             A:37 X:02 Y:C4 P:E5 SP:F9 CYC:205 SL:157
FAA1  A9 10     LDA #$10                        A:37 X:02 Y:C4 P:E5 SP:F9 CYC:211 SL:157
FAA3  60        RTS                             A:10 X:02 Y:C4 P:65 SP:F9 CYC:217 SL:157
EE90  07 47    *SLO $47 = 37                    A:10 X:02 Y:C4 P:65 SP:FB CYC:235 SL:157
EE92  EA        NOP                             A:7E X:02 Y:C4 P:64 SP:FB CYC:250 SL:157
EE93  EA        NOP                             A:7E X:02 Y:C4 P:64 SP:FB CYC:256 SL:157
EE94  EA        NOP                             A:7E X:02 Y:C4 P:64 SP:FB CYC:262 SL:157
EE95  EA        NOP                             A:7E X:02 Y:C4 P:64 SP:FB CYC:268 SL:157
EE96  20 A4 FA  JSR $FAA4                       A:7E X:02 Y:C4 P:64 SP:FB CYC:274 SL:157
FAA4  50 40     BVC $FAE6                       A:7E X:02 Y:C4 P:64 SP:F9 CYC:292 SL:157
FAA6  F0 3E     BEQ $FAE6                       A:7E X:02 Y:C4 P:64 SP:F9 CYC:298 SL:157
FAA8  30 3C     BMI $FAE6                       A:7E X:02 Y:C4 P:64 SP:F9 CYC:304 SL:157
FAAA  B0 3A     BCS $FAE6                       A:7E X:02 Y:C4 P:64 SP:F9 CYC:310 SL:157
FAAC  C9 7E     CMP #$7E                        A:7E X:02 Y:C4 P:64 SP:F9 CYC:316 SL:157
FAAE  D0 36     BNE $FAE6                       A:7E X:02 Y:C4 P:67 SP:F9 CYC:322 SL:157
FAB0  60        RTS                             A:7E X:02 Y:C4 P:67 SP:F9 CYC:328 SL:157
EE99  A5 47     LDA $47 = 6E                    A:7E X:02 Y:C4 P:67 SP:FB CYC:  5 SL:158
EE9B  C9 6E     CMP #$6E                        A:6E X:02 Y:C4 P:65 SP:FB CYC: 14 SL:158
EE9D  F0 02     BEQ $EEA1                       A:6E X:02 Y:C4 P:67 SP:FB CYC: 20 SL:158
EEA1  C8        INY                             A:6E X:02 Y:C4 P:67 SP:FB CYC: 29 SL:158
EEA2  A9 A5     LDA #$A5                        A:6E X:02 Y:C5 P:E5 SP:FB CYC: 35 SL:158
EEA4  8D 47 06  STA $0647 = 6E                  A:A5 X:02 Y:C5 P:E5 SP:FB CYC: 41 SL:158
EEA7  20 7B FA  JSR $FA7B                       A:A5 X:02 Y:C5 P:E5 SP:FB CYC: 53 SL:158
FA7B  24 01     BIT $01 = FF                    A:A5 X:02 Y:C5 P:E5 SP:F9 CYC: 71 SL:158
FA7D  18        CLC                             A:A5 X:02 Y:C5 P:E5 SP:F9 CYC: 80 SL:158
FA7E  A9 B3     LDA #$B3                        A:A5 X:02 Y:C5 P:E4 SP:F9 CYC: 86 SL:158
FA80  60        RTS                             A:B3 X:02 Y:C5 P:E4 SP:F9 CYC: 92 SL:158
EEAA  0F 47 06 *SLO $0647 = A5                  A:B3 X:02 Y:C5 P:E4 SP:FB CYC:110 SL:158
EEAD  EA        NOP                             A:FB X:02 Y:C5 P:E5 SP:FB CYC:128 SL:158
EEAE  EA        NOP                             A:FB X:02 Y:C5 P:E5 SP:FB CYC:134 SL:158
EEAF  EA        NOP                             A:FB X:02 Y:C5 P:E5 SP:FB CYC:140 SL:158
EEB0  EA        NOP                             A:FB X:02 Y:C5 P:E5 SP:FB CYC:146 SL:158
EEB1  20 81 FA  JSR $FA81                       A:FB X:02 Y:C5 P:E5 SP:FB CYC:152 SL:158
FA81  50 63     BVC $FAE6                       A:FB X:02 Y:C5 P:E5 SP:F9 CYC:170 SL:158
FA83  90 61     BCC $FAE6                       A:FB X:02 Y:C5 P:E5 SP:F9 CYC:176 SL:158
FA85  10 5F     BPL $FAE6                       A:FB X:02 Y:C5 P:E5 SP:F9 CYC:182 SL:158
FA87  C9 FB     CMP #$FB                        A:FB X:02 Y:C5 P:E5 SP:F9 CYC:188 SL:158
FA89  D0 5B     BNE $FAE6                       A:FB X:02 Y:C5 P:67 SP:F9 CYC:194 SL:158
FA8B  60        RTS                             A:FB X:02 Y:C5 P:67 SP:F9 CYC:200 SL:158
EEB4  AD 47 06  LDA $0647 = 4A                  A:FB X:02 Y:C5 P:67 SP:FB CYC:218 SL:158
EEB7  C9 4A     CMP #$4A                        A:4A X:02 Y:C5 P:65 SP:FB CYC:230 SL:158
EEB9  F0 02     BEQ $EEBD                       A:4A X:02 Y:C5 P:67 SP:FB CYC:236 SL:158
EEBD  C8        INY                             A:4A X:02 Y:C5 P:67 SP:FB CYC:245 SL:158
EEBE  A9 29     LDA #$29                        A:4A X:02 Y:C6 P:E5 SP:FB CYC:251 SL:158
EEC0  8D 47 06  STA $0647 = 4A                  A:29 X:02 Y:C6 P:65 SP:FB CYC:257 SL:158
EEC3  20 8C FA  JSR $FA8C                       A:29 X:02 Y:C6 P:65 SP:FB CYC:269 SL:158
FA8C  B8        CLV                             A:29 X:02 Y:C6 P:65 SP:F9 CYC:287 SL:158
FA8D  18        CLC                             A:29 X:02 Y:C6 P:25 SP:F9 CYC:293 SL:158
FA8E  A9 C3     LDA #$C3                        A:29 X:02 Y:C6 P:24 SP:F9 CYC:299 SL:158
FA90  60        RTS                             A:C3 X:02 Y:C6 P:A4 SP:F9 CYC:305 SL:158
EEC6  0F 47 06 *SLO $0647 = 29                  A:C3 X:02 Y:C6 P:A4 SP:FB CYC:323 SL:158
EEC9  EA        NOP                             A:D3 X:02 Y:C6 P:A4 SP:FB CYC:  0 SL:159
EECA  EA        NOP                             A:D3 X:02 Y:C6 P:A4 SP:FB CYC:  6 SL:159
EECB  EA        NOP                             A:D3 X:02 Y:C6 P:A4 SP:FB CYC: 12 SL:159
EECC  EA        NOP                             A:D3 X:02 Y:C6 P:A4 SP:FB CYC: 18 SL:159
EECD  20 91 FA  JSR $FA91                       A:D3 X:02 Y:C6 P:A4 SP:FB CYC: 24 SL:159
FA91  70 53     BVS $FAE6                       A:D3 X:02 Y:C6 P:A4 SP:F9 CYC: 42 SL:159
FA93  F0 51     BEQ $FAE6                       A:D3 X:02 Y:C6 P:A4 SP:F9 CYC: 48 SL:159
FA95  10 4F     BPL $FAE6                       A:D3 X:02 Y:C6 P:A4 SP:F9 CYC: 54 SL:159
FA97  B0 4D     BCS $FAE6                       A:D3 X:02 Y:C6 P:A4 SP:F9 CYC: 60 SL:159
FA99  C9 D3     CMP #$D3                        A:D3 X:02 Y:C6 P:A4 SP:F9 CYC: 66 SL:159
FA9B  D0 49     BNE $FAE6                       A:D3 X:02 Y:C6 P:27 SP:F9 CYC: 72 SL:159
FA9D  60        RTS                             A:D3 X:02 Y:C6 P:27 SP:F9 CYC: 78 SL:159
EED0  AD 47 06  LDA $0647 = 52                  A:D3 X:02 Y:C6 P:27 SP:FB CYC: 96 SL:159
EED3  C9 52     CMP #$52                        A:52 X:02 Y:C6 P:25 SP:FB CYC:108 SL:159
EED5  F0 02     BEQ $EED9                       A:52 X:02 Y:C6 P:27 SP:FB CYC:114 SL:159
EED9  C8        INY                             A:52 X:02 Y:C6 P:27 SP:FB CYC:123 SL:159
EEDA  A9 37     LDA #$37                        A:52 X:02 Y:C7 P:A5 SP:FB CYC:129 SL:159
EEDC  8D 47 06  STA $0647 = 52                  A:37 X:02 Y:C7 P:25 SP:FB CYC:135 SL:159
EEDF  20 9E FA  JSR $FA9E                       A:37 X:02 Y:C7 P:25 SP:FB CYC:147 SL:159
FA9E  24 01     BIT $01 = FF                    A:37 X:02 Y:C7 P:25 SP:F9 CYC:165 SL:159
FAA0  38        SEC                             A:37 X:02 Y:C7 P:E5 SP:F9 CYC:174 SL:159
FAA1  A9 10     LDA #$10                        A:37 X:02 Y:C7 P:E5 SP:F9 CYC:180 SL:159
FAA3  60        RTS                             A:10 X:02 Y:C7 P:65 SP:F9 CYC:186 SL:159
EEE2  0F 47 06 *SLO $0647 = 37                  A:10 X:02 Y:C7 P:65 SP:FB CYC:204 SL:159
EEE5  EA        NOP                             A:7E X:02 Y:C7 P:64 SP:FB CYC:222 SL:159
EEE6  EA        NOP                             A:7E X:02 Y:C7 P:64 SP:FB CYC:228 SL:159
EEE7  EA        NOP                             A:7E X:02 Y:C7 P:64 SP:FB CYC:234 SL:159
EEE8  EA        NOP                             A:7E X:02 Y:C7 P:64 SP:FB CYC:240 SL:159
EEE9  20 A4 FA  JSR $FAA4                       A:7E X:02 Y:C7 P:64 SP:FB CYC:246 SL:159
FAA4  50 40     BVC $FAE6                       A:7E X:02 Y:C7 P:64 SP:F9 CYC:264 SL:159
FAA6  F0 3E     BEQ $FAE6                       A:7E X:02 Y:C7 P:64 SP:F9 CYC:270 SL:159
FAA8  30 3C     BMI $FAE6                       A:7E X:02 Y:C7 P:64 SP:F9 CYC:276 SL:159
FAAA  B0 3A     BCS $FAE6                       A:7E X:02 Y:C7 P:64 SP:F9 CYC:282 SL:159
FAAC  C9 7E     CMP #$7E                        A:7E X:02 Y:C7 P:64 SP:F9 CYC:288 SL:159
FAAE  D0 36     BNE $FAE6                       A:7E X:02 Y:C7 P:67 SP:F9 CYC:294 SL:159
FAB0  60        RTS                             A:7E X:02 Y:C7 P:67 SP:F9 CYC:300 SL:159
EEEC  AD 47 06  LDA $0647 = 6E                  A:7E X:02 Y:C7 P:67 SP:FB CYC:318 SL:159
EEEF  C9 6E     CMP #$6E                        A:6E X:02 Y:C7 P:65 SP:FB CYC:330 SL:159
EEF1  F0 02     BEQ $EEF5                       A:6E X:02 Y:C7 P:67 SP:FB CYC:336 SL:159
EEF5  A9 A5     LDA #$A5                        A:6E X:02 Y:C7 P:67 SP:FB CYC:  4 SL:160
EEF7  8D 47 06  STA $0647 = 6E                  A:A5 X:02 Y:C7 P:E5 SP:FB CYC: 10 SL:160
EEFA  A9 48     LDA #$48                        A:A5 X:02 Y:C7 P:E5 SP:FB CYC: 22 SL:160
EEFC  85 45     STA $45 = 48                    A:48 X:02 Y:C7 P:65 SP:FB CYC: 28 SL:160
EEFE  A9 05     LDA #$05                        A:48 X:02 Y:C7 P:65 SP:FB CYC: 37 SL:160
EF00  85 46     STA $46 = 05                    A:05 X:02 Y:C7 P:65 SP:FB CYC: 43 SL:160
EF02  A0 FF     LDY #$FF                        A:05 X:02 Y:C7 P:65 SP:FB CYC: 52 SL:160
EF04  20 7B FA  JSR $FA7B                       A:05 X:02 Y:FF P:E5 SP:FB CYC: 58 SL:160
FA7B  24 01     BIT $01 = FF                    A:05 X:02 Y:FF P:E5 SP:F9 CYC: 76 SL:160
FA7D  18        CLC                             A:05 X:02 Y:FF P:E5 SP:F9 CYC: 85 SL:160
FA7E  A9 B3     LDA #$B3                        A:05 X:02 Y:FF P:E4 SP:F9 CYC: 91 SL:160
FA80  60        RTS                             A:B3 X:02 Y:FF P:E4 SP:F9 CYC: 97 SL:160
EF07  13 45    *SLO ($45),Y = 0548 @ 0647 = A5  A:B3 X:02 Y:FF P:E4 SP:FB CYC:115 SL:160
EF09  EA        NOP                             A:FB X:02 Y:FF P:E5 SP:FB CYC:139 SL:160
EF0A  EA        NOP                             A:FB X:02 Y:FF P:E5 SP:FB CYC:145 SL:160
EF0B  08        PHP                             A:FB X:02 Y:FF P:E5 SP:FB CYC:151 SL:160
EF0C  48        PHA                             A:FB X:02 Y:FF P:E5 SP:FA CYC:160 SL:160
EF0D  A0 C8     LDY #$C8                        A:FB X:02 Y:FF P:E5 SP:F9 CYC:169 SL:160
EF0F  68        PLA                             A:FB X:02 Y:C8 P:E5 SP:F9 CYC:175 SL:160
EF10  28        PLP                             A:FB X:02 Y:C8 P:E5 SP:FA CYC:187 SL:160
EF11  20 81 FA  JSR $FA81                       A:FB X:02 Y:C8 P:E5 SP:FB CYC:199 SL:160
FA81  50 63     BVC $FAE6                       A:FB X:02 Y:C8 P:E5 SP:F9 CYC:217 SL:160
FA83  90 61     BCC $FAE6                       A:FB X:02 Y:C8 P:E5 SP:F9 CYC:223 SL:160
FA85  10 5F     BPL $FAE6                       A:FB X:02 Y:C8 P:E5 SP:F9 CYC:229 SL:160
FA87  C9 FB     CMP #$FB                        A:FB X:02 Y:C8 P:E5 SP:F9 CYC:235 SL:160
FA89  D0 5B     BNE $FAE6                       A:FB X:02 Y:C8 P:67 SP:F9 CYC:241 SL:160
FA8B  60        RTS                             A:FB X:02 Y:C8 P:67 SP:F9 CYC:247 SL:160
EF14  AD 47 06  LDA $0647 = 4A                  A:FB X:02 Y:C8 P:67 SP:FB CYC:265 SL:160
EF17  C9 4A     CMP #$4A                        A:4A X:02 Y:C8 P:65 SP:FB CYC:277 SL:160
EF19  F0 02     BEQ $EF1D                       A:4A X:02 Y:C8 P:67 SP:FB CYC:283 SL:160
EF1D  A0 FF     LDY #$FF                        A:4A X:02 Y:C8 P:67 SP:FB CYC:292 SL:160
EF1F  A9 29     LDA #$29                        A:4A X:02 Y:FF P:E5 SP:FB CYC:298 SL:160
EF21  8D 47 06  STA $0647 = 4A                  A:29 X:02 Y:FF P:65 SP:FB CYC:304 SL:160
EF24  20 8C FA  JSR $FA8C                       A:29 X:02 Y:FF P:65 SP:FB CYC:316 SL:160
FA8C  B8        CLV                             A:29 X:02 Y:FF P:65 SP:F9 CYC:334 SL:160
FA8D  18        CLC                             A:29 X:02 Y:FF P:25 SP:F9 CYC:340 SL:160
FA8E  A9 C3     LDA #$C3                        A:29 X:02 Y:FF P:24 SP:F9 CYC:  5 SL:161
FA90  60        RTS                             A:C3 X:02 Y:FF P:A4 SP:F9 CYC: 11 SL:161
EF27  13 45    *SLO ($45),Y = 0548 @ 0647 = 29  A:C3 X:02 Y:FF P:A4 SP:FB CYC: 29 SL:161
EF29  EA        NOP                             A:D3 X:02 Y:FF P:A4 SP:FB CYC: 53 SL:161
EF2A  EA        NOP                             A:D3 X:02 Y:FF P:A4 SP:FB CYC: 59 SL:161
EF2B  08        PHP                             A:D3 X:02 Y:FF P:A4 SP:FB CYC: 65 SL:161
EF2C  48        PHA                             A:D3 X:02 Y:FF P:A4 SP:FA CYC: 74 SL:161
EF2D  A0 C9     LDY #$C9                        A:D3 X:02 Y:FF P:A4 SP:F9 CYC: 83 SL:161
EF2F  68        PLA                             A:D3 X:02 Y:C9 P:A4 SP:F9 CYC: 89 SL:161
EF30  28        PLP                             A:D3 X:02 Y:C9 P:A4 SP:FA CYC:101 SL:161
EF31  20 91 FA  JSR $FA91                       A:D3 X:02 Y:C9 P:A4 SP:FB CYC:113 SL:161
FA91  70 53     BVS $FAE6                       A:D3 X:02 Y:C9 P:A4 SP:F9 CYC:131 SL:161
FA93  F0 51     BEQ $FAE6                       A:D3 X:02 Y:C9 P:A4 SP:F9 CYC:137 SL:161
FA95  10 4F     BPL $FAE6                       A:D3 X:02 Y:C9 P:A4 SP:F9 CYC:143 SL:161
FA97  B0 4D     BCS $FAE6                       A:D3 X:02 Y:C9 P:A4 SP:F9 CYC:149 SL:161
FA99  C9 D3     CMP #$D3                        A:D3 X:02 Y:C9 P:A4 SP:F9 CYC:155 SL:161
FA9B  D0 49     BNE $FAE6                       A:D3 X:02 Y:C9 P:27 SP:F9 CYC:161 SL:161
FA9D  60        RTS                             A:D3 X:02 Y:C9 P:27 SP:F9 CYC:167 SL:161
EF34  AD 47 06  LDA $0647 = 52                  A:D3 X:02 Y:C9 P:27 SP:FB CYC:185 SL:161
EF37  C9 52     CMP #$52                        A:52 X:02 Y:C9 P:25 SP:FB CYC:197 SL:161
EF39  F0 02     BEQ $EF3D                       A:52 X:02 Y:C9 P:27 SP:FB CYC:203 SL:161
EF3D  A0 FF     LDY #$FF                        A:52 X:02 Y:C9 P:27 SP:FB CYC:212 SL:161
EF3F  A9 37     LDA #$37                        A:52 X:02 Y:FF P:A5 SP:FB CYC:218 SL:161
EF41  8D 47 06  STA $0647 = 52                  A:37 X:02 Y:FF P:25 SP:FB CYC:224 SL:161
EF44  20 9E FA  JSR $FA9E                       A:37 X:02 Y:FF P:25 SP:FB CYC:236 SL:161
FA9E  24 01     BIT $01 = FF                    A:37 X:02 Y:FF P:25 SP:F9 CYC:254 SL:161
FAA0  38        SEC                             A:37 X:02 Y:FF P:E5 SP:F9 CYC:263 SL:161
FAA1  A9 10     LDA #$10                        A:37 X:02 Y:FF P:E5 SP:F9 CYC:269 SL:161
FAA3  60        RTS                             A:10 X:02 Y:FF P:65 SP:F9 CYC:275 SL:161
EF47  13 45    *SLO ($45),Y = 0548 @ 0647 = 37  A:10 X:02 Y:FF P:65 SP:FB CYC:293 SL:161
EF49  EA        NOP                             A:7E X:02 Y:FF P:64 SP:FB CYC:317 SL:161
EF4A  EA        NOP                             A:7E X:02 Y:FF P:64 SP:FB CYC:323 SL:161
EF4B  08        PHP                             A:7E X:02 Y:FF P:64 SP:FB CYC:329 SL:161
EF4C  48        PHA                             A:7E X:02 Y:FF P:64 SP:FA CYC:338 SL:161
EF4D  A0 CA     LDY #$CA                        A:7E X:02 Y:FF P:64 SP:F9 CYC:  6 SL:162
EF4F  68        PLA                             A:7E X:02 Y:CA P:E4 SP:F9 CYC: 12 SL:162
EF50  28        PLP                             A:7E X:02 Y:CA P:64 SP:FA CYC: 24 SL:162
EF51  20 A4 FA  JSR $FAA4                       A:7E X:02 Y:CA P:64 SP:FB CYC: 36 SL:162
FAA4  50 40     BVC $FAE6                       A:7E X:02 Y:CA P:64 SP:F9 CYC: 54 SL:162
FAA6  F0 3E     BEQ $FAE6                       A:7E X:02 Y:CA P:64 SP:F9 CYC: 60 SL:162
FAA8  30 3C     BMI $FAE6                       A:7E X:02 Y:CA P:64 SP:F9 CYC: 66 SL:162
FAAA  B0 3A     BCS $FAE6                       A:7E X:02 Y:CA P:64 SP:F9 CYC: 72 SL:162
FAAC  C9 7E     CMP #$7E                        A:7E X:02 Y:CA P:64 SP:F9 CYC: 78 SL:162
FAAE  D0 36     BNE $FAE6                       A:7E X:02 Y:CA P:67 SP:F9 CYC: 84 SL:162
FAB0  60        RTS                             A:7E X:02 Y:CA P:67 SP:F9 CYC: 90 SL:162
EF54  AD 47 06  LDA $0647 = 6E                  A:7E X:02 Y:CA P:67 SP:FB CYC:108 SL:162
EF57  C9 6E     CMP #$6E                        A:6E X:02 Y:CA P:65 SP:FB CYC:120 SL:162
EF59  F0 02     BEQ $EF5D                       A:6E X:02 Y:CA P:67 SP:FB CYC:126 SL:162
EF5D  A0 CB     LDY #$CB                        A:6E X:02 Y:CA P:67 SP:FB CYC:135 SL:162
EF5F  A2 FF     LDX #$FF                        A:6E X:02 Y:CB P:E5 SP:FB CYC:141 SL:162
EF61  A9 A5     LDA #$A5                        A:6E X:FF Y:CB P:E5 SP:FB CYC:147 SL:162
EF63  85 47     STA $47 = 6E                    A:A5 X:FF Y:CB P:E5 SP:FB CYC:153 SL:162
EF65  20 7B FA  JSR $FA7B                       A:A5 X:FF Y:CB P:E5 SP:FB CYC:162 SL:162
FA7B  24 01     BIT $01 = FF                    A:A5 X:FF Y:CB P:E5 SP:F9 CYC:180 SL:162
FA7D  18        CLC                             A:A5 X:FF Y:CB P:E5 SP:F9 CYC:189 SL:162
FA7E  A9 B3     LDA #$B3                        A:A5 X:FF Y:CB P:E4 SP:F9 CYC:195 SL:162
FA80  60        RTS                             A:B3 X:FF Y:CB P:E4 SP:F9 CYC:201 SL:162
EF68  17 48    *SLO $48,X @ 47 = A5             A:B3 X:FF Y:CB P:E4 SP:FB CYC:219 SL:162
EF6A  EA        NOP                             A:FB X:FF Y:CB P:E5 SP:FB CYC:237 SL:162
EF6B  EA        NOP                             A:FB X:FF Y:CB P:E5 SP:FB CYC:243 SL:162
EF6C  EA        NOP                             A:FB X:FF Y:CB P:E5 SP:FB CYC:249 SL:162
EF6D  EA        NOP                             A:FB X:FF Y:CB P:E5 SP:FB CYC:255 SL:162
EF6E  20 81 FA  JSR $FA81                       A:FB X:FF Y:CB P:E5 SP:FB CYC:261 SL:162
FA81  50 63     BVC $FAE6                       A:FB X:FF Y:CB P:E5 SP:F9 CYC:279 SL:162
FA83  90 61     BCC $FAE6                       A:FB X:FF Y:CB P:E5 SP:F9 CYC:285 SL:162
FA85  10 5F     BPL $FAE6                       A:FB X:FF Y:CB P:E5 SP:F9 CYC:291 SL:162
FA87  C9 FB     CMP #$FB                        A:FB X:FF Y:CB P:E5 SP:F9 CYC:297 SL:162
FA89  D0 5B     BNE $FAE6                       A:FB X:FF Y:CB P:67 SP:F9 CYC:303 SL:162
FA8B  60        RTS                             A:FB X:FF Y:CB P:67 SP:F9 CYC:309 SL:162
EF71  A5 47     LDA $47 = 4A                    A:FB X:FF Y:CB P:67 SP:FB CYC:327 SL:162
EF73  C9 4A     CMP #$4A                        A:4A X:FF Y:CB P:65 SP:FB CYC:336 SL:162
EF75  F0 02     BEQ $EF79                       A:4A X:FF Y:CB P:67 SP:FB CYC:  1 SL:163
EF79  C8        INY                             A:4A X:FF Y:CB P:67 SP:FB CYC: 10 SL:163
EF7A  A9 29     LDA #$29                        A:4A X:FF Y:CC P:E5 SP:FB CYC: 16 SL:163
EF7C  85 47     STA $47 = 4A                    A:29 X:FF Y:CC P:65 SP:FB CYC: 22 SL:163
EF7E  20 8C FA  JSR $FA8C                       A:29 X:FF Y:CC P:65 SP:FB CYC: 31 SL:163
FA8C  B8        CLV                             A:29 X:FF Y:CC P:65 SP:F9 CYC: 49 SL:163
FA8D  18        CLC                             A:29 X:FF Y:CC P:25 SP:F9 CYC: 55 SL:163
FA8E  A9 C3     LDA #$C3                        A:29 X:FF Y:CC P:24 SP:F9 CYC: 61 SL:163
FA90  60        RTS                             A:C3 X:FF Y:CC P:A4 SP:F9 CYC: 67 SL:163
EF81  17 48    *SLO $48,X @ 47 = 29             A:C3 X:FF Y:CC P:A4 SP:FB CYC: 85 SL:163
EF83  EA        NOP                             A:D3 X:FF Y:CC P:A4 SP:FB CYC:103 SL:163
EF84  EA        NOP                             A:D3 X:FF Y:CC P:A4 SP:FB CYC:109 SL:163
EF85  EA        NOP                             A:D3 X:FF Y:CC P:A4 SP:FB CYC:115 SL:163
EF86  EA        NOP                             A:D3 X:FF Y:CC P:A4 SP:FB CYC:121 SL:163
EF87  20 91 FA  JSR $FA91                       A:D3 X:FF Y:CC P:A4 SP:FB CYC:127 SL:163
FA91  70 53     BVS $FAE6                       A:D3 X:FF Y:CC P:A4 SP:F9 CYC:145 SL:163
FA93  F0 51     BEQ $FAE6                       A:D3 X:FF Y:CC P:A4 SP:F9 CYC:151 SL:163
FA95  10 4F     BPL $FAE6                       A:D3 X:FF Y:CC P:A4 SP:F9 CYC:157 SL:163
FA97  B0 4D     BCS $FAE6                       A:D3 X:FF Y:CC P:A4 SP:F9 CYC:163 SL:163
FA99  C9 D3     CMP #$D3                        A:D3 X:FF Y:CC P:A4 SP:F9 CYC:169 SL:163
FA9B  D0 49     BNE $FAE6                       A:D3 X:FF Y:CC P:27 SP:F9 CYC:175 SL:163
FA9D  60        RTS                             A:D3 X:FF Y:CC P:27 SP:F9 CYC:181 SL:163
EF8A  A5 47     LDA $47 = 52                    A:D3 X:FF Y:CC P:27 SP:FB CYC:199 SL:163
EF8C  C9 52     CMP #$52                        A:52 X:FF Y:CC P:25 SP:FB CYC:208 SL:163
EF8E  F0 02     BEQ $EF92                       A:52 X:FF Y:CC P:27 SP:FB CYC:214 SL:163
EF92  C8        INY                             A:52 X:FF Y:CC P:27 SP:FB CYC:223 SL:163
EF93  A9 37     LDA #$37                        A:52 X:FF Y:CD P:A5 SP:FB CYC:229 SL:163
EF95  85 47     STA $47 = 52                    A:37 X:FF Y:CD P:25 SP:FB CYC:235 SL:163
EF97  20 9E FA  JSR $FA9E                       A:37 X:FF Y:CD P:25 SP:FB CYC:244 SL:163
FA9E  24 01     BIT $01 = FF                    A:37 X:FF Y:CD P:25 SP:F9 CYC:262 SL:163
FAA0  38        SEC                             A:37 X:FF Y:CD P:E5 SP:F9 CYC:271 SL:163
FAA1  A9 10     LDA #$10                        A:37 X:FF Y:CD P:E5 SP:F9 CYC:277 SL:163
FAA3  60        RTS                             A:10 X:FF Y:CD P:65 SP:F9 CYC:283 SL:163
EF9A  17 48    *SLO $48,X @ 47 = 37             A:10 X:FF Y:CD P:65 SP:FB CYC:301 SL:163
EF9C  EA        NOP                             A:7E X:FF Y:CD P:64 SP:FB CYC:319 SL:163
EF9D  EA        NOP                             A:7E X:FF Y:CD P:64 SP:FB CYC:325 SL:163
EF9E  EA        NOP                             A:7E X:FF Y:CD P:64 SP:FB CYC:331 SL:163
EF9F  EA        NOP                             A:7E X:FF Y:CD P:64 SP:FB CYC:337 SL:163
EFA0  20 A4 FA  JSR $FAA4                       A:7E X:FF Y:CD P:64 SP:FB CYC:  2 SL:164
FAA4  50 40     BVC $FAE6                       A:7E X:FF Y:CD P:64 SP:F9 CYC: 20 SL:164
FAA6  F0 3E     BEQ $FAE6                       A:7E X:FF Y:CD P:64 SP:F9 CYC: 26 SL:164
FAA8  30 3C     BMI $FAE6                       A:7E X:FF Y:CD P:64 SP:F9 CYC: 32 SL:164
FAAA  B0 3A     BCS $FAE6                       A:7E X:FF Y:CD P:64 SP:F9 CYC: 38 SL:164
FAAC  C9 7E     CMP #$7E                        A:7E X:FF Y:CD P:64 SP:F9 CYC: 44 SL:164
FAAE  D0 36     BNE $FAE6                       A:7E X:FF Y:CD P:67 SP:F9 CYC: 50 SL:164
FAB0  60        RTS                             A:7E X:FF Y:CD P:67 SP:F9 CYC: 56 SL:164
EFA3  A5 47     LDA $47 = 6E                    A:7E X:FF Y:CD P:67 SP:FB CYC: 74 SL:164
EFA5  C9 6E     CMP #$6E                        A:6E X:FF Y:CD P:65 SP:FB CYC: 83 SL:164
EFA7  F0 02     BEQ $EFAB                       A:6E X:FF Y:CD P:67 SP:FB CYC: 89 SL:164
EFAB  A9 A5     LDA #$A5                        A:6E X:FF Y:CD P:67 SP:FB CYC: 98 SL:164
EFAD  8D 47 06  STA $0647 = 6E                  A:A5 X:FF Y:CD P:E5 SP:FB CYC:104 SL:164
EFB0  A0 FF     LDY #$FF                        A:A5 X:FF Y:CD P:E5 SP:FB CYC:116 SL:164
EFB2  20 7B FA  JSR $FA7B                       A:A5 X:FF Y:FF P:E5 SP:FB CYC:122 SL:164
FA7B  24 01     BIT $01 = FF                    A:A5 X:FF Y:FF P:E5 SP:F9 CYC:140 SL:164
FA7D  18        CLC                             A:A5 X:FF Y:FF P:E5 SP:F9 CYC:149 SL:164
FA7E  A9 B3     LDA #$B3                        A:A5 X:FF Y:FF P:E4 SP:F9 CYC:155 SL:164
FA80  60        RTS                             A:B3 X:FF Y:FF P:E4 SP:F9 CYC:161 SL:164
EFB5  1B 48 05 *SLO $0548,Y @ 0647 = A5         A:B3 X:FF Y:FF P:E4 SP:FB CYC:179 SL:164
EFB8  EA        NOP                             A:FB X:FF Y:FF P:E5 SP:FB CYC:200 SL:164
EFB9  EA        NOP                             A:FB X:FF Y:FF P:E5 SP:FB CYC:206 SL:164
EFBA  08        PHP                             A:FB X:FF Y:FF P:E5 SP:FB CYC:212 SL:164
EFBB  48        PHA                             A:FB X:FF Y:FF P:E5 SP:FA CYC:221 SL:164
EFBC  A0 CE     LDY #$CE                        A:FB X:FF Y:FF P:E5 SP:F9 CYC:230 SL:164
EFBE  68        PLA                             A:FB X:FF Y:CE P:E5 SP:F9 CYC:236 SL:164
EFBF  28        PLP                             A:FB X:FF Y:CE P:E5 SP:FA CYC:248 SL:164
EFC0  20 81 FA  JSR $FA81                       A:FB X:FF Y:CE P:E5 SP:FB CYC:260 SL:164
FA81  50 63     BVC $FAE6                       A:FB X:FF Y:CE P:E5 SP:F9 CYC:278 SL:164
FA83  90 61     BCC $FAE6                       A:FB X:FF Y:CE P:E5 SP:F9 CYC:284 SL:164
FA85  10 5F     BPL $FAE6                       A:FB X:FF Y:CE P:E5 SP:F9 CYC:290 SL:164
FA87  C9 FB     CMP #$FB                        A:FB X:FF Y:CE P:E5 SP:F9 CYC:296 SL:164
FA89  D0 5B     BNE $FAE6                       A:FB X:FF Y:CE P:67 SP:F9 CYC:302 SL:164
FA8B  60        RTS                             A:FB X:FF Y:CE P:67 SP:F9 CYC:308 SL:164
EFC3  AD 47 06  LDA $0647 = 4A                  A:FB X:FF Y:CE P:67 SP:FB CYC:326 SL:164
EFC6  C9 4A     CMP #$4A                        A:4A X:FF Y:CE P:65 SP:FB CYC:338 SL:164
EFC8  F0 02     BEQ $EFCC                       A:4A X:FF Y:CE P:67 SP:FB CYC:  3 SL:165
EFCC  A0 FF     LDY #$FF                        A:4A X:FF Y:CE P:67 SP:FB CYC: 12 SL:165
EFCE  A9 29     LDA #$29                        A:4A X:FF Y:FF P:E5 SP:FB CYC: 18 SL:165
EFD0  8D 47 06  STA $0647 = 4A                  A:29 X:FF Y:FF P:65 SP:FB CYC: 24 SL:165
EFD3  20 8C FA  JSR $FA8C                       A:29 X:FF Y:FF P:65 SP:FB CYC: 36 SL:165
FA8C  B8        CLV                             A:29 X:FF Y:FF P:65 SP:F9 CYC: 54 SL:165
FA8D  18        CLC                             A:29 X:FF Y:FF P:25 SP:F9 CYC: 60 SL:165
FA8E  A9 C3     LDA #$C3                        A:29 X:FF Y:FF P:24 SP:F9 CYC: 66 SL:165
FA90  60        RTS                             A:C3 X:FF Y:FF P:A4 SP:F9 CYC: 72 SL:165
EFD6  1B 48 05 *SLO $0548,Y @ 0647 = 29         A:C3 X:FF Y:FF P:A4 SP:FB CYC: 90 SL:165
EFD9  EA        NOP                             A:D3 X:FF Y:FF P:A4 SP:FB CYC:111 SL:165
EFDA  EA        NOP                             A:D3 X:FF Y:FF P:A4 SP:FB CYC:117 SL:165
EFDB  08        PHP                             A:D3 X:FF Y:FF P:A4 SP:FB CYC:123 SL:165
EFDC  48        PHA                             A:D3 X:FF Y:FF P:A4 SP:FA CYC:132 SL:165
EFDD  A0 CF     LDY #$CF                        A:D3 X:FF Y:FF P:A4 SP:F9 CYC:141 SL:165
EFDF  68        PLA                             A:D3 X:FF Y:CF P:A4 SP:F9 CYC:147 SL:165
EFE0  28        PLP                             A:D3 X:FF Y:CF P:A4 SP:FA CYC:159 SL:165
EFE1  20 91 FA  JSR $FA91                       A:D3 X:FF Y:CF P:A4 SP:FB CYC:171 SL:165
FA91  70 53     BVS $FAE6                       A:D3 X:FF Y:CF P:A4 SP:F9 CYC:189 SL:165
FA93  F0 51     BEQ $FAE6                       A:D3 X:FF Y:CF P:A4 SP:F9 CYC:195 SL:165
FA95  10 4F     BPL $FAE6                       A:D3 X:FF Y:CF P:A4 SP:F9 CYC:201 SL:165
FA97  B0 4D     BCS $FAE6                       A:D3 X:FF Y:CF P:A4 SP:F9 CYC:207 SL:165
FA99  C9 D3     CMP #$D3                        A:D3 X:FF Y:CF P:A4 SP:F9 CYC:213 SL:165
FA9B  D0 49     BNE $FAE6                       A:D3 X:FF Y:CF P:27 SP:F9 CYC:219 SL:165
FA9D  60        RTS                             A:D3 X:FF Y:CF P:27 SP:F9 CYC:225 SL:165
EFE4  AD 47 06  LDA $0647 = 52                  A:D3 X:FF Y:CF P:27 SP:FB CYC:243 SL:165
EFE7  C9 52     CMP #$52                        A:52 X:FF Y:CF P:25 SP:FB CYC:255 SL:165
EFE9  F0 02     BEQ $EFED                       A:52 X:FF Y:CF P:27 SP:FB CYC:261 SL:165
EFED  A0 FF     LDY #$FF                        A:52 X:FF Y:CF P:27 SP:FB CYC:270 SL:165
EFEF  A9 37     LDA #$37                        A:52 X:FF Y:FF P:A5 SP:FB CYC:276 SL:165
EFF1  8D 47 06  STA $0647 = 52                  A:37 X:FF Y:FF P:25 SP:FB CYC:282 SL:165
EFF4  20 9E FA  JSR $FA9E                       A:37 X:FF Y:FF P:25 SP:FB CYC:294 SL:165
FA9E  24 01     BIT $01 = FF                    A:37 X:FF Y:FF P:25 SP:F9 CYC:312 SL:165
FAA0  38        SEC                             A:37 X:FF Y:FF P:E5 SP:F9 CYC:321 SL:165
FAA1  A9 10     LDA #$10                        A:37 X:FF Y:FF P:E5 SP:F9 CYC:327 SL:165
FAA3  60        RTS                             A:10 X:FF Y:FF P:65 SP:F9 CYC:333 SL:165
EFF7  1B 48 05 *SLO $0548,Y @ 0647 = 37         A:10 X:FF Y:FF P:65 SP:FB CYC: 10 SL:166
EFFA  EA        NOP                             A:7E X:FF Y:FF P:64 SP:FB CYC: 31 SL:166
EFFB  EA        NOP                             A:7E X:FF Y:FF P:64 SP:FB CYC: 37 SL:166
EFFC  08        PHP                             A:7E X:FF Y:FF P:64 SP:FB CYC: 43 SL:166
EFFD  48        PHA                             A:7E X:FF Y:FF P:64 SP:FA CYC: 52 SL:166
EFFE  A0 D0     LDY #$D0                        A:7E X:FF Y:FF P:64 SP:F9 CYC: 61 SL:166
F000  68        PLA                             A:7E X:FF Y:D0 P:E4 SP:F9 CYC: 67 SL:166
F001  28        PLP                             A:7E X:FF Y:D0 P:64 SP:FA CYC: 79 SL:166
F002  20 A4 FA  JSR $FAA4                       A:7E X:FF Y:D0 P:64 SP:FB CYC: 91 SL:166
FAA4  50 40     BVC $FAE6                       A:7E X:FF Y:D0 P:64 SP:F9 CYC:109 SL:166
FAA6  F0 3E     BEQ $FAE6                       A:7E X:FF Y:D0 P:64 SP:F9 CYC:115 SL:166
FAA8  30 3C     BMI $FAE6                       A:7E X:FF Y:D0 P:64 SP:F9 CYC:121 SL:166
FAAA  B0 3A     BCS $FAE6                       A:7E X:FF Y:D0 P:64 SP:F9 CYC:127 SL:166
FAAC  C9 7E     CMP #$7E                        A:7E X:FF Y:D0 P:64 SP:F9 CYC:133 SL:166
FAAE  D0 36     BNE $FAE6                       A:7E X:FF Y:D0 P:67 SP:F9 CYC:139 SL:166
FAB0  60        RTS                             A:7E X:FF Y:D0 P:67 SP:F9 CYC:145 SL:166
F005  AD 47 06  LDA $0647 = 6E                  A:7E X:FF Y:D0 P:67 SP:FB CYC:163 SL:166
F008  C9 6E     CMP #$6E                        A:6E X:FF Y:D0 P:65 SP:FB CYC:175 SL:166
F00A  F0 02     BEQ $F00E                       A:6E X:FF Y:D0 P:67 SP:FB CYC:181 SL:166
F00E  A0 D1     LDY #$D1                        A:6E X:FF Y:D0 P:67 SP:FB CYC:190 SL:166
F010  A2 FF     LDX #$FF                        A:6E X:FF Y:D1 P:E5 SP:FB CYC:196 SL:166
F012  A9 A5     LDA #$A5                        A:6E X:FF Y:D1 P:E5 SP:FB CYC:202 SL:166
F014  8D 47 06  STA $0647 = 6E                  A:A5 X:FF Y:D1 P:E5 SP:FB CYC:208 SL:166
F017  20 7B FA  JSR $FA7B                       A:A5 X:FF Y:D1 P:E5 SP:FB CYC:220 SL:166
FA7B  24 01     BIT $01 = FF                    A:A5 X:FF Y:D1 P:E5 SP:F9 CYC:238 SL:166
FA7D  18        CLC                             A:A5 X:FF Y:D1 P:E5 SP:F9 CYC:247 SL:166
FA7E  A9 B3     LDA #$B3                        A:A5 X:FF Y:D1 P:E4 SP:F9 CYC:253 SL:166
FA80  60        RTS                             A:B3 X:FF Y:D1 P:E4 SP:F9 CYC:259 SL:166
F01A  1F 48 05 *SLO $0548,X @ 0647 = A5         A:B3 X:FF Y:D1 P:E4 SP:FB CYC:277 SL:166
F01D  EA        NOP                             A:FB X:FF Y:D1 P:E5 SP:FB CYC:298 SL:166
F01E  EA        NOP                             A:FB X:FF Y:D1 P:E5 SP:FB CYC:304 SL:166
F01F  EA        NOP                             A:FB X:FF Y:D1 P:E5 SP:FB CYC:310 SL:166
F020  EA        NOP                             A:FB X:FF Y:D1 P:E5 SP:FB CYC:316 SL:166
F021  20 81 FA  JSR $FA81                       A:FB X:FF Y:D1 P:E5 SP:FB CYC:322 SL:166
FA81  50 63     BVC $FAE6                       A:FB X:FF Y:D1 P:E5 SP:F9 CYC:340 SL:166
FA83  90 61     BCC $FAE6                       A:FB X:FF Y:D1 P:E5 SP:F9 CYC:  5 SL:167
FA85  10 5F     BPL $FAE6                       A:FB X:FF Y:D1 P:E5 SP:F9 CYC: 11 SL:167
FA87  C9 FB     CMP #$FB                        A:FB X:FF Y:D1 P:E5 SP:F9 CYC: 17 SL:167
FA89  D0 5B     BNE $FAE6                       A:FB X:FF Y:D1 P:67 SP:F9 CYC: 23 SL:167
FA8B  60        RTS                             A:FB X:FF Y:D1 P:67 SP:F9 CYC: 29 SL:167
F024  AD 47 06  LDA $0647 = 4A                  A:FB X:FF Y:D1 P:67 SP:FB CYC: 47 SL:167
F027  C9 4A     CMP #$4A                        A:4A X:FF Y:D1 P:65 SP:FB CYC: 59 SL:167
F029  F0 02     BEQ $F02D                       A:4A X:FF Y:D1 P:67 SP:FB CYC: 65 SL:167
F02D  C8        INY                             A:4A X:FF Y:D1 P:67 SP:FB CYC: 74 SL:167
F02E  A9 29     LDA #$29                        A:4A X:FF Y:D2 P:E5 SP:FB CYC: 80 SL:167
F030  8D 47 06  STA $0647 = 4A                  A:29 X:FF Y:D2 P:65 SP:FB CYC: 86 SL:167
F033  20 8C FA  JSR $FA8C                       A:29 X:FF Y:D2 P:65 SP:FB CYC: 98 SL:167
FA8C  B8        CLV                             A:29 X:FF Y:D2 P:65 SP:F9 CYC:116 SL:167
FA8D  18        CLC                             A:29 X:FF Y:D2 P:25 SP:F9 CYC:122 SL:167
FA8E  A9 C3     LDA #$C3                        A:29 X:FF Y:D2 P:24 SP:F9 CYC:128 SL:167
FA90  60        RTS                             A:C3 X:FF Y:D2 P:A4 SP:F9 CYC:134 SL:167
F036  1F 48 05 *SLO $0548,X @ 0647 = 29         A:C3 X:FF Y:D2 P:A4 SP:FB CYC:152 SL:167
F039  EA        NOP                             A:D3 X:FF Y:D2 P:A4 SP:FB CYC:173 SL:167
F03A  EA        NOP                             A:D3 X:FF Y:D2 P:A4 SP:FB CYC:179 SL:167
F03B  EA        NOP                             A:D3 X:FF Y:D2 P:A4 SP:FB CYC:185 SL:167
F03C  EA        NOP                             A:D3 X:FF Y:D2 P:A4 SP:FB CYC:191 SL:167
F03D  20 91 FA  JSR $FA91                       A:D3 X:FF Y:D2 P:A4 SP:FB CYC:197 SL:167
FA91  70 53     BVS $FAE6                       A:D3 X:FF Y:D2 P:A4 SP:F9 CYC:215 SL:167
FA93  F0 51     BEQ $FAE6                       A:D3 X:FF Y:D2 P:A4 SP:F9 CYC:221 SL:167
FA95  10 4F     BPL $FAE6                       A:D3 X:FF Y:D2 P:A4 SP:F9 CYC:227 SL:167
FA97  B0 4D     BCS $FAE6                       A:D3 X:FF Y:D2 P:A4 SP:F9 CYC:233 SL:167
FA99  C9 D3     CMP #$D3                        A:D3 X:FF Y:D2 P:A4 SP:F9 CYC:239 SL:167
FA9B  D0 49     BNE $FAE6                       A:D3 X:FF Y:D2 P:27 SP:F9 CYC:245 SL:167
FA9D  60        RTS                             A:D3 X:FF Y:D2 P:27 SP:F9 CYC:251 SL:167
F040  AD 47 06  LDA $0647 = 52                  A:D3 X:FF Y:D2 P:27 SP:FB CYC:269 SL:167
F043  C9 52     CMP #$52                        A:52 X:FF Y:D2 P:25 SP:FB CYC:281 SL:167
F045  F0 02     BEQ $F049                       A:52 X:FF Y:D2 P:27 SP:FB CYC:287 SL:167
F049  C8        INY                             A:52 X:FF Y:D2 P:27 SP:FB CYC:296 SL:167
F04A  A9 37     LDA #$37                        A:52 X:FF Y:D3 P:A5 SP:FB CYC:302 SL:167
F04C  8D 47 06  STA $0647 = 52                  A:37 X:FF Y:D3 P:25 SP:FB CYC:308 SL:167
F04F  20 9E FA  JSR $FA9E                       A:37 X:FF Y:D3 P:25 SP:FB CYC:320 SL:167
FA9E  24 01     BIT $01 = FF                    A:37 X:FF Y:D3 P:25 SP:F9 CYC:338 SL:167
FAA0  38        SEC                             A:37 X:FF Y:D3 P:E5 SP:F9 CYC:  6 SL:168
FAA1  A9 10     LDA #$10                        A:37 X:FF Y:D3 P:E5 SP:F9 CYC: 12 SL:168
FAA3  60        RTS                             A:10 X:FF Y:D3 P:65 SP:F9 CYC: 18 SL:168
F052  1F 48 05 *SLO $0548,X @ 0647 = 37         A:10 X:FF Y:D3 P:65 SP:FB CYC: 36 SL:168
F055  EA        NOP                             A:7E X:FF Y:D3 P:64 SP:FB CYC: 57 SL:168
F056  EA        NOP                             A:7E X:FF Y:D3 P:64 SP:FB CYC: 63 SL:168
F057  EA        NOP                             A:7E X:FF Y:D3 P:64 SP:FB CYC: 69 SL:168
F058  EA        NOP                             A:7E X:FF Y:D3 P:64 SP:FB CYC: 75 SL:168
F059  20 A4 FA  JSR $FAA4                       A:7E X:FF Y:D3 P:64 SP:FB CYC: 81 SL:168
FAA4  50 40     BVC $FAE6                       A:7E X:FF Y:D3 P:64 SP:F9 CYC: 99 SL:168
FAA6  F0 3E     BEQ $FAE6                       A:7E X:FF Y:D3 P:64 SP:F9 CYC:105 SL:168
FAA8  30 3C     BMI $FAE6                       A:7E X:FF Y:D3 P:64 SP:F9 CYC:111 SL:168
FAAA  B0 3A     BCS $FAE6                       A:7E X:FF Y:D3 P:64 SP:F9 CYC:117 SL:168
FAAC  C9 7E     CMP #$7E                        A:7E X:FF Y:D3 P:64 SP:F9 CYC:123 SL:168
FAAE  D0 36     BNE $FAE6                       A:7E X:FF Y:D3 P:67 SP:F9 CYC:129 SL:168
FAB0  60        RTS                             A:7E X:FF Y:D3 P:67 SP:F9 CYC:135 SL:168
F05C  AD 47 06  LDA $0647 = 6E                  A:7E X:FF Y:D3 P:67 SP:FB CYC:153 SL:168
F05F  C9 6E     CMP #$6E                        A:6E X:FF Y:D3 P:65 SP:FB CYC:165 SL:168
F061  F0 02     BEQ $F065                       A:6E X:FF Y:D3 P:67 SP:FB CYC:171 SL:168
F065  60        RTS                             A:6E X:FF Y:D3 P:67 SP:FB CYC:180 SL:168
C644  20 66 F0  JSR $F066                       A:6E X:FF Y:D3 P:67 SP:FD CYC:198 SL:168
F066  A9 FF     LDA #$FF                        A:6E X:FF Y:D3 P:67 SP:FB CYC:216 SL:168
F068  85 01     STA $01 = FF                    A:FF X:FF Y:D3 P:E5 SP:FB CYC:222 SL:168
F06A  A0 D4     LDY #$D4                        A:FF X:FF Y:D3 P:E5 SP:FB CYC:231 SL:168
F06C  A2 02     LDX #$02                        A:FF X:FF Y:D4 P:E5 SP:FB CYC:237 SL:168
F06E  A9 47     LDA #$47                        A:FF X:02 Y:D4 P:65 SP:FB CYC:243 SL:168
F070  85 47     STA $47 = 6E                    A:47 X:02 Y:D4 P:65 SP:FB CYC:249 SL:168
F072  A9 06     LDA #$06                        A:47 X:02 Y:D4 P:65 SP:FB CYC:258 SL:168
F074  85 48     STA $48 = 06                    A:06 X:02 Y:D4 P:65 SP:FB CYC:264 SL:168
F076  A9 A5     LDA #$A5                        A:06 X:02 Y:D4 P:65 SP:FB CYC:273 SL:168
F078  8D 47 06  STA $0647 = 6E                  A:A5 X:02 Y:D4 P:E5 SP:FB CYC:279 SL:168
F07B  20 53 FB  JSR $FB53                       A:A5 X:02 Y:D4 P:E5 SP:FB CYC:291 SL:168
FB53  24 01     BIT $01 = FF                    A:A5 X:02 Y:D4 P:E5 SP:F9 CYC:309 SL:168
FB55  18        CLC                             A:A5 X:02 Y:D4 P:E5 SP:F9 CYC:318 SL:168
FB56  A9 B3     LDA #$B3                        A:A5 X:02 Y:D4 P:E4 SP:F9 CYC:324 SL:168
FB58  60        RTS                             A:B3 X:02 Y:D4 P:E4 SP:F9 CYC:330 SL:168
F07E  23 45    *RLA ($45,X) @ 47 = 0647 = A5    A:B3 X:02 Y:D4 P:E4 SP:FB CYC:  7 SL:169
F080  EA        NOP                             A:02 X:02 Y:D4 P:65 SP:FB CYC: 31 SL:169
F081  EA        NOP                             A:02 X:02 Y:D4 P:65 SP:FB CYC: 37 SL:169
F082  EA        NOP                             A:02 X:02 Y:D4 P:65 SP:FB CYC: 43 SL:169
F083  EA        NOP                             A:02 X:02 Y:D4 P:65 SP:FB CYC: 49 SL:169
F084  20 59 FB  JSR $FB59                       A:02 X:02 Y:D4 P:65 SP:FB CYC: 55 SL:169
FB59  50 1A     BVC $FB75                       A:02 X:02 Y:D4 P:65 SP:F9 CYC: 73 SL:169
FB5B  90 18     BCC $FB75                       A:02 X:02 Y:D4 P:65 SP:F9 CYC: 79 SL:169
FB5D  30 16     BMI $FB75                       A:02 X:02 Y:D4 P:65 SP:F9 CYC: 85 SL:169
FB5F  C9 02     CMP #$02                        A:02 X:02 Y:D4 P:65 SP:F9 CYC: 91 SL:169
FB61  D0 12     BNE $FB75                       A:02 X:02 Y:D4 P:67 SP:F9 CYC: 97 SL:169
FB63  60        RTS                             A:02 X:02 Y:D4 P:67 SP:F9 CYC:103 SL:169
F087  AD 47 06  LDA $0647 = 4A                  A:02 X:02 Y:D4 P:67 SP:FB CYC:121 SL:169
F08A  C9 4A     CMP #$4A                        A:4A X:02 Y:D4 P:65 SP:FB CYC:133 SL:169
F08C  F0 02     BEQ $F090                       A:4A X:02 Y:D4 P:67 SP:FB CYC:139 SL:169
F090  C8        INY                             A:4A X:02 Y:D4 P:67 SP:FB CYC:148 SL:169
F091  A9 29     LDA #$29                        A:4A X:02 Y:D5 P:E5 SP:FB CYC:154 SL:169
F093  8D 47 06  STA $0647 = 4A                  A:29 X:02 Y:D5 P:65 SP:FB CYC:160 SL:169
F096  20 64 FB  JSR $FB64                       A:29 X:02 Y:D5 P:65 SP:FB CYC:172 SL:169
FB64  B8        CLV                             A:29 X:02 Y:D5 P:65 SP:F9 CYC:190 SL:169
FB65  18        CLC                             A:29 X:02 Y:D5 P:25 SP:F9 CYC:196 SL:169
FB66  A9 42     LDA #$42                        A:29 X:02 Y:D5 P:24 SP:F9 CYC:202 SL:169
FB68  60        RTS                             A:42 X:02 Y:D5 P:24 SP:F9 CYC:208 SL:169
F099  23 45    *RLA ($45,X) @ 47 = 0647 = 29    A:42 X:02 Y:D5 P:24 SP:FB CYC:226 SL:169
F09B  EA        NOP                             A:42 X:02 Y:D5 P:24 SP:FB CYC:250 SL:169
F09C  EA        NOP                             A:42 X:02 Y:D5 P:24 SP:FB CYC:256 SL:169
F09D  EA        NOP                             A:42 X:02 Y:D5 P:24 SP:FB CYC:262 SL:169
F09E  EA        NOP                             A:42 X:02 Y:D5 P:24 SP:FB CYC:268 SL:169
F09F  20 69 FB  JSR $FB69                       A:42 X:02 Y:D5 P:24 SP:FB CYC:274 SL:169
FB69  70 0A     BVS $FB75                       A:42 X:02 Y:D5 P:24 SP:F9 CYC:292 SL:169
FB6B  F0 08     BEQ $FB75                       A:42 X:02 Y:D5 P:24 SP:F9 CYC:298 SL:169
FB6D  30 06     BMI $FB75                       A:42 X:02 Y:D5 P:24 SP:F9 CYC:304 SL:169
FB6F  B0 04     BCS $FB75                       A:42 X:02 Y:D5 P:24 SP:F9 CYC:310 SL:169
FB71  C9 42     CMP #$42                        A:42 X:02 Y:D5 P:24 SP:F9 CYC:316 SL:169
FB73  F0 02     BEQ $FB77                       A:42 X:02 Y:D5 P:27 SP:F9 CYC:322 SL:169
FB77  60        RTS                             A:42 X:02 Y:D5 P:27 SP:F9 CYC:331 SL:169
F0A2  AD 47 06  LDA $0647 = 52                  A:42 X:02 Y:D5 P:27 SP:FB CYC:  8 SL:170
F0A5  C9 52     CMP #$52                        A:52 X:02 Y:D5 P:25 SP:FB CYC: 20 SL:170
F0A7  F0 02     BEQ $F0AB                       A:52 X:02 Y:D5 P:27 SP:FB CYC: 26 SL:170
F0AB  C8        INY                             A:52 X:02 Y:D5 P:27 SP:FB CYC: 35 SL:170
F0AC  A9 37     LDA #$37                        A:52 X:02 Y:D6 P:A5 SP:FB CYC: 41 SL:170
F0AE  8D 47 06  STA $0647 = 52                  A:37 X:02 Y:D6 P:25 SP:FB CYC: 47 SL:170
F0B1  20 68 FA  JSR $FA68                       A:37 X:02 Y:D6 P:25 SP:FB CYC: 59 SL:170
FA68  24 01     BIT $01 = FF                    A:37 X:02 Y:D6 P:25 SP:F9 CYC: 77 SL:170
FA6A  38        SEC                             A:37 X:02 Y:D6 P:E5 SP:F9 CYC: 86 SL:170
FA6B  A9 75     LDA #$75                        A:37 X:02 Y:D6 P:E5 SP:F9 CYC: 92 SL:170
FA6D  60        RTS                             A:75 X:02 Y:D6 P:65 SP:F9 CYC: 98 SL:170
F0B4  23 45    *RLA ($45,X) @ 47 = 0647 = 37    A:75 X:02 Y:D6 P:65 SP:FB CYC:116 SL:170
F0B6  EA        NOP                             A:65 X:02 Y:D6 P:64 SP:FB CYC:140 SL:170
F0B7  EA        NOP                             A:65 X:02 Y:D6 P:64 SP:FB CYC:146 SL:170
F0B8  EA        NOP                             A:65 X:02 Y:D6 P:64 SP:FB CYC:152 SL:170
F0B9  EA        NOP                             A:65 X:02 Y:D6 P:64 SP:FB CYC:158 SL:170
F0BA  20 6E FA  JSR $FA6E                       A:65 X:02 Y:D6 P:64 SP:FB CYC:164 SL:170
FA6E  50 76     BVC $FAE6                       A:65 X:02 Y:D6 P:64 SP:F9 CYC:182 SL:170
FA70  F0 74     BEQ $FAE6                       A:65 X:02 Y:D6 P:64 SP:F9 CYC:188 SL:170
FA72  30 72     BMI $FAE6                       A:65 X:02 Y:D6 P:64 SP:F9 CYC:194 SL:170
FA74  B0 70     BCS $FAE6                       A:65 X:02 Y:D6 P:64 SP:F9 CYC:200 SL:170
FA76  C9 65     CMP #$65                        A:65 X:02 Y:D6 P:64 SP:F9 CYC:206 SL:170
FA78  D0 6C     BNE $FAE6                       A:65 X:02 Y:D6 P:67 SP:F9 CYC:212 SL:170
FA7A  60        RTS                             A:65 X:02 Y:D6 P:67 SP:F9 CYC:218 SL:170
F0BD  AD 47 06  LDA $0647 = 6F                  A:65 X:02 Y:D6 P:67 SP:FB CYC:236 SL:170
F0C0  C9 6F     CMP #$6F                        A:6F X:02 Y:D6 P:65 SP:FB CYC:248 SL:170
F0C2  F0 02     BEQ $F0C6                       A:6F X:02 Y:D6 P:67 SP:FB CYC:254 SL:170
F0C6  C8        INY                             A:6F X:02 Y:D6 P:67 SP:FB CYC:263 SL:170
F0C7  A9 A5     LDA #$A5                        A:6F X:02 Y:D7 P:E5 SP:FB CYC:269 SL:170
F0C9  85 47     STA $47 = 47                    A:A5 X:02 Y:D7 P:E5 SP:FB CYC:275 SL:170
F0CB  20 53 FB  JSR $FB53                       A:A5 X:02 Y:D7 P:E5 SP:FB CYC:284 SL:170
FB53  24 01     BIT $01 = FF                    A:A5 X:02 Y:D7 P:E5 SP:F9 CYC:302 SL:170
FB55  18        CLC                             A:A5 X:02 Y:D7 P:E5 SP:F9 CYC:311 SL:170
FB56  A9 B3     LDA #$B3                        A:A5 X:02 Y:D7 P:E4 SP:F9 CYC:317 SL:170
FB58  60        RTS                             A:B3 X:02 Y:D7 P:E4 SP:F9 CYC:323 SL:170
F0CE  27 47    *RLA $47 = A5                    A:B3 X:02 Y:D7 P:E4 SP:FB CYC:  0 SL:171
F0D0  EA        NOP                             A:02 X:02 Y:D7 P:65 SP:FB CYC: 15 SL:171
F0D1  EA        NOP                             A:02 X:02 Y:D7 P:65 SP:FB CYC: 21 SL:171
F0D2  EA        NOP                             A:02 X:02 Y:D7 P:65 SP:FB CYC: 27 SL:171
F0D3  EA        NOP                             A:02 X:02 Y:D7 P:65 SP:FB CYC: 33 SL:171
F0D4  20 59 FB  JSR $FB59                       A:02 X:02 Y:D7 P:65 SP:FB CYC: 39 SL:171
FB59  50 1A     BVC $FB75                       A:02 X:02 Y:D7 P:65 SP:F9 CYC: 57 SL:171
FB5B  90 18     BCC $FB75                       A:02 X:02 Y:D7 P:65 SP:F9 CYC: 63 SL:171
FB5D  30 16     BMI $FB75                       A:02 X:02 Y:D7 P:65 SP:F9 CYC: 69 SL:171
FB5F  C9 02     CMP #$02                        A:02 X:02 Y:D7 P:65 SP:F9 CYC: 75 SL:171
FB61  D0 12     BNE $FB75                       A:02 X:02 Y:D7 P:67 SP:F9 CYC: 81 SL:171
FB63  60        RTS                             A:02 X:02 Y:D7 P:67 SP:F9 CYC: 87 SL:171
F0D7  A5 47     LDA $47 = 4A                    A:02 X:02 Y:D7 P:67 SP:FB CYC:105 SL:171
F0D9  C9 4A     CMP #$4A                        A:4A X:02 Y:D7 P:65 SP:FB CYC:114 SL:171
F0DB  F0 02     BEQ $F0DF                       A:4A X:02 Y:D7 P:67 SP:FB CYC:120 SL:171
F0DF  C8        INY                             A:4A X:02 Y:D7 P:67 SP:FB CYC:129 SL:171
F0E0  A9 29     LDA #$29                        A:4A X:02 Y:D8 P:E5 SP:FB CYC:135 SL:171
F0E2  85 47     STA $47 = 4A                    A:29 X:02 Y:D8 P:65 SP:FB CYC:141 SL:171
F0E4  20 64 FB  JSR $FB64                       A:29 X:02 Y:D8 P:65 SP:FB CYC:150 SL:171
FB64  B8        CLV                             A:29 X:02 Y:D8 P:65 SP:F9 CYC:168 SL:171
FB65  18        CLC                             A:29 X:02 Y:D8 P:25 SP:F9 CYC:174 SL:171
FB66  A9 42     LDA #$42                        A:29 X:02 Y:D8 P:24 SP:F9 CYC:180 SL:171
FB68  60        RTS                             A:42 X:02 Y:D8 P:24 SP:F9 CYC:186 SL:171
F0E7  27 47    *RLA $47 = 29                    A:42 X:02 Y:D8 P:24 SP:FB CYC:204 SL:171
F0E9  EA        NOP                             A:42 X:02 Y:D8 P:24 SP:FB CYC:219 SL:171
F0EA  EA        NOP                             A:42 X:02 Y:D8 P:24 SP:FB CYC:225 SL:171
F0EB  EA        NOP                             A:42 X:02 Y:D8 P:24 SP:FB CYC:231 SL:171
F0EC  EA        NOP                             A:42 X:02 Y:D8 P:24 SP:FB CYC:237 SL:171
F0ED  20 69 FB  JSR $FB69                       A:42 X:02 Y:D8 P:24 SP:FB CYC:243 SL:171
FB69  70 0A     BVS $FB75                       A:42 X:02 Y:D8 P:24 SP:F9 CYC:261 SL:171
FB6B  F0 08     BEQ $FB75                       A:42 X:02 Y:D8 P:24 SP:F9 CYC:267 SL:171
FB6D  30 06     BMI $FB75                       A:42 X:02 Y:D8 P:24 SP:F9 CYC:273 SL:171
FB6F  B0 04     BCS $FB75                       A:42 X:02 Y:D8 P:24 SP:F9 CYC:279 SL:171
FB71  C9 42     CMP #$42                        A:42 X:02 Y:D8 P:24 SP:F9 CYC:285 SL:171
FB73  F0 02     BEQ $FB77                       A:42 X:02 Y:D8 P:27 SP:F9 CYC:291 SL:171
FB77  60        RTS                             A:42 X:02 Y:D8 P:27 SP:F9 CYC:300 SL:171
F0F0  A5 47     LDA $47 = 52                    A:42 X:02 Y:D8 P:27 SP:FB CYC:318 SL:171
F0F2  C9 52     CMP #$52                        A:52 X:02 Y:D8 P:25 SP:FB CYC:327 SL:171
F0F4  F0 02     BEQ $F0F8                       A:52 X:02 Y:D8 P:27 SP:FB CYC:333 SL:171
F0F8  C8        INY                             A:52 X:02 Y:D8 P:27 SP:FB CYC:  1 SL:172
F0F9  A9 37     LDA #$37                        A:52 X:02 Y:D9 P:A5 SP:FB CYC:  7 SL:172
F0FB  85 47     STA $47 = 52                    A:37 X:02 Y:D9 P:25 SP:FB CYC: 13 SL:172
F0FD  20 68 FA  JSR $FA68                       A:37 X:02 Y:D9 P:25 SP:FB CYC: 22 SL:172
FA68  24 01     BIT $01 = FF                    A:37 X:02 Y:D9 P:25 SP:F9 CYC: 40 SL:172
FA6A  38        SEC                             A:37 X:02 Y:D9 P:E5 SP:F9 CYC: 49 SL:172
FA6B  A9 75     LDA #$75                        A:37 X:02 Y:D9 P:E5 SP:F9 CYC: 55 SL:172
FA6D  60        RTS                             A:75 X:02 Y:D9 P:65 SP:F9 CYC: 61 SL:172
F100  27 47    *RLA $47 = 37                    A:75 X:02 Y:D9 P:65 SP:FB CYC: 79 SL:172
F102  EA        NOP                             A:65 X:02 Y:D9 P:64 SP:FB CYC: 94 SL:172
F103  EA        NOP                             A:65 X:02 Y:D9 P:64 SP:FB CYC:100 SL:172
F104  EA        NOP                             A:65 X:02 Y:D9 P:64 SP:FB CYC:106 SL:172
F105  EA        NOP                             A:65 X:02 Y:D9 P:64 SP:FB CYC:112 SL:172
F106  20 6E FA  JSR $FA6E                       A:65 X:02 Y:D9 P:64 SP:FB CYC:118 SL:172
FA6E  50 76     BVC $FAE6                       A:65 X:02 Y:D9 P:64 SP:F9 CYC:136 SL:172
FA70  F0 74     BEQ $FAE6                       A:65 X:02 Y:D9 P:64 SP:F9 CYC:142 SL:172
FA72  30 72     BMI $FAE6                       A:65 X:02 Y:D9 P:64 SP:F9 CYC:148 SL:172
FA74  B0 70     BCS $FAE6                       A:65 X:02 Y:D9 P:64 SP:F9 CYC:154 SL:172
FA76  C9 65     CMP #$65                        A:65 X:02 Y:D9 P:64 SP:F9 CYC:160 SL:172
FA78  D0 6C     BNE $FAE6                       A:65 X:02 Y:D9 P:67 SP:F9 CYC:166 SL:172
FA7A  60        RTS                             A:65 X:02 Y:D9 P:67 SP:F9 CYC:172 SL:172
F109  A5 47     LDA $47 = 6F                    A:65 X:02 Y:D9 P:67 SP:FB CYC:190 SL:172
F10B  C9 6F     CMP #$6F                        A:6F X:02 Y:D9 P:65 SP:FB CYC:199 SL:172
F10D  F0 02     BEQ $F111                       A:6F X:02 Y:D9 P:67 SP:FB CYC:205 SL:172
F111  C8        INY                             A:6F X:02 Y:D9 P:67 SP:FB CYC:214 SL:172
F112  A9 A5     LDA #$A5                        A:6F X:02 Y:DA P:E5 SP:FB CYC:220 SL:172
F114  8D 47 06  STA $0647 = 6F                  A:A5 X:02 Y:DA P:E5 SP:FB CYC:226 SL:172
F117  20 53 FB  JSR $FB53                       A:A5 X:02 Y:DA P:E5 SP:FB CYC:238 SL:172
FB53  24 01     BIT $01 = FF                    A:A5 X:02 Y:DA P:E5 SP:F9 CYC:256 SL:172
FB55  18        CLC                             A:A5 X:02 Y:DA P:E5 SP:F9 CYC:265 SL:172
FB56  A9 B3     LDA #$B3                        A:A5 X:02 Y:DA P:E4 SP:F9 CYC:271 SL:172
FB58  60        RTS                             A:B3 X:02 Y:DA P:E4 SP:F9 CYC:277 SL:172
F11A  2F 47 06 *RLA $0647 = A5                  A:B3 X:02 Y:DA P:E4 SP:FB CYC:295 SL:172
F11D  EA        NOP                             A:02 X:02 Y:DA P:65 SP:FB CYC:313 SL:172
F11E  EA        NOP                             A:02 X:02 Y:DA P:65 SP:FB CYC:319 SL:172
F11F  EA        NOP                             A:02 X:02 Y:DA P:65 SP:FB CYC:325 SL:172
F120  EA        NOP                             A:02 X:02 Y:DA P:65 SP:FB CYC:331 SL:172
F121  20 59 FB  JSR $FB59                       A:02 X:02 Y:DA P:65 SP:FB CYC:337 SL:172
FB59  50 1A     BVC $FB75                       A:02 X:02 Y:DA P:65 SP:F9 CYC: 14 SL:173
FB5B  90 18     BCC $FB75                       A:02 X:02 Y:DA P:65 SP:F9 CYC: 20 SL:173
FB5D  30 16     BMI $FB75                       A:02 X:02 Y:DA P:65 SP:F9 CYC: 26 SL:173
FB5F  C9 02     CMP #$02                        A:02 X:02 Y:DA P:65 SP:F9 CYC: 32 SL:173
FB61  D0 12     BNE $FB75                       A:02 X:02 Y:DA P:67 SP:F9 CYC: 38 SL:173
FB63  60        RTS                             A:02 X:02 Y:DA P:67 SP:F9 CYC: 44 SL:173
F124  AD 47 06  LDA $0647 = 4A                  A:02 X:02 Y:DA P:67 SP:FB CYC: 62 SL:173
F127  C9 4A     CMP #$4A                        A:4A X:02 Y:DA P:65 SP:FB CYC: 74 SL:173
F129  F0 02     BEQ $F12D                       A:4A X:02 Y:DA P:67 SP:FB CYC: 80 SL:173
F12D  C8        INY                             A:4A X:02 Y:DA P:67 SP:FB CYC: 89 SL:173
F12E  A9 29     LDA #$29                        A:4A X:02 Y:DB P:E5 SP:FB CYC: 95 SL:173
F130  8D 47 06  STA $0647 = 4A                  A:29 X:02 Y:DB P:65 SP:FB CYC:101 SL:173
F133  20 64 FB  JSR $FB64                       A:29 X:02 Y:DB P:65 SP:FB CYC:113 SL:173
FB64  B8        CLV                             A:29 X:02 Y:DB P:65 SP:F9 CYC:131 SL:173
FB65  18        CLC                             A:29 X:02 Y:DB P:25 SP:F9 CYC:137 SL:173
FB66  A9 42     LDA #$42                        A:29 X:02 Y:DB P:24 SP:F9 CYC:143 SL:173
FB68  60        RTS                             A:42 X:02 Y:DB P:24 SP:F9 CYC:149 SL:173
F136  2F 47 06 *RLA $0647 = 29                  A:42 X:02 Y:DB P:24 SP:FB CYC:167 SL:173
F139  EA        NOP                             A:42 X:02 Y:DB P:24 SP:FB CYC:185 SL:173
F13A  EA        NOP                             A:42 X:02 Y:DB P:24 SP:FB CYC:191 SL:173
F13B  EA        NOP                             A:42 X:02 Y:DB P:24 SP:FB CYC:197 SL:173
F13C  EA        NOP                             A:42 X:02 Y:DB P:24 SP:FB CYC:203 SL:173
F13D  20 69 FB  JSR $FB69                       A:42 X:02 Y:DB P:24 SP:FB CYC:209 SL:173
FB69  70 0A     BVS $FB75                       A:42 X:02 Y:DB P:24 SP:F9 CYC:227 SL:173
FB6B  F0 08     BEQ $FB75                       A:42 X:02 Y:DB P:24 SP:F9 CYC:233 SL:173
FB6D  30 06     BMI $FB75                       A:42 X:02 Y:DB P:24 SP:F9 CYC:239 SL:173
FB6F  B0 04     BCS $FB75                       A:42 X:02 Y:DB P:24 SP:F9 CYC:245 SL:173
FB71  C9 42     CMP #$42                        A:42 X:02 Y:DB P:24 SP:F9 CYC:251 SL:173
FB73  F0 02     BEQ $FB77                       A:42 X:02 Y:DB P:27 SP:F9 CYC:257 SL:173
FB77  60        RTS                             A:42 X:02 Y:DB P:27 SP:F9 CYC:266 SL:173
F140  AD 47 06  LDA $0647 = 52                  A:42 X:02 Y:DB P:27 SP:FB CYC:284 SL:173
F143  C9 52     CMP #$52                        A:52 X:02 Y:DB P:25 SP:FB CYC:296 SL:173
F145  F0 02     BEQ $F149                       A:52 X:02 Y:DB P:27 SP:FB CYC:302 SL:173
F149  C8        INY                             A:52 X:02 Y:DB P:27 SP:FB CYC:311 SL:173
F14A  A9 37     LDA #$37                        A:52 X:02 Y:DC P:A5 SP:FB CYC:317 SL:173
F14C  8D 47 06  STA $0647 = 52                  A:37 X:02 Y:DC P:25 SP:FB CYC:323 SL:173
F14F  20 68 FA  JSR $FA68                       A:37 X:02 Y:DC P:25 SP:FB CYC:335 SL:173
FA68  24 01     BIT $01 = FF                    A:37 X:02 Y:DC P:25 SP:F9 CYC: 12 SL:174
FA6A  38        SEC                             A:37 X:02 Y:DC P:E5 SP:F9 CYC: 21 SL:174
FA6B  A9 75     LDA #$75                        A:37 X:02 Y:DC P:E5 SP:F9 CYC: 27 SL:174
FA6D  60        RTS                             A:75 X:02 Y:DC P:65 SP:F9 CYC: 33 SL:174
F152  2F 47 06 *RLA $0647 = 37                  A:75 X:02 Y:DC P:65 SP:FB CYC: 51 SL:174
F155  EA        NOP                             A:65 X:02 Y:DC P:64 SP:FB CYC: 69 SL:174
F156  EA        NOP                             A:65 X:02 Y:DC P:64 SP:FB CYC: 75 SL:174
F157  EA        NOP                             A:65 X:02 Y:DC P:64 SP:FB CYC: 81 SL:174
F158  EA        NOP                             A:65 X:02 Y:DC P:64 SP:FB CYC: 87 SL:174
F159  20 6E FA  JSR $FA6E                       A:65 X:02 Y:DC P:64 SP:FB CYC: 93 SL:174
FA6E  50 76     BVC $FAE6                       A:65 X:02 Y:DC P:64 SP:F9 CYC:111 SL:174
FA70  F0 74     BEQ $FAE6                       A:65 X:02 Y:DC P:64 SP:F9 CYC:117 SL:174
FA72  30 72     BMI $FAE6                       A:65 X:02 Y:DC P:64 SP:F9 CYC:123 SL:174
FA74  B0 70     BCS $FAE6                       A:65 X:02 Y:DC P:64 SP:F9 CYC:129 SL:174
FA76  C9 65     CMP #$65                        A:65 X:02 Y:DC P:64 SP:F9 CYC:135 SL:174
FA78  D0 6C     BNE $FAE6                       A:65 X:02 Y:DC P:67 SP:F9 CYC:141 SL:174
FA7A  60        RTS                             A:65 X:02 Y:DC P:67 SP:F9 CYC:147 SL:174
F15C  AD 47 06  LDA $0647 = 6F                  A:65 X:02 Y:DC P:67 SP:FB CYC:165 SL:174
F15F  C9 6F     CMP #$6F                        A:6F X:02 Y:DC P:65 SP:FB CYC:177 SL:174
F161  F0 02     BEQ $F165                       A:6F X:02 Y:DC P:67 SP:FB CYC:183 SL:174
F165  A9 A5     LDA #$A5                        A:6F X:02 Y:DC P:67 SP:FB CYC:192 SL:174
F167  8D 47 06  STA $0647 = 6F                  A:A5 X:02 Y:DC P:E5 SP:FB CYC:198 SL:174
F16A  A9 48     LDA #$48                        A:A5 X:02 Y:DC P:E5 SP:FB CYC:210 SL:174
F16C  85 45     STA $45 = 48                    A:48 X:02 Y:DC P:65 SP:FB CYC:216 SL:174
F16E  A9 05     LDA #$05                        A:48 X:02 Y:DC P:65 SP:FB CYC:225 SL:174
F170  85 46     STA $46 = 05                    A:05 X:02 Y:DC P:65 SP:FB CYC:231 SL:174
F172  A0 FF     LDY #$FF                        A:05 X:02 Y:DC P:65 SP:FB CYC:240 SL:174
F174  20 53 FB  JSR $FB53                       A:05 X:02 Y:FF P:E5 SP:FB CYC:246 SL:174
FB53  24 01     BIT $01 = FF                    A:05 X:02 Y:FF P:E5 SP:F9 CYC:264 SL:174
FB55  18        CLC                             A:05 X:02 Y:FF P:E5 SP:F9 CYC:273 SL:174
FB56  A9 B3     LDA #$B3                        A:05 X:02 Y:FF P:E4 SP:F9 CYC:279 SL:174
FB58  60        RTS                             A:B3 X:02 Y:FF P:E4 SP:F9 CYC:285 SL:174
F177  33 45    *RLA ($45),Y = 0548 @ 0647 = A5  A:B3 X:02 Y:FF P:E4 SP:FB CYC:303 SL:174
F179  EA        NOP                             A:02 X:02 Y:FF P:65 SP:FB CYC:327 SL:174
F17A  EA        NOP                             A:02 X:02 Y:FF P:65 SP:FB CYC:333 SL:174
F17B  08        PHP                             A:02 X:02 Y:FF P:65 SP:FB CYC:339 SL:174
F17C  48        PHA                             A:02 X:02 Y:FF P:65 SP:FA CYC:  7 SL:175
F17D  A0 DD     LDY #$DD                        A:02 X:02 Y:FF P:65 SP:F9 CYC: 16 SL:175
F17F  68        PLA                             A:02 X:02 Y:DD P:E5 SP:F9 CYC: 22 SL:175
F180  28        PLP                             A:02 X:02 Y:DD P:65 SP:FA CYC: 34 SL:175
F181  20 59 FB  JSR $FB59                       A:02 X:02 Y:DD P:65 SP:FB CYC: 46 SL:175
FB59  50 1A     BVC $FB75                       A:02 X:02 Y:DD P:65 SP:F9 CYC: 64 SL:175
FB5B  90 18     BCC $FB75                       A:02 X:02 Y:DD P:65 SP:F9 CYC: 70 SL:175
FB5D  30 16     BMI $FB75                       A:02 X:02 Y:DD P:65 SP:F9 CYC: 76 SL:175
FB5F  C9 02     CMP #$02                        A:02 X:02 Y:DD P:65 SP:F9 CYC: 82 SL:175
FB61  D0 12     BNE $FB75                       A:02 X:02 Y:DD P:67 SP:F9 CYC: 88 SL:175
FB63  60        RTS                             A:02 X:02 Y:DD P:67 SP:F9 CYC: 94 SL:175
F184  AD 47 06  LDA $0647 = 4A                  A:02 X:02 Y:DD P:67 SP:FB CYC:112 SL:175
F187  C9 4A     CMP #$4A                        A:4A X:02 Y:DD P:65 SP:FB CYC:124 SL:175
F189  F0 02     BEQ $F18D                       A:4A X:02 Y:DD P:67 SP:FB CYC:130 SL:175
F18D  A0 FF     LDY #$FF                        A:4A X:02 Y:DD P:67 SP:FB CYC:139 SL:175
F18F  A9 29     LDA #$29                        A:4A X:02 Y:FF P:E5 SP:FB CYC:145 SL:175
F191  8D 47 06  STA $0647 = 4A                  A:29 X:02 Y:FF P:65 SP:FB CYC:151 SL:175
F194  20 64 FB  JSR $FB64                       A:29 X:02 Y:FF P:65 SP:FB CYC:163 SL:175
FB64  B8        CLV                             A:29 X:02 Y:FF P:65 SP:F9 CYC:181 SL:175
FB65  18        CLC                             A:29 X:02 Y:FF P:25 SP:F9 CYC:187 SL:175
FB66  A9 42     LDA #$42                        A:29 X:02 Y:FF P:24 SP:F9 CYC:193 SL:175
FB68  60        RTS                             A:42 X:02 Y:FF P:24 SP:F9 CYC:199 SL:175
F197  33 45    *RLA ($45),Y = 0548 @ 0647 = 29  A:42 X:02 Y:FF P:24 SP:FB CYC:217 SL:175
F199  EA        NOP                             A:42 X:02 Y:FF P:24 SP:FB CYC:241 SL:175
F19A  EA        NOP                             A:42 X:02 Y:FF P:24 SP:FB CYC:247 SL:175
F19B  08        PHP                             A:42 X:02 Y:FF P:24 SP:FB CYC:253 SL:175
F19C  48        PHA                             A:42 X:02 Y:FF P:24 SP:FA CYC:262 SL:175
F19D  A0 DE     LDY #$DE                        A:42 X:02 Y:FF P:24 SP:F9 CYC:271 SL:175
F19F  68        PLA                             A:42 X:02 Y:DE P:A4 SP:F9 CYC:277 SL:175
F1A0  28        PLP                             A:42 X:02 Y:DE P:24 SP:FA CYC:289 SL:175
F1A1  20 69 FB  JSR $FB69                       A:42 X:02 Y:DE P:24 SP:FB CYC:301 SL:175
FB69  70 0A     BVS $FB75                       A:42 X:02 Y:DE P:24 SP:F9 CYC:319 SL:175
FB6B  F0 08     BEQ $FB75                       A:42 X:02 Y:DE P:24 SP:F9 CYC:325 SL:175
FB6D  30 06     BMI $FB75                       A:42 X:02 Y:DE P:24 SP:F9 CYC:331 SL:175
FB6F  B0 04     BCS $FB75                       A:42 X:02 Y:DE P:24 SP:F9 CYC:337 SL:175
FB71  C9 42     CMP #$42                        A:42 X:02 Y:DE P:24 SP:F9 CYC:  2 SL:176
FB73  F0 02     BEQ $FB77                       A:42 X:02 Y:DE P:27 SP:F9 CYC:  8 SL:176
FB77  60        RTS                             A:42 X:02 Y:DE P:27 SP:F9 CYC: 17 SL:176
F1A4  AD 47 06  LDA $0647 = 52                  A:42 X:02 Y:DE P:27 SP:FB CYC: 35 SL:176
F1A7  C9 52     CMP #$52                        A:52 X:02 Y:DE P:25 SP:FB CYC: 47 SL:176
F1A9  F0 02     BEQ $F1AD                       A:52 X:02 Y:DE P:27 SP:FB CYC: 53 SL:176
F1AD  A0 FF     LDY #$FF                        A:52 X:02 Y:DE P:27 SP:FB CYC: 62 SL:176
F1AF  A9 37     LDA #$37                        A:52 X:02 Y:FF P:A5 SP:FB CYC: 68 SL:176
F1B1  8D 47 06  STA $0647 = 52                  A:37 X:02 Y:FF P:25 SP:FB CYC: 74 SL:176
F1B4  20 68 FA  JSR $FA68                       A:37 X:02 Y:FF P:25 SP:FB CYC: 86 SL:176
FA68  24 01     BIT $01 = FF                    A:37 X:02 Y:FF P:25 SP:F9 CYC:104 SL:176
FA6A  38        SEC                             A:37 X:02 Y:FF P:E5 SP:F9 CYC:113 SL:176
FA6B  A9 75     LDA #$75                        A:37 X:02 Y:FF P:E5 SP:F9 CYC:119 SL:176
FA6D  60        RTS                             A:75 X:02 Y:FF P:65 SP:F9 CYC:125 SL:176
F1B7  33 45    *RLA ($45),Y = 0548 @ 0647 = 37  A:75 X:02 Y:FF P:65 SP:FB CYC:143 SL:176
F1B9  EA        NOP                             A:65 X:02 Y:FF P:64 SP:FB CYC:167 SL:176
F1BA  EA        NOP                             A:65 X:02 Y:FF P:64 SP:FB CYC:173 SL:176
F1BB  08        PHP                             A:65 X:02 Y:FF P:64 SP:FB CYC:179 SL:176
F1BC  48        PHA                             A:65 X:02 Y:FF P:64 SP:FA CYC:188 SL:176
F1BD  A0 DF     LDY #$DF                        A:65 X:02 Y:FF P:64 SP:F9 CYC:197 SL:176
F1BF  68        PLA                             A:65 X:02 Y:DF P:E4 SP:F9 CYC:203 SL:176
F1C0  28        PLP                             A:65 X:02 Y:DF P:64 SP:FA CYC:215 SL:176
F1C1  20 6E FA  JSR $FA6E                       A:65 X:02 Y:DF P:64 SP:FB CYC:227 SL:176
FA6E  50 76     BVC $FAE6                       A:65 X:02 Y:DF P:64 SP:F9 CYC:245 SL:176
FA70  F0 74     BEQ $FAE6                       A:65 X:02 Y:DF P:64 SP:F9 CYC:251 SL:176
FA72  30 72     BMI $FAE6                       A:65 X:02 Y:DF P:64 SP:F9 CYC:257 SL:176
FA74  B0 70     BCS $FAE6                       A:65 X:02 Y:DF P:64 SP:F9 CYC:263 SL:176
FA76  C9 65     CMP #$65                        A:65 X:02 Y:DF P:64 SP:F9 CYC:269 SL:176
FA78  D0 6C     BNE $FAE6                       A:65 X:02 Y:DF P:67 SP:F9 CYC:275 SL:176
FA7A  60        RTS                             A:65 X:02 Y:DF P:67 SP:F9 CYC:281 SL:176
F1C4  AD 47 06  LDA $0647 = 6F                  A:65 X:02 Y:DF P:67 SP:FB CYC:299 SL:176
F1C7  C9 6F     CMP #$6F                        A:6F X:02 Y:DF P:65 SP:FB CYC:311 SL:176
F1C9  F0 02     BEQ $F1CD                       A:6F X:02 Y:DF P:67 SP:FB CYC:317 SL:176
F1CD  A0 E0     LDY #$E0                        A:6F X:02 Y:DF P:67 SP:FB CYC:326 SL:176
F1CF  A2 FF     LDX #$FF                        A:6F X:02 Y:E0 P:E5 SP:FB CYC:332 SL:176
F1D1  A9 A5     LDA #$A5                        A:6F X:FF Y:E0 P:E5 SP:FB CYC:338 SL:176
F1D3  85 47     STA $47 = 6F                    A:A5 X:FF Y:E0 P:E5 SP:FB CYC:  3 SL:177
F1D5  20 53 FB  JSR $FB53                       A:A5 X:FF Y:E0 P:E5 SP:FB CYC: 12 SL:177
FB53  24 01     BIT $01 = FF                    A:A5 X:FF Y:E0 P:E5 SP:F9 CYC: 30 SL:177
FB55  18        CLC                             A:A5 X:FF Y:E0 P:E5 SP:F9 CYC: 39 SL:177
FB56  A9 B3     LDA #$B3                        A:A5 X:FF Y:E0 P:E4 SP:F9 CYC: 45 SL:177
FB58  60        RTS                             A:B3 X:FF Y:E0 P:E4 SP:F9 CYC: 51 SL:177
F1D8  37 48    *RLA $48,X @ 47 = A5             A:B3 X:FF Y:E0 P:E4 SP:FB CYC: 69 SL:177
F1DA  EA        NOP                             A:02 X:FF Y:E0 P:65 SP:FB CYC: 87 SL:177
F1DB  EA        NOP                             A:02 X:FF Y:E0 P:65 SP:FB CYC: 93 SL:177
F1DC  EA        NOP                             A:02 X:FF Y:E0 P:65 SP:FB CYC: 99 SL:177
F1DD  EA        NOP                             A:02 X:FF Y:E0 P:65 SP:FB CYC:105 SL:177
F1DE  20 59 FB  JSR $FB59                       A:02 X:FF Y:E0 P:65 SP:FB CYC:111 SL:177
FB59  50 1A     BVC $FB75                       A:02 X:FF Y:E0 P:65 SP:F9 CYC:129 SL:177
FB5B  90 18     BCC $FB75                       A:02 X:FF Y:E0 P:65 SP:F9 CYC:135 SL:177
FB5D  30 16     BMI $FB75                       A:02 X:FF Y:E0 P:65 SP:F9 CYC:141 SL:177
FB5F  C9 02     CMP #$02                        A:02 X:FF Y:E0 P:65 SP:F9 CYC:147 SL:177
FB61  D0 12     BNE $FB75                       A:02 X:FF Y:E0 P:67 SP:F9 CYC:153 SL:177
FB63  60        RTS                             A:02 X:FF Y:E0 P:67 SP:F9 CYC:159 SL:177
F1E1  A5 47     LDA $47 = 4A                    A:02 X:FF Y:E0 P:67 SP:FB CYC:177 SL:177
F1E3  C9 4A     CMP #$4A                        A:4A X:FF Y:E0 P:65 SP:FB CYC:186 SL:177
F1E5  F0 02     BEQ $F1E9                       A:4A X:FF Y:E0 P:67 SP:FB CYC:192 SL:177
F1E9  C8        INY                             A:4A X:FF Y:E0 P:67 SP:FB CYC:201 SL:177
F1EA  A9 29     LDA #$29                        A:4A X:FF Y:E1 P:E5 SP:FB CYC:207 SL:177
F1EC  85 47     STA $47 = 4A                    A:29 X:FF Y:E1 P:65 SP:FB CYC:213 SL:177
F1EE  20 64 FB  JSR $FB64                       A:29 X:FF Y:E1 P:65 SP:FB CYC:222 SL:177
FB64  B8        CLV                             A:29 X:FF Y:E1 P:65 SP:F9 CYC:240 SL:177
FB65  18        CLC                             A:29 X:FF Y:E1 P:25 SP:F9 CYC:246 SL:177
FB66  A9 42     LDA #$42                        A:29 X:FF Y:E1 P:24 SP:F9 CYC:252 SL:177
FB68  60        RTS                             A:42 X:FF Y:E1 P:24 SP:F9 CYC:258 SL:177
F1F1  37 48    *RLA $48,X @ 47 = 29             A:42 X:FF Y:E1 P:24 SP:FB CYC:276 SL:177
F1F3  EA        NOP                             A:42 X:FF Y:E1 P:24 SP:FB CYC:294 SL:177
F1F4  EA        NOP                             A:42 X:FF Y:E1 P:24 SP:FB CYC:300 SL:177
F1F5  EA        NOP                             A:42 X:FF Y:E1 P:24 SP:FB CYC:306 SL:177
F1F6  EA        NOP                             A:42 X:FF Y:E1 P:24 SP:FB CYC:312 SL:177
F1F7  20 69 FB  JSR $FB69                       A:42 X:FF Y:E1 P:24 SP:FB CYC:318 SL:177
FB69  70 0A     BVS $FB75                       A:42 X:FF Y:E1 P:24 SP:F9 CYC:336 SL:177
FB6B  F0 08     BEQ $FB75                       A:42 X:FF Y:E1 P:24 SP:F9 CYC:  1 SL:178
FB6D  30 06     BMI $FB75                       A:42 X:FF Y:E1 P:24 SP:F9 CYC:  7 SL:178
FB6F  B0 04     BCS $FB75                       A:42 X:FF Y:E1 P:24 SP:F9 CYC: 13 SL:178
FB71  C9 42     CMP #$42                        A:42 X:FF Y:E1 P:24 SP:F9 CYC: 19 SL:178
FB73  F0 02     BEQ $FB77                       A:42 X:FF Y:E1 P:27 SP:F9 CYC: 25 SL:178
FB77  60        RTS                             A:42 X:FF Y:E1 P:27 SP:F9 CYC: 34 SL:178
F1FA  A5 47     LDA $47 = 52                    A:42 X:FF Y:E1 P:27 SP:FB CYC: 52 SL:178
F1FC  C9 52     CMP #$52                        A:52 X:FF Y:E1 P:25 SP:FB CYC: 61 SL:178
F1FE  F0 02     BEQ $F202                       A:52 X:FF Y:E1 P:27 SP:FB CYC: 67 SL:178
F202  C8        INY                             A:52 X:FF Y:E1 P:27 SP:FB CYC: 76 SL:178
F203  A9 37     LDA #$37                        A:52 X:FF Y:E2 P:A5 SP:FB CYC: 82 SL:178
F205  85 47     STA $47 = 52                    A:37 X:FF Y:E2 P:25 SP:FB CYC: 88 SL:178
F207  20 68 FA  JSR $FA68                       A:37 X:FF Y:E2 P:25 SP:FB CYC: 97 SL:178
FA68  24 01     BIT $01 = FF                    A:37 X:FF Y:E2 P:25 SP:F9 CYC:115 SL:178
FA6A  38        SEC                             A:37 X:FF Y:E2 P:E5 SP:F9 CYC:124 SL:178
FA6B  A9 75     LDA #$75                        A:37 X:FF Y:E2 P:E5 SP:F9 CYC:130 SL:178
FA6D  60        RTS                             A:75 X:FF Y:E2 P:65 SP:F9 CYC:136 SL:178
F20A  37 48    *RLA $48,X @ 47 = 37             A:75 X:FF Y:E2 P:65 SP:FB CYC:154 SL:178
F20C  EA        NOP                             A:65 X:FF Y:E2 P:64 SP:FB CYC:172 SL:178
F20D  EA        NOP                             A:65 X:FF Y:E2 P:64 SP:FB CYC:178 SL:178
F20E  EA        NOP                             A:65 X:FF Y:E2 P:64 SP:FB CYC:184 SL:178
F20F  EA        NOP                             A:65 X:FF Y:E2 P:64 SP:FB CYC:190 SL:178
F210  20 6E FA  JSR $FA6E                       A:65 X:FF Y:E2 P:64 SP:FB CYC:196 SL:178
FA6E  50 76     BVC $FAE6                       A:65 X:FF Y:E2 P:64 SP:F9 CYC:214 SL:178
FA70  F0 74     BEQ $FAE6                       A:65 X:FF Y:E2 P:64 SP:F9 CYC:220 SL:178
FA72  30 72     BMI $FAE6                       A:65 X:FF Y:E2 P:64 SP:F9 CYC:226 SL:178
FA74  B0 70     BCS $FAE6                       A:65 X:FF Y:E2 P:64 SP:F9 CYC:232 SL:178
FA76  C9 65     CMP #$65                        A:65 X:FF Y:E2 P:64 SP:F9 CYC:238 SL:178
FA78  D0 6C     BNE $FAE6                       A:65 X:FF Y:E2 P:67 SP:F9 CYC:244 SL:178
FA7A  60        RTS                             A:65 X:FF Y:E2 P:67 SP:F9 CYC:250 SL:178
F213  A5 47     LDA $47 = 6F                    A:65 X:FF Y:E2 P:67 SP:FB CYC:268 SL:178
F215  C9 6F     CMP #$6F                        A:6F X:FF Y:E2 P:65 SP:FB CYC:277 SL:178
F217  F0 02     BEQ $F21B                       A:6F X:FF Y:E2 P:67 SP:FB CYC:283 SL:178
F21B  A9 A5     LDA #$A5                        A:6F X:FF Y:E2 P:67 SP:FB CYC:292 SL:178
F21D  8D 47 06  STA $0647 = 6F                  A:A5 X:FF Y:E2 P:E5 SP:FB CYC:298 SL:178
F220  A0 FF     LDY #$FF                        A:A5 X:FF Y:E2 P:E5 SP:FB CYC:310 SL:178
F222  20 53 FB  JSR $FB53                       A:A5 X:FF Y:FF P:E5 SP:FB CYC:316 SL:178
FB53  24 01     BIT $01 = FF                    A:A5 X:FF Y:FF P:E5 SP:F9 CYC:334 SL:178
FB55  18        CLC                             A:A5 X:FF Y:FF P:E5 SP:F9 CYC:  2 SL:179
FB56  A9 B3     LDA #$B3                        A:A5 X:FF Y:FF P:E4 SP:F9 CYC:  8 SL:179
FB58  60        RTS                             A:B3 X:FF Y:FF P:E4 SP:F9 CYC: 14 SL:179
F225  3B 48 05 *RLA $0548,Y @ 0647 = A5         A:B3 X:FF Y:FF P:E4 SP:FB CYC: 32 SL:179
F228  EA        NOP                             A:02 X:FF Y:FF P:65 SP:FB CYC: 53 SL:179
F229  EA        NOP                             A:02 X:FF Y:FF P:65 SP:FB CYC: 59 SL:179
F22A  08        PHP                             A:02 X:FF Y:FF P:65 SP:FB CYC: 65 SL:179
F22B  48        PHA                             A:02 X:FF Y:FF P:65 SP:FA CYC: 74 SL:179
F22C  A0 E3     LDY #$E3                        A:02 X:FF Y:FF P:65 SP:F9 CYC: 83 SL:179
F22E  68        PLA                             A:02 X:FF Y:E3 P:E5 SP:F9 CYC: 89 SL:179
F22F  28        PLP                             A:02 X:FF Y:E3 P:65 SP:FA CYC:101 SL:179
F230  20 59 FB  JSR $FB59                       A:02 X:FF Y:E3 P:65 SP:FB CYC:113 SL:179
FB59  50 1A     BVC $FB75                       A:02 X:FF Y:E3 P:65 SP:F9 CYC:131 SL:179
FB5B  90 18     BCC $FB75                       A:02 X:FF Y:E3 P:65 SP:F9 CYC:137 SL:179
FB5D  30 16     BMI $FB75                       A:02 X:FF Y:E3 P:65 SP:F9 CYC:143 SL:179
FB5F  C9 02     CMP #$02                        A:02 X:FF Y:E3 P:65 SP:F9 CYC:149 SL:179
FB61  D0 12     BNE $FB75                       A:02 X:FF Y:E3 P:67 SP:F9 CYC:155 SL:179
FB63  60        RTS                             A:02 X:FF Y:E3 P:67 SP:F9 CYC:161 SL:179
F233  AD 47 06  LDA $0647 = 4A                  A:02 X:FF Y:E3 P:67 SP:FB CYC:179 SL:179
F236  C9 4A     CMP #$4A                        A:4A X:FF Y:E3 P:65 SP:FB CYC:191 SL:179
F238  F0 02     BEQ $F23C                       A:4A X:FF Y:E3 P:67 SP:FB CYC:197 SL:179
F23C  A0 FF     LDY #$FF                        A:4A X:FF Y:E3 P:67 SP:FB CYC:206 SL:179
F23E  A9 29     LDA #$29                        A:4A X:FF Y:FF P:E5 SP:FB CYC:212 SL:179
F240  8D 47 06  STA $0647 = 4A                  A:29 X:FF Y:FF P:65 SP:FB CYC:218 SL:179
F243  20 64 FB  JSR $FB64                       A:29 X:FF Y:FF P:65 SP:FB CYC:230 SL:179
FB64  B8        CLV                             A:29 X:FF Y:FF P:65 SP:F9 CYC:248 SL:179
FB65  18        CLC                             A:29 X:FF Y:FF P:25 SP:F9 CYC:254 SL:179
FB66  A9 42     LDA #$42                        A:29 X:FF Y:FF P:24 SP:F9 CYC:260 SL:179
FB68  60        RTS                             A:42 X:FF Y:FF P:24 SP:F9 CYC:266 SL:179
F246  3B 48 05 *RLA $0548,Y @ 0647 = 29         A:42 X:FF Y:FF P:24 SP:FB CYC:284 SL:179
F249  EA        NOP                             A:42 X:FF Y:FF P:24 SP:FB CYC:305 SL:179
F24A  EA        NOP                             A:42 X:FF Y:FF P:24 SP:FB CYC:311 SL:179
F24B  08        PHP                             A:42 X:FF Y:FF P:24 SP:FB CYC:317 SL:179
F24C  48        PHA                             A:42 X:FF Y:FF P:24 SP:FA CYC:326 SL:179
F24D  A0 E4     LDY #$E4                        A:42 X:FF Y:FF P:24 SP:F9 CYC:335 SL:179
F24F  68        PLA                             A:42 X:FF Y:E4 P:A4 SP:F9 CYC:  0 SL:180
F250  28        PLP                             A:42 X:FF Y:E4 P:24 SP:FA CYC: 12 SL:180
F251  20 69 FB  JSR $FB69                       A:42 X:FF Y:E4 P:24 SP:FB CYC: 24 SL:180
FB69  70 0A     BVS $FB75                       A:42 X:FF Y:E4 P:24 SP:F9 CYC: 42 SL:180
FB6B  F0 08     BEQ $FB75                       A:42 X:FF Y:E4 P:24 SP:F9 CYC: 48 SL:180
FB6D  30 06     BMI $FB75                       A:42 X:FF Y:E4 P:24 SP:F9 CYC: 54 SL:180
FB6F  B0 04     BCS $FB75                       A:42 X:FF Y:E4 P:24 SP:F9 CYC: 60 SL:180
FB71  C9 42     CMP #$42                        A:42 X:FF Y:E4 P:24 SP:F9 CYC: 66 SL:180
FB73  F0 02     BEQ $FB77                       A:42 X:FF Y:E4 P:27 SP:F9 CYC: 72 SL:180
FB77  60        RTS                             A:42 X:FF Y:E4 P:27 SP:F9 CYC: 81 SL:180
F254  AD 47 06  LDA $0647 = 52                  A:42 X:FF Y:E4 P:27 SP:FB CYC: 99 SL:180
F257  C9 52     CMP #$52                        A:52 X:FF Y:E4 P:25 SP:FB CYC:111 SL:180
F259  F0 02     BEQ $F25D                       A:52 X:FF Y:E4 P:27 SP:FB CYC:117 SL:180
F25D  A0 FF     LDY #$FF                        A:52 X:FF Y:E4 P:27 SP:FB CYC:126 SL:180
F25F  A9 37     LDA #$37                        A:52 X:FF Y:FF P:A5 SP:FB CYC:132 SL:180
F261  8D 47 06  STA $0647 = 52                  A:37 X:FF Y:FF P:25 SP:FB CYC:138 SL:180
F264  20 68 FA  JSR $FA68                       A:37 X:FF Y:FF P:25 SP:FB CYC:150 SL:180
FA68  24 01     BIT $01 = FF                    A:37 X:FF Y:FF P:25 SP:F9 CYC:168 SL:180
FA6A  38        SEC                             A:37 X:FF Y:FF P:E5 SP:F9 CYC:177 SL:180
FA6B  A9 75     LDA #$75                        A:37 X:FF Y:FF P:E5 SP:F9 CYC:183 SL:180
FA6D  60        RTS                             A:75 X:FF Y:FF P:65 SP:F9 CYC:189 SL:180
F267  3B 48 05 *RLA $0548,Y @ 0647 = 37         A:75 X:FF Y:FF P:65 SP:FB CYC:207 SL:180
F26A  EA        NOP                             A:65 X:FF Y:FF P:64 SP:FB CYC:228 SL:180
F26B  EA        NOP                             A:65 X:FF Y:FF P:64 SP:FB CYC:234 SL:180
F26C  08        PHP                             A:65 X:FF Y:FF P:64 SP:FB CYC:240 SL:180
F26D  48        PHA                             A:65 X:FF Y:FF P:64 SP:FA CYC:249 SL:180
F26E  A0 E5     LDY #$E5                        A:65 X:FF Y:FF P:64 SP:F9 CYC:258 SL:180
F270  68        PLA                             A:65 X:FF Y:E5 P:E4 SP:F9 CYC:264 SL:180
F271  28        PLP                             A:65 X:FF Y:E5 P:64 SP:FA CYC:276 SL:180
F272  20 6E FA  JSR $FA6E                       A:65 X:FF Y:E5 P:64 SP:FB CYC:288 SL:180
FA6E  50 76     BVC $FAE6                       A:65 X:FF Y:E5 P:64 SP:F9 CYC:306 SL:180
FA70  F0 74     BEQ $FAE6                       A:65 X:FF Y:E5 P:64 SP:F9 CYC:312 SL:180
FA72  30 72     BMI $FAE6                       A:65 X:FF Y:E5 P:64 SP:F9 CYC:318 SL:180
FA74  B0 70     BCS $FAE6                       A:65 X:FF Y:E5 P:64 SP:F9 CYC:324 SL:180
FA76  C9 65     CMP #$65                        A:65 X:FF Y:E5 P:64 SP:F9 CYC:330 SL:180
FA78  D0 6C     BNE $FAE6                       A:65 X:FF Y:E5 P:67 SP:F9 CYC:336 SL:180
FA7A  60        RTS                             A:65 X:FF Y:E5 P:67 SP:F9 CYC:  1 SL:181
F275  AD 47 06  LDA $0647 = 6F                  A:65 X:FF Y:E5 P:67 SP:FB CYC: 19 SL:181
F278  C9 6F     CMP #$6F                        A:6F X:FF Y:E5 P:65 SP:FB CYC: 31 SL:181
F27A  F0 02     BEQ $F27E                       A:6F X:FF Y:E5 P:67 SP:FB CYC: 37 SL:181
F27E  A0 E6     LDY #$E6                        A:6F X:FF Y:E5 P:67 SP:FB CYC: 46 SL:181
F280  A2 FF     LDX #$FF                        A:6F X:FF Y:E6 P:E5 SP:FB CYC: 52 SL:181
F282  A9 A5     LDA #$A5                        A:6F X:FF Y:E6 P:E5 SP:FB CYC: 58 SL:181
F284  8D 47 06  STA $0647 = 6F                  A:A5 X:FF Y:E6 P:E5 SP:FB CYC: 64 SL:181
F287  20 53 FB  JSR $FB53                       A:A5 X:FF Y:E6 P:E5 SP:FB CYC: 76 SL:181
FB53  24 01     BIT $01 = FF                    A:A5 X:FF Y:E6 P:E5 SP:F9 CYC: 94 SL:181
FB55  18        CLC                             A:A5 X:FF Y:E6 P:E5 SP:F9 CYC:103 SL:181
FB56  A9 B3     LDA #$B3                        A:A5 X:FF Y:E6 P:E4 SP:F9 CYC:109 SL:181
FB58  60        RTS                             A:B3 X:FF Y:E6 P:E4 SP:F9 CYC:115 SL:181
F28A  3F 48 05 *RLA $0548,X @ 0647 = A5         A:B3 X:FF Y:E6 P:E4 SP:FB CYC:133 SL:181
F28D  EA        NOP                             A:02 X:FF Y:E6 P:65 SP:FB CYC:154 SL:181
F28E  EA        NOP                             A:02 X:FF Y:E6 P:65 SP:FB CYC:160 SL:181
F28F  EA        NOP                             A:02 X:FF Y:E6 P:65 SP:FB CYC:166 SL:181
F290  EA        NOP                             A:02 X:FF Y:E6 P:65 SP:FB CYC:172 SL:181
F291  20 59 FB  JSR $FB59                       A:02 X:FF Y:E6 P:65 SP:FB CYC:178 SL:181
FB59  50 1A     BVC $FB75                       A:02 X:FF Y:E6 P:65 SP:F9 CYC:196 SL:181
FB5B  90 18     BCC $FB75                       A:02 X:FF Y:E6 P:65 SP:F9 CYC:202 SL:181
FB5D  30 16     BMI $FB75                       A:02 X:FF Y:E6 P:65 SP:F9 CYC:208 SL:181
FB5F  C9 02     CMP #$02                        A:02 X:FF Y:E6 P:65 SP:F9 CYC:214 SL:181
FB61  D0 12     BNE $FB75                       A:02 X:FF Y:E6 P:67 SP:F9 CYC:220 SL:181
FB63  60        RTS                             A:02 X:FF Y:E6 P:67 SP:F9 CYC:226 SL:181
F294  AD 47 06  LDA $0647 = 4A                  A:02 X:FF Y:E6 P:67 SP:FB CYC:244 SL:181
F297  C9 4A     CMP #$4A                        A:4A X:FF Y:E6 P:65 SP:FB CYC:256 SL:181
F299  F0 02     BEQ $F29D                       A:4A X:FF Y:E6 P:67 SP:FB CYC:262 SL:181
F29D  C8        INY                             A:4A X:FF Y:E6 P:67 SP:FB CYC:271 SL:181
F29E  A9 29     LDA #$29                        A:4A X:FF Y:E7 P:E5 SP:FB CYC:277 SL:181
F2A0  8D 47 06  STA $0647 = 4A                  A:29 X:FF Y:E7 P:65 SP:FB CYC:283 SL:181
F2A3  20 64 FB  JSR $FB64                       A:29 X:FF Y:E7 P:65 SP:FB CYC:295 SL:181
FB64  B8        CLV                             A:29 X:FF Y:E7 P:65 SP:F9 CYC:313 SL:181
FB65  18        CLC                             A:29 X:FF Y:E7 P:25 SP:F9 CYC:319 SL:181
FB66  A9 42     LDA #$42                        A:29 X:FF Y:E7 P:24 SP:F9 CYC:325 SL:181
FB68  60        RTS                             A:42 X:FF Y:E7 P:24 SP:F9 CYC:331 SL:181
F2A6  3F 48 05 *RLA $0548,X @ 0647 = 29         A:42 X:FF Y:E7 P:24 SP:FB CYC:  8 SL:182
F2A9  EA        NOP                             A:42 X:FF Y:E7 P:24 SP:FB CYC: 29 SL:182
F2AA  EA        NOP                             A:42 X:FF Y:E7 P:24 SP:FB CYC: 35 SL:182
F2AB  EA        NOP                             A:42 X:FF Y:E7 P:24 SP:FB CYC: 41 SL:182
F2AC  EA        NOP                             A:42 X:FF Y:E7 P:24 SP:FB CYC: 47 SL:182
F2AD  20 69 FB  JSR $FB69                       A:42 X:FF Y:E7 P:24 SP:FB CYC: 53 SL:182
FB69  70 0A     BVS $FB75                       A:42 X:FF Y:E7 P:24 SP:F9 CYC: 71 SL:182
FB6B  F0 08     BEQ $FB75                       A:42 X:FF Y:E7 P:24 SP:F9 CYC: 77 SL:182
FB6D  30 06     BMI $FB75                       A:42 X:FF Y:E7 P:24 SP:F9 CYC: 83 SL:182
FB6F  B0 04     BCS $FB75                       A:42 X:FF Y:E7 P:24 SP:F9 CYC: 89 SL:182
FB71  C9 42     CMP #$42                        A:42 X:FF Y:E7 P:24 SP:F9 CYC: 95 SL:182
FB73  F0 02     BEQ $FB77                       A:42 X:FF Y:E7 P:27 SP:F9 CYC:101 SL:182
FB77  60        RTS                             A:42 X:FF Y:E7 P:27 SP:F9 CYC:110 SL:182
F2B0  AD 47 06  LDA $0647 = 52                  A:42 X:FF Y:E7 P:27 SP:FB CYC:128 SL:182
F2B3  C9 52     CMP #$52                        A:52 X:FF Y:E7 P:25 SP:FB CYC:140 SL:182
F2B5  F0 02     BEQ $F2B9                       A:52 X:FF Y:E7 P:27 SP:FB CYC:146 SL:182
F2B9  C8        INY                             A:52 X:FF Y:E7 P:27 SP:FB CYC:155 SL:182
F2BA  A9 37     LDA #$37                        A:52 X:FF Y:E8 P:A5 SP:FB CYC:161 SL:182
F2BC  8D 47 06  STA $0647 = 52                  A:37 X:FF Y:E8 P:25 SP:FB CYC:167 SL:182
F2BF  20 68 FA  JSR $FA68                       A:37 X:FF Y:E8 P:25 SP:FB CYC:179 SL:182
FA68  24 01     BIT $01 = FF                    A:37 X:FF Y:E8 P:25 SP:F9 CYC:197 SL:182
FA6A  38        SEC                             A:37 X:FF Y:E8 P:E5 SP:F9 CYC:206 SL:182
FA6B  A9 75     LDA #$75                        A:37 X:FF Y:E8 P:E5 SP:F9 CYC:212 SL:182
FA6D  60        RTS                             A:75 X:FF Y:E8 P:65 SP:F9 CYC:218 SL:182
F2C2  3F 48 05 *RLA $0548,X @ 0647 = 37         A:75 X:FF Y:E8 P:65 SP:FB CYC:236 SL:182
F2C5  EA        NOP                             A:65 X:FF Y:E8 P:64 SP:FB CYC:257 SL:182
F2C6  EA        NOP                             A:65 X:FF Y:E8 P:64 SP:FB CYC:263 SL:182
F2C7  EA        NOP                             A:65 X:FF Y:E8 P:64 SP:FB CYC:269 SL:182
F2C8  EA        NOP                             A:65 X:FF Y:E8 P:64 SP:FB CYC:275 SL:182
F2C9  20 6E FA  JSR $FA6E                       A:65 X:FF Y:E8 P:64 SP:FB CYC:281 SL:182
FA6E  50 76     BVC $FAE6                       A:65 X:FF Y:E8 P:64 SP:F9 CYC:299 SL:182
FA70  F0 74     BEQ $FAE6                       A:65 X:FF Y:E8 P:64 SP:F9 CYC:305 SL:182
FA72  30 72     BMI $FAE6                       A:65 X:FF Y:E8 P:64 SP:F9 CYC:311 SL:182
FA74  B0 70     BCS $FAE6                       A:65 X:FF Y:E8 P:64 SP:F9 CYC:317 SL:182
FA76  C9 65     CMP #$65                        A:65 X:FF Y:E8 P:64 SP:F9 CYC:323 SL:182
FA78  D0 6C     BNE $FAE6                       A:65 X:FF Y:E8 P:67 SP:F9 CYC:329 SL:182
FA7A  60        RTS                             A:65 X:FF Y:E8 P:67 SP:F9 CYC:335 SL:182
F2CC  AD 47 06  LDA $0647 = 6F                  A:65 X:FF Y:E8 P:67 SP:FB CYC: 12 SL:183
F2CF  C9 6F     CMP #$6F                        A:6F X:FF Y:E8 P:65 SP:FB CYC: 24 SL:183
F2D1  F0 02     BEQ $F2D5                       A:6F X:FF Y:E8 P:67 SP:FB CYC: 30 SL:183
F2D5  60        RTS                             A:6F X:FF Y:E8 P:67 SP:FB CYC: 39 SL:183
C647  20 D6 F2  JSR $F2D6                       A:6F X:FF Y:E8 P:67 SP:FD CYC: 57 SL:183
F2D6  A9 FF     LDA #$FF                        A:6F X:FF Y:E8 P:67 SP:FB CYC: 75 SL:183
F2D8  85 01     STA $01 = FF                    A:FF X:FF Y:E8 P:E5 SP:FB CYC: 81 SL:183
F2DA  A0 E9     LDY #$E9                        A:FF X:FF Y:E8 P:E5 SP:FB CYC: 90 SL:183
F2DC  A2 02     LDX #$02                        A:FF X:FF Y:E9 P:E5 SP:FB CYC: 96 SL:183
F2DE  A9 47     LDA #$47                        A:FF X:02 Y:E9 P:65 SP:FB CYC:102 SL:183
F2E0  85 47     STA $47 = 6F                    A:47 X:02 Y:E9 P:65 SP:FB CYC:108 SL:183
F2E2  A9 06     LDA #$06                        A:47 X:02 Y:E9 P:65 SP:FB CYC:117 SL:183
F2E4  85 48     STA $48 = 06                    A:06 X:02 Y:E9 P:65 SP:FB CYC:123 SL:183
F2E6  A9 A5     LDA #$A5                        A:06 X:02 Y:E9 P:65 SP:FB CYC:132 SL:183
F2E8  8D 47 06  STA $0647 = 6F                  A:A5 X:02 Y:E9 P:E5 SP:FB CYC:138 SL:183
F2EB  20 1D FB  JSR $FB1D                       A:A5 X:02 Y:E9 P:E5 SP:FB CYC:150 SL:183
FB1D  24 01     BIT $01 = FF                    A:A5 X:02 Y:E9 P:E5 SP:F9 CYC:168 SL:183
FB1F  18        CLC                             A:A5 X:02 Y:E9 P:E5 SP:F9 CYC:177 SL:183
FB20  A9 B3     LDA #$B3                        A:A5 X:02 Y:E9 P:E4 SP:F9 CYC:183 SL:183
FB22  60        RTS                             A:B3 X:02 Y:E9 P:E4 SP:F9 CYC:189 SL:183
F2EE  43 45    *SRE ($45,X) @ 47 = 0647 = A5    A:B3 X:02 Y:E9 P:E4 SP:FB CYC:207 SL:183
F2F0  EA        NOP                             A:E1 X:02 Y:E9 P:E5 SP:FB CYC:231 SL:183
F2F1  EA        NOP                             A:E1 X:02 Y:E9 P:E5 SP:FB CYC:237 SL:183
F2F2  EA        NOP                             A:E1 X:02 Y:E9 P:E5 SP:FB CYC:243 SL:183
F2F3  EA        NOP                             A:E1 X:02 Y:E9 P:E5 SP:FB CYC:249 SL:183
F2F4  20 23 FB  JSR $FB23                       A:E1 X:02 Y:E9 P:E5 SP:FB CYC:255 SL:183
FB23  50 50     BVC $FB75                       A:E1 X:02 Y:E9 P:E5 SP:F9 CYC:273 SL:183
FB25  90 4E     BCC $FB75                       A:E1 X:02 Y:E9 P:E5 SP:F9 CYC:279 SL:183
FB27  10 4C     BPL $FB75                       A:E1 X:02 Y:E9 P:E5 SP:F9 CYC:285 SL:183
FB29  C9 E1     CMP #$E1                        A:E1 X:02 Y:E9 P:E5 SP:F9 CYC:291 SL:183
FB2B  D0 48     BNE $FB75                       A:E1 X:02 Y:E9 P:67 SP:F9 CYC:297 SL:183
FB2D  60        RTS                             A:E1 X:02 Y:E9 P:67 SP:F9 CYC:303 SL:183
F2F7  AD 47 06  LDA $0647 = 52                  A:E1 X:02 Y:E9 P:67 SP:FB CYC:321 SL:183
F2FA  C9 52     CMP #$52                        A:52 X:02 Y:E9 P:65 SP:FB CYC:333 SL:183
F2FC  F0 02     BEQ $F300                       A:52 X:02 Y:E9 P:67 SP:FB CYC:339 SL:183
F300  C8        INY                             A:52 X:02 Y:E9 P:67 SP:FB CYC: 10 SL:184
F301  A9 29     LDA #$29                        A:52 X:02 Y:EA P:E5 SP:FB CYC: 16 SL:184
F303  8D 47 06  STA $0647 = 52                  A:29 X:02 Y:EA P:65 SP:FB CYC: 22 SL:184
F306  20 2E FB  JSR $FB2E                       A:29 X:02 Y:EA P:65 SP:FB CYC: 34 SL:184
FB2E  B8        CLV                             A:29 X:02 Y:EA P:65 SP:F9 CYC: 52 SL:184
FB2F  18        CLC                             A:29 X:02 Y:EA P:25 SP:F9 CYC: 58 SL:184
FB30  A9 42     LDA #$42                        A:29 X:02 Y:EA P:24 SP:F9 CYC: 64 SL:184
FB32  60        RTS                             A:42 X:02 Y:EA P:24 SP:F9 CYC: 70 SL:184
F309  43 45    *SRE ($45,X) @ 47 = 0647 = 29    A:42 X:02 Y:EA P:24 SP:FB CYC: 88 SL:184
F30B  EA        NOP                             A:56 X:02 Y:EA P:25 SP:FB CYC:112 SL:184
F30C  EA        NOP                             A:56 X:02 Y:EA P:25 SP:FB CYC:118 SL:184
F30D  EA        NOP                             A:56 X:02 Y:EA P:25 SP:FB CYC:124 SL:184
F30E  EA        NOP                             A:56 X:02 Y:EA P:25 SP:FB CYC:130 SL:184
F30F  20 33 FB  JSR $FB33                       A:56 X:02 Y:EA P:25 SP:FB CYC:136 SL:184
FB33  70 40     BVS $FB75                       A:56 X:02 Y:EA P:25 SP:F9 CYC:154 SL:184
FB35  F0 3E     BEQ $FB75                       A:56 X:02 Y:EA P:25 SP:F9 CYC:160 SL:184
FB37  30 3C     BMI $FB75                       A:56 X:02 Y:EA P:25 SP:F9 CYC:166 SL:184
FB39  90 3A     BCC $FB75                       A:56 X:02 Y:EA P:25 SP:F9 CYC:172 SL:184
FB3B  C9 56     CMP #$56                        A:56 X:02 Y:EA P:25 SP:F9 CYC:178 SL:184
FB3D  D0 36     BNE $FB75                       A:56 X:02 Y:EA P:27 SP:F9 CYC:184 SL:184
FB3F  60        RTS                             A:56 X:02 Y:EA P:27 SP:F9 CYC:190 SL:184
F312  AD 47 06  LDA $0647 = 14                  A:56 X:02 Y:EA P:27 SP:FB CYC:208 SL:184
F315  C9 14     CMP #$14                        A:14 X:02 Y:EA P:25 SP:FB CYC:220 SL:184
F317  F0 02     BEQ $F31B                       A:14 X:02 Y:EA P:27 SP:FB CYC:226 SL:184
F31B  C8        INY                             A:14 X:02 Y:EA P:27 SP:FB CYC:235 SL:184
F31C  A9 37     LDA #$37                        A:14 X:02 Y:EB P:A5 SP:FB CYC:241 SL:184
F31E  8D 47 06  STA $0647 = 14                  A:37 X:02 Y:EB P:25 SP:FB CYC:247 SL:184
F321  20 40 FB  JSR $FB40                       A:37 X:02 Y:EB P:25 SP:FB CYC:259 SL:184
FB40  24 01     BIT $01 = FF                    A:37 X:02 Y:EB P:25 SP:F9 CYC:277 SL:184
FB42  38        SEC                             A:37 X:02 Y:EB P:E5 SP:F9 CYC:286 SL:184
FB43  A9 75     LDA #$75                        A:37 X:02 Y:EB P:E5 SP:F9 CYC:292 SL:184
FB45  60        RTS                             A:75 X:02 Y:EB P:65 SP:F9 CYC:298 SL:184
F324  43 45    *SRE ($45,X) @ 47 = 0647 = 37    A:75 X:02 Y:EB P:65 SP:FB CYC:316 SL:184
F326  EA        NOP                             A:6E X:02 Y:EB P:65 SP:FB CYC:340 SL:184
F327  EA        NOP                             A:6E X:02 Y:EB P:65 SP:FB CYC:  5 SL:185
F328  EA        NOP                             A:6E X:02 Y:EB P:65 SP:FB CYC: 11 SL:185
F329  EA        NOP                             A:6E X:02 Y:EB P:65 SP:FB CYC: 17 SL:185
F32A  20 46 FB  JSR $FB46                       A:6E X:02 Y:EB P:65 SP:FB CYC: 23 SL:185
FB46  50 2D     BVC $FB75                       A:6E X:02 Y:EB P:65 SP:F9 CYC: 41 SL:185
FB48  F0 2B     BEQ $FB75                       A:6E X:02 Y:EB P:65 SP:F9 CYC: 47 SL:185
FB4A  30 29     BMI $FB75                       A:6E X:02 Y:EB P:65 SP:F9 CYC: 53 SL:185
FB4C  90 27     BCC $FB75                       A:6E X:02 Y:EB P:65 SP:F9 CYC: 59 SL:185
FB4E  C9 6E     CMP #$6E                        A:6E X:02 Y:EB P:65 SP:F9 CYC: 65 SL:185
FB50  D0 23     BNE $FB75                       A:6E X:02 Y:EB P:67 SP:F9 CYC: 71 SL:185
FB52  60        RTS                             A:6E X:02 Y:EB P:67 SP:F9 CYC: 77 SL:185
F32D  AD 47 06  LDA $0647 = 1B                  A:6E X:02 Y:EB P:67 SP:FB CYC: 95 SL:185
F330  C9 1B     CMP #$1B                        A:1B X:02 Y:EB P:65 SP:FB CYC:107 SL:185
F332  F0 02     BEQ $F336                       A:1B X:02 Y:EB P:67 SP:FB CYC:113 SL:185
F336  C8        INY                             A:1B X:02 Y:EB P:67 SP:FB CYC:122 SL:185
F337  A9 A5     LDA #$A5                        A:1B X:02 Y:EC P:E5 SP:FB CYC:128 SL:185
F339  85 47     STA $47 = 47                    A:A5 X:02 Y:EC P:E5 SP:FB CYC:134 SL:185
F33B  20 1D FB  JSR $FB1D                       A:A5 X:02 Y:EC P:E5 SP:FB CYC:143 SL:185
FB1D  24 01     BIT $01 = FF                    A:A5 X:02 Y:EC P:E5 SP:F9 CYC:161 SL:185
FB1F  18        CLC                             A:A5 X:02 Y:EC P:E5 SP:F9 CYC:170 SL:185
FB20  A9 B3     LDA #$B3                        A:A5 X:02 Y:EC P:E4 SP:F9 CYC:176 SL:185
FB22  60        RTS                             A:B3 X:02 Y:EC P:E4 SP:F9 CYC:182 SL:185
F33E  47 47    *SRE $47 = A5                    A:B3 X:02 Y:EC P:E4 SP:FB CYC:200 SL:185
F340  EA        NOP                             A:E1 X:02 Y:EC P:E5 SP:FB CYC:215 SL:185
F341  EA        NOP                             A:E1 X:02 Y:EC P:E5 SP:FB CYC:221 SL:185
F342  EA        NOP                             A:E1 X:02 Y:EC P:E5 SP:FB CYC:227 SL:185
F343  EA        NOP                             A:E1 X:02 Y:EC P:E5 SP:FB CYC:233 SL:185
F344  20 23 FB  JSR $FB23                       A:E1 X:02 Y:EC P:E5 SP:FB CYC:239 SL:185
FB23  50 50     BVC $FB75                       A:E1 X:02 Y:EC P:E5 SP:F9 CYC:257 SL:185
FB25  90 4E     BCC $FB75                       A:E1 X:02 Y:EC P:E5 SP:F9 CYC:263 SL:185
FB27  10 4C     BPL $FB75                       A:E1 X:02 Y:EC P:E5 SP:F9 CYC:269 SL:185
FB29  C9 E1     CMP #$E1                        A:E1 X:02 Y:EC P:E5 SP:F9 CYC:275 SL:185
FB2B  D0 48     BNE $FB75                       A:E1 X:02 Y:EC P:67 SP:F9 CYC:281 SL:185
FB2D  60        RTS                             A:E1 X:02 Y:EC P:67 SP:F9 CYC:287 SL:185
F347  A5 47     LDA $47 = 52                    A:E1 X:02 Y:EC P:67 SP:FB CYC:305 SL:185
F349  C9 52     CMP #$52                        A:52 X:02 Y:EC P:65 SP:FB CYC:314 SL:185
F34B  F0 02     BEQ $F34F                       A:52 X:02 Y:EC P:67 SP:FB CYC:320 SL:185
F34F  C8        INY                             A:52 X:02 Y:EC P:67 SP:FB CYC:329 SL:185
F350  A9 29     LDA #$29                        A:52 X:02 Y:ED P:E5 SP:FB CYC:335 SL:185
F352  85 47     STA $47 = 52                    A:29 X:02 Y:ED P:65 SP:FB CYC:  0 SL:186
F354  20 2E FB  JSR $FB2E                       A:29 X:02 Y:ED P:65 SP:FB CYC:  9 SL:186
FB2E  B8        CLV                             A:29 X:02 Y:ED P:65 SP:F9 CYC: 27 SL:186
FB2F  18        CLC                             A:29 X:02 Y:ED P:25 SP:F9 CYC: 33 SL:186
FB30  A9 42     LDA #$42                        A:29 X:02 Y:ED P:24 SP:F9 CYC: 39 SL:186
FB32  60        RTS                             A:42 X:02 Y:ED P:24 SP:F9 CYC: 45 SL:186
F357  47 47    *SRE $47 = 29                    A:42 X:02 Y:ED P:24 SP:FB CYC: 63 SL:186
F359  EA        NOP                             A:56 X:02 Y:ED P:25 SP:FB CYC: 78 SL:186
F35A  EA        NOP                             A:56 X:02 Y:ED P:25 SP:FB CYC: 84 SL:186
F35B  EA        NOP                             A:56 X:02 Y:ED P:25 SP:FB CYC: 90 SL:186
F35C  EA        NOP                             A:56 X:02 Y:ED P:25 SP:FB CYC: 96 SL:186
F35D  20 33 FB  JSR $FB33                       A:56 X:02 Y:ED P:25 SP:FB CYC:102 SL:186
FB33  70 40     BVS $FB75                       A:56 X:02 Y:ED P:25 SP:F9 CYC:120 SL:186
FB35  F0 3E     BEQ $FB75                       A:56 X:02 Y:ED P:25 SP:F9 CYC:126 SL:186
FB37  30 3C     BMI $FB75                       A:56 X:02 Y:ED P:25 SP:F9 CYC:132 SL:186
FB39  90 3A     BCC $FB75                       A:56 X:02 Y:ED P:25 SP:F9 CYC:138 SL:186
FB3B  C9 56     CMP #$56                        A:56 X:02 Y:ED P:25 SP:F9 CYC:144 SL:186
FB3D  D0 36     BNE $FB75                       A:56 X:02 Y:ED P:27 SP:F9 CYC:150 SL:186
FB3F  60        RTS                             A:56 X:02 Y:ED P:27 SP:F9 CYC:156 SL:186
F360  A5 47     LDA $47 = 14                    A:56 X:02 Y:ED P:27 SP:FB CYC:174 SL:186
F362  C9 14     CMP #$14                        A:14 X:02 Y:ED P:25 SP:FB CYC:183 SL:186
F364  F0 02     BEQ $F368                       A:14 X:02 Y:ED P:27 SP:FB CYC:189 SL:186
F368  C8        INY                             A:14 X:02 Y:ED P:27 SP:FB CYC:198 SL:186
F369  A9 37     LDA #$37                        A:14 X:02 Y:EE P:A5 SP:FB CYC:204 SL:186
F36B  85 47     STA $47 = 14                    A:37 X:02 Y:EE P:25 SP:FB CYC:210 SL:186
F36D  20 40 FB  JSR $FB40                       A:37 X:02 Y:EE P:25 SP:FB CYC:219 SL:186
FB40  24 01     BIT $01 = FF                    A:37 X:02 Y:EE P:25 SP:F9 CYC:237 SL:186
FB42  38        SEC                             A:37 X:02 Y:EE P:E5 SP:F9 CYC:246 SL:186
FB43  A9 75     LDA #$75                        A:37 X:02 Y:EE P:E5 SP:F9 CYC:252 SL:186
FB45  60        RTS                             A:75 X:02 Y:EE P:65 SP:F9 CYC:258 SL:186
F370  47 47    *SRE $47 = 37                    A:75 X:02 Y:EE P:65 SP:FB CYC:276 SL:186
F372  EA        NOP                             A:6E X:02 Y:EE P:65 SP:FB CYC:291 SL:186
F373  EA        NOP                             A:6E X:02 Y:EE P:65 SP:FB CYC:297 SL:186
F374  EA        NOP                             A:6E X:02 Y:EE P:65 SP:FB CYC:303 SL:186
F375  EA        NOP                             A:6E X:02 Y:EE P:65 SP:FB CYC:309 SL:186
F376  20 46 FB  JSR $FB46                       A:6E X:02 Y:EE P:65 SP:FB CYC:315 SL:186
FB46  50 2D     BVC $FB75                       A:6E X:02 Y:EE P:65 SP:F9 CYC:333 SL:186
FB48  F0 2B     BEQ $FB75                       A:6E X:02 Y:EE P:65 SP:F9 CYC:339 SL:186
FB4A  30 29     BMI $FB75                       A:6E X:02 Y:EE P:65 SP:F9 CYC:  4 SL:187
FB4C  90 27     BCC $FB75                       A:6E X:02 Y:EE P:65 SP:F9 CYC: 10 SL:187
FB4E  C9 6E     CMP #$6E                        A:6E X:02 Y:EE P:65 SP:F9 CYC: 16 SL:187
FB50  D0 23     BNE $FB75                       A:6E X:02 Y:EE P:67 SP:F9 CYC: 22 SL:187
FB52  60        RTS                             A:6E X:02 Y:EE P:67 SP:F9 CYC: 28 SL:187
F379  A5 47     LDA $47 = 1B                    A:6E X:02 Y:EE P:67 SP:FB CYC: 46 SL:187
F37B  C9 1B     CMP #$1B                        A:1B X:02 Y:EE P:65 SP:FB CYC: 55 SL:187
F37D  F0 02     BEQ $F381                       A:1B X:02 Y:EE P:67 SP:FB CYC: 61 SL:187
F381  C8        INY                             A:1B X:02 Y:EE P:67 SP:FB CYC: 70 SL:187
F382  A9 A5     LDA #$A5                        A:1B X:02 Y:EF P:E5 SP:FB CYC: 76 SL:187
F384  8D 47 06  STA $0647 = 1B                  A:A5 X:02 Y:EF P:E5 SP:FB CYC: 82 SL:187
F387  20 1D FB  JSR $FB1D                       A:A5 X:02 Y:EF P:E5 SP:FB CYC: 94 SL:187
FB1D  24 01     BIT $01 = FF                    A:A5 X:02 Y:EF P:E5 SP:F9 CYC:112 SL:187
FB1F  18        CLC                             A:A5 X:02 Y:EF P:E5 SP:F9 CYC:121 SL:187
FB20  A9 B3     LDA #$B3                        A:A5 X:02 Y:EF P:E4 SP:F9 CYC:127 SL:187
FB22  60        RTS                             A:B3 X:02 Y:EF P:E4 SP:F9 CYC:133 SL:187
F38A  4F 47 06 *SRE $0647 = A5                  A:B3 X:02 Y:EF P:E4 SP:FB CYC:151 SL:187
F38D  EA        NOP                             A:E1 X:02 Y:EF P:E5 SP:FB CYC:169 SL:187
F38E  EA        NOP                             A:E1 X:02 Y:EF P:E5 SP:FB CYC:175 SL:187
F38F  EA        NOP                             A:E1 X:02 Y:EF P:E5 SP:FB CYC:181 SL:187
F390  EA        NOP                             A:E1 X:02 Y:EF P:E5 SP:FB CYC:187 SL:187
F391  20 23 FB  JSR $FB23                       A:E1 X:02 Y:EF P:E5 SP:FB CYC:193 SL:187
FB23  50 50     BVC $FB75                       A:E1 X:02 Y:EF P:E5 SP:F9 CYC:211 SL:187
FB25  90 4E     BCC $FB75                       A:E1 X:02 Y:EF P:E5 SP:F9 CYC:217 SL:187
FB27  10 4C     BPL $FB75                       A:E1 X:02 Y:EF P:E5 SP:F9 CYC:223 SL:187
FB29  C9 E1     CMP #$E1                        A:E1 X:02 Y:EF P:E5 SP:F9 CYC:229 SL:187
FB2B  D0 48     BNE $FB75                       A:E1 X:02 Y:EF P:67 SP:F9 CYC:235 SL:187
FB2D  60        RTS                             A:E1 X:02 Y:EF P:67 SP:F9 CYC:241 SL:187
F394  AD 47 06  LDA $0647 = 52                  A:E1 X:02 Y:EF P:67 SP:FB CYC:259 SL:187
F397  C9 52     CMP #$52                        A:52 X:02 Y:EF P:65 SP:FB CYC:271 SL:187
F399  F0 02     BEQ $F39D                       A:52 X:02 Y:EF P:67 SP:FB CYC:277 SL:187
F39D  C8        INY                             A:52 X:02 Y:EF P:67 SP:FB CYC:286 SL:187
F39E  A9 29     LDA #$29                        A:52 X:02 Y:F0 P:E5 SP:FB CYC:292 SL:187
F3A0  8D 47 06  STA $0647 = 52                  A:29 X:02 Y:F0 P:65 SP:FB CYC:298 SL:187
F3A3  20 2E FB  JSR $FB2E                       A:29 X:02 Y:F0 P:65 SP:FB CYC:310 SL:187
FB2E  B8        CLV                             A:29 X:02 Y:F0 P:65 SP:F9 CYC:328 SL:187
FB2F  18        CLC                             A:29 X:02 Y:F0 P:25 SP:F9 CYC:334 SL:187
FB30  A9 42     LDA #$42                        A:29 X:02 Y:F0 P:24 SP:F9 CYC:340 SL:187
FB32  60        RTS                             A:42 X:02 Y:F0 P:24 SP:F9 CYC:  5 SL:188
F3A6  4F 47 06 *SRE $0647 = 29                  A:42 X:02 Y:F0 P:24 SP:FB CYC: 23 SL:188
F3A9  EA        NOP                             A:56 X:02 Y:F0 P:25 SP:FB CYC: 41 SL:188
F3AA  EA        NOP                             A:56 X:02 Y:F0 P:25 SP:FB CYC: 47 SL:188
F3AB  EA        NOP                             A:56 X:02 Y:F0 P:25 SP:FB CYC: 53 SL:188
F3AC  EA        NOP                             A:56 X:02 Y:F0 P:25 SP:FB CYC: 59 SL:188
F3AD  20 33 FB  JSR $FB33                       A:56 X:02 Y:F0 P:25 SP:FB CYC: 65 SL:188
FB33  70 40     BVS $FB75                       A:56 X:02 Y:F0 P:25 SP:F9 CYC: 83 SL:188
FB35  F0 3E     BEQ $FB75                       A:56 X:02 Y:F0 P:25 SP:F9 CYC: 89 SL:188
FB37  30 3C     BMI $FB75                       A:56 X:02 Y:F0 P:25 SP:F9 CYC: 95 SL:188
FB39  90 3A     BCC $FB75                       A:56 X:02 Y:F0 P:25 SP:F9 CYC:101 SL:188
FB3B  C9 56     CMP #$56                        A:56 X:02 Y:F0 P:25 SP:F9 CYC:107 SL:188
FB3D  D0 36     BNE $FB75                       A:56 X:02 Y:F0 P:27 SP:F9 CYC:113 SL:188
FB3F  60        RTS                             A:56 X:02 Y:F0 P:27 SP:F9 CYC:119 SL:188
F3B0  AD 47 06  LDA $0647 = 14                  A:56 X:02 Y:F0 P:27 SP:FB CYC:137 SL:188
F3B3  C9 14     CMP #$14                        A:14 X:02 Y:F0 P:25 SP:FB CYC:149 SL:188
F3B5  F0 02     BEQ $F3B9                       A:14 X:02 Y:F0 P:27 SP:FB CYC:155 SL:188
F3B9  C8        INY                             A:14 X:02 Y:F0 P:27 SP:FB CYC:164 SL:188
F3BA  A9 37     LDA #$37                        A:14 X:02 Y:F1 P:A5 SP:FB CYC:170 SL:188
F3BC  8D 47 06  STA $0647 = 14                  A:37 X:02 Y:F1 P:25 SP:FB CYC:176 SL:188
F3BF  20 40 FB  JSR $FB40                       A:37 X:02 Y:F1 P:25 SP:FB CYC:188 SL:188
FB40  24 01     BIT $01 = FF                    A:37 X:02 Y:F1 P:25 SP:F9 CYC:206 SL:188
FB42  38        SEC                             A:37 X:02 Y:F1 P:E5 SP:F9 CYC:215 SL:188
FB43  A9 75     LDA #$75                        A:37 X:02 Y:F1 P:E5 SP:F9 CYC:221 SL:188
FB45  60        RTS                             A:75 X:02 Y:F1 P:65 SP:F9 CYC:227 SL:188
F3C2  4F 47 06 *SRE $0647 = 37                  A:75 X:02 Y:F1 P:65 SP:FB CYC:245 SL:188
F3C5  EA        NOP                             A:6E X:02 Y:F1 P:65 SP:FB CYC:263 SL:188
F3C6  EA        NOP                             A:6E X:02 Y:F1 P:65 SP:FB CYC:269 SL:188
F3C7  EA        NOP                             A:6E X:02 Y:F1 P:65 SP:FB CYC:275 SL:188
F3C8  EA        NOP                             A:6E X:02 Y:F1 P:65 SP:FB CYC:281 SL:188
F3C9  20 46 FB  JSR $FB46                       A:6E X:02 Y:F1 P:65 SP:FB CYC:287 SL:188
FB46  50 2D     BVC $FB75                       A:6E X:02 Y:F1 P:65 SP:F9 CYC:305 SL:188
FB48  F0 2B     BEQ $FB75                       A:6E X:02 Y:F1 P:65 SP:F9 CYC:311 SL:188
FB4A  30 29     BMI $FB75                       A:6E X:02 Y:F1 P:65 SP:F9 CYC:317 SL:188
FB4C  90 27     BCC $FB75                       A:6E X:02 Y:F1 P:65 SP:F9 CYC:323 SL:188
FB4E  C9 6E     CMP #$6E                        A:6E X:02 Y:F1 P:65 SP:F9 CYC:329 SL:188
FB50  D0 23     BNE $FB75                       A:6E X:02 Y:F1 P:67 SP:F9 CYC:335 SL:188
FB52  60        RTS                             A:6E X:02 Y:F1 P:67 SP:F9 CYC:  0 SL:189
F3CC  AD 47 06  LDA $0647 = 1B                  A:6E X:02 Y:F1 P:67 SP:FB CYC: 18 SL:189
F3CF  C9 1B     CMP #$1B                        A:1B X:02 Y:F1 P:65 SP:FB CYC: 30 SL:189
F3D1  F0 02     BEQ $F3D5                       A:1B X:02 Y:F1 P:67 SP:FB CYC: 36 SL:189
F3D5  A9 A5     LDA #$A5                        A:1B X:02 Y:F1 P:67 SP:FB CYC: 45 SL:189
F3D7  8D 47 06  STA $0647 = 1B                  A:A5 X:02 Y:F1 P:E5 SP:FB CYC: 51 SL:189
F3DA  A9 48     LDA #$48                        A:A5 X:02 Y:F1 P:E5 SP:FB CYC: 63 SL:189
F3DC  85 45     STA $45 = 48                    A:48 X:02 Y:F1 P:65 SP:FB CYC: 69 SL:189
F3DE  A9 05     LDA #$05                        A:48 X:02 Y:F1 P:65 SP:FB CYC: 78 SL:189
F3E0  85 46     STA $46 = 05                    A:05 X:02 Y:F1 P:65 SP:FB CYC: 84 SL:189
F3E2  A0 FF     LDY #$FF                        A:05 X:02 Y:F1 P:65 SP:FB CYC: 93 SL:189
F3E4  20 1D FB  JSR $FB1D                       A:05 X:02 Y:FF P:E5 SP:FB CYC: 99 SL:189
FB1D  24 01     BIT $01 = FF                    A:05 X:02 Y:FF P:E5 SP:F9 CYC:117 SL:189
FB1F  18        CLC                             A:05 X:02 Y:FF P:E5 SP:F9 CYC:126 SL:189
FB20  A9 B3     LDA #$B3                        A:05 X:02 Y:FF P:E4 SP:F9 CYC:132 SL:189
FB22  60        RTS                             A:B3 X:02 Y:FF P:E4 SP:F9 CYC:138 SL:189
F3E7  53 45    *SRE ($45),Y = 0548 @ 0647 = A5  A:B3 X:02 Y:FF P:E4 SP:FB CYC:156 SL:189
F3E9  EA        NOP                             A:E1 X:02 Y:FF P:E5 SP:FB CYC:180 SL:189
F3EA  EA        NOP                             A:E1 X:02 Y:FF P:E5 SP:FB CYC:186 SL:189
F3EB  08        PHP                             A:E1 X:02 Y:FF P:E5 SP:FB CYC:192 SL:189
F3EC  48        PHA                             A:E1 X:02 Y:FF P:E5 SP:FA CYC:201 SL:189
F3ED  A0 F2     LDY #$F2                        A:E1 X:02 Y:FF P:E5 SP:F9 CYC:210 SL:189
F3EF  68        PLA                             A:E1 X:02 Y:F2 P:E5 SP:F9 CYC:216 SL:189
F3F0  28        PLP                             A:E1 X:02 Y:F2 P:E5 SP:FA CYC:228 SL:189
F3F1  20 23 FB  JSR $FB23                       A:E1 X:02 Y:F2 P:E5 SP:FB CYC:240 SL:189
FB23  50 50     BVC $FB75                       A:E1 X:02 Y:F2 P:E5 SP:F9 CYC:258 SL:189
FB25  90 4E     BCC $FB75                       A:E1 X:02 Y:F2 P:E5 SP:F9 CYC:264 SL:189
FB27  10 4C     BPL $FB75                       A:E1 X:02 Y:F2 P:E5 SP:F9 CYC:270 SL:189
FB29  C9 E1     CMP #$E1                        A:E1 X:02 Y:F2 P:E5 SP:F9 CYC:276 SL:189
FB2B  D0 48     BNE $FB75                       A:E1 X:02 Y:F2 P:67 SP:F9 CYC:282 SL:189
FB2D  60        RTS                             A:E1 X:02 Y:F2 P:67 SP:F9 CYC:288 SL:189
F3F4  AD 47 06  LDA $0647 = 52                  A:E1 X:02 Y:F2 P:67 SP:FB CYC:306 SL:189
F3F7  C9 52     CMP #$52                        A:52 X:02 Y:F2 P:65 SP:FB CYC:318 SL:189
F3F9  F0 02     BEQ $F3FD                       A:52 X:02 Y:F2 P:67 SP:FB CYC:324 SL:189
F3FD  A0 FF     LDY #$FF                        A:52 X:02 Y:F2 P:67 SP:FB CYC:333 SL:189
F3FF  A9 29     LDA #$29                        A:52 X:02 Y:FF P:E5 SP:FB CYC:339 SL:189
F401  8D 47 06  STA $0647 = 52                  A:29 X:02 Y:FF P:65 SP:FB CYC:  4 SL:190
F404  20 2E FB  JSR $FB2E                       A:29 X:02 Y:FF P:65 SP:FB CYC: 16 SL:190
FB2E  B8        CLV                             A:29 X:02 Y:FF P:65 SP:F9 CYC: 34 SL:190
FB2F  18        CLC                             A:29 X:02 Y:FF P:25 SP:F9 CYC: 40 SL:190
FB30  A9 42     LDA #$42                        A:29 X:02 Y:FF P:24 SP:F9 CYC: 46 SL:190
FB32  60        RTS                             A:42 X:02 Y:FF P:24 SP:F9 CYC: 52 SL:190
F407  53 45    *SRE ($45),Y = 0548 @ 0647 = 29  A:42 X:02 Y:FF P:24 SP:FB CYC: 70 SL:190
F409  EA        NOP                             A:56 X:02 Y:FF P:25 SP:FB CYC: 94 SL:190
F40A  EA        NOP                             A:56 X:02 Y:FF P:25 SP:FB CYC:100 SL:190
F40B  08        PHP                             A:56 X:02 Y:FF P:25 SP:FB CYC:106 SL:190
F40C  48        PHA                             A:56 X:02 Y:FF P:25 SP:FA CYC:115 SL:190
F40D  A0 F3     LDY #$F3                        A:56 X:02 Y:FF P:25 SP:F9 CYC:124 SL:190
F40F  68        PLA                             A:56 X:02 Y:F3 P:A5 SP:F9 CYC:130 SL:190
F410  28        PLP                             A:56 X:02 Y:F3 P:25 SP:FA CYC:142 SL:190
F411  20 33 FB  JSR $FB33                       A:56 X:02 Y:F3 P:25 SP:FB CYC:154 SL:190
FB33  70 40     BVS $FB75                       A:56 X:02 Y:F3 P:25 SP:F9 CYC:172 SL:190
FB35  F0 3E     BEQ $FB75                       A:56 X:02 Y:F3 P:25 SP:F9 CYC:178 SL:190
FB37  30 3C     BMI $FB75                       A:56 X:02 Y:F3 P:25 SP:F9 CYC:184 SL:190
FB39  90 3A     BCC $FB75                       A:56 X:02 Y:F3 P:25 SP:F9 CYC:190 SL:190
FB3B  C9 56     CMP #$56                        A:56 X:02 Y:F3 P:25 SP:F9 CYC:196 SL:190
FB3D  D0 36     BNE $FB75                       A:56 X:02 Y:F3 P:27 SP:F9 CYC:202 SL:190
FB3F  60        RTS                             A:56 X:02 Y:F3 P:27 SP:F9 CYC:208 SL:190
F414  AD 47 06  LDA $0647 = 14                  A:56 X:02 Y:F3 P:27 SP:FB CYC:226 SL:190
F417  C9 14     CMP #$14                        A:14 X:02 Y:F3 P:25 SP:FB CYC:238 SL:190
F419  F0 02     BEQ $F41D                       A:14 X:02 Y:F3 P:27 SP:FB CYC:244 SL:190
F41D  A0 FF     LDY #$FF                        A:14 X:02 Y:F3 P:27 SP:FB CYC:253 SL:190
F41F  A9 37     LDA #$37                        A:14 X:02 Y:FF P:A5 SP:FB CYC:259 SL:190
F421  8D 47 06  STA $0647 = 14                  A:37 X:02 Y:FF P:25 SP:FB CYC:265 SL:190
F424  20 40 FB  JSR $FB40                       A:37 X:02 Y:FF P:25 SP:FB CYC:277 SL:190
FB40  24 01     BIT $01 = FF                    A:37 X:02 Y:FF P:25 SP:F9 CYC:295 SL:190
FB42  38        SEC                             A:37 X:02 Y:FF P:E5 SP:F9 CYC:304 SL:190
FB43  A9 75     LDA #$75                        A:37 X:02 Y:FF P:E5 SP:F9 CYC:310 SL:190
FB45  60        RTS                             A:75 X:02 Y:FF P:65 SP:F9 CYC:316 SL:190
F427  53 45    *SRE ($45),Y = 0548 @ 0647 = 37  A:75 X:02 Y:FF P:65 SP:FB CYC:334 SL:190
F429  EA        NOP                             A:6E X:02 Y:FF P:65 SP:FB CYC: 17 SL:191
F42A  EA        NOP                             A:6E X:02 Y:FF P:65 SP:FB CYC: 23 SL:191
F42B  08        PHP                             A:6E X:02 Y:FF P:65 SP:FB CYC: 29 SL:191
F42C  48        PHA                             A:6E X:02 Y:FF P:65 SP:FA CYC: 38 SL:191
F42D  A0 F4     LDY #$F4                        A:6E X:02 Y:FF P:65 SP:F9 CYC: 47 SL:191
F42F  68        PLA                             A:6E X:02 Y:F4 P:E5 SP:F9 CYC: 53 SL:191
F430  28        PLP                             A:6E X:02 Y:F4 P:65 SP:FA CYC: 65 SL:191
F431  20 46 FB  JSR $FB46                       A:6E X:02 Y:F4 P:65 SP:FB CYC: 77 SL:191
FB46  50 2D     BVC $FB75                       A:6E X:02 Y:F4 P:65 SP:F9 CYC: 95 SL:191
FB48  F0 2B     BEQ $FB75                       A:6E X:02 Y:F4 P:65 SP:F9 CYC:101 SL:191
FB4A  30 29     BMI $FB75                       A:6E X:02 Y:F4 P:65 SP:F9 CYC:107 SL:191
FB4C  90 27     BCC $FB75                       A:6E X:02 Y:F4 P:65 SP:F9 CYC:113 SL:191
FB4E  C9 6E     CMP #$6E                        A:6E X:02 Y:F4 P:65 SP:F9 CYC:119 SL:191
FB50  D0 23     BNE $FB75                       A:6E X:02 Y:F4 P:67 SP:F9 CYC:125 SL:191
FB52  60        RTS                             A:6E X:02 Y:F4 P:67 SP:F9 CYC:131 SL:191
F434  AD 47 06  LDA $0647 = 1B                  A:6E X:02 Y:F4 P:67 SP:FB CYC:149 SL:191
F437  C9 1B     CMP #$1B                        A:1B X:02 Y:F4 P:65 SP:FB CYC:161 SL:191
F439  F0 02     BEQ $F43D                       A:1B X:02 Y:F4 P:67 SP:FB CYC:167 SL:191
F43D  A0 F5     LDY #$F5                        A:1B X:02 Y:F4 P:67 SP:FB CYC:176 SL:191
F43F  A2 FF     LDX #$FF                        A:1B X:02 Y:F5 P:E5 SP:FB CYC:182 SL:191
F441  A9 A5     LDA #$A5                        A:1B X:FF Y:F5 P:E5 SP:FB CYC:188 SL:191
F443  85 47     STA $47 = 1B                    A:A5 X:FF Y:F5 P:E5 SP:FB CYC:194 SL:191
F445  20 1D FB  JSR $FB1D                       A:A5 X:FF Y:F5 P:E5 SP:FB CYC:203 SL:191
FB1D  24 01     BIT $01 = FF                    A:A5 X:FF Y:F5 P:E5 SP:F9 CYC:221 SL:191
FB1F  18        CLC                             A:A5 X:FF Y:F5 P:E5 SP:F9 CYC:230 SL:191
FB20  A9 B3     LDA #$B3                        A:A5 X:FF Y:F5 P:E4 SP:F9 CYC:236 SL:191
FB22  60        RTS                             A:B3 X:FF Y:F5 P:E4 SP:F9 CYC:242 SL:191
F448  57 48    *SRE $48,X @ 47 = A5             A:B3 X:FF Y:F5 P:E4 SP:FB CYC:260 SL:191
F44A  EA        NOP                             A:E1 X:FF Y:F5 P:E5 SP:FB CYC:278 SL:191
F44B  EA        NOP                             A:E1 X:FF Y:F5 P:E5 SP:FB CYC:284 SL:191
F44C  EA        NOP                             A:E1 X:FF Y:F5 P:E5 SP:FB CYC:290 SL:191
F44D  EA        NOP                             A:E1 X:FF Y:F5 P:E5 SP:FB CYC:296 SL:191
F44E  20 23 FB  JSR $FB23                       A:E1 X:FF Y:F5 P:E5 SP:FB CYC:302 SL:191
FB23  50 50     BVC $FB75                       A:E1 X:FF Y:F5 P:E5 SP:F9 CYC:320 SL:191
FB25  90 4E     BCC $FB75                       A:E1 X:FF Y:F5 P:E5 SP:F9 CYC:326 SL:191
FB27  10 4C     BPL $FB75                       A:E1 X:FF Y:F5 P:E5 SP:F9 CYC:332 SL:191
FB29  C9 E1     CMP #$E1                        A:E1 X:FF Y:F5 P:E5 SP:F9 CYC:338 SL:191
FB2B  D0 48     BNE $FB75                       A:E1 X:FF Y:F5 P:67 SP:F9 CYC:  3 SL:192
FB2D  60        RTS                             A:E1 X:FF Y:F5 P:67 SP:F9 CYC:  9 SL:192
F451  A5 47     LDA $47 = 52                    A:E1 X:FF Y:F5 P:67 SP:FB CYC: 27 SL:192
F453  C9 52     CMP #$52                        A:52 X:FF Y:F5 P:65 SP:FB CYC: 36 SL:192
F455  F0 02     BEQ $F459                       A:52 X:FF Y:F5 P:67 SP:FB CYC: 42 SL:192
F459  C8        INY                             A:52 X:FF Y:F5 P:67 SP:FB CYC: 51 SL:192
F45A  A9 29     LDA #$29                        A:52 X:FF Y:F6 P:E5 SP:FB CYC: 57 SL:192
F45C  85 47     STA $47 = 52                    A:29 X:FF Y:F6 P:65 SP:FB CYC: 63 SL:192
F45E  20 2E FB  JSR $FB2E                       A:29 X:FF Y:F6 P:65 SP:FB CYC: 72 SL:192
FB2E  B8        CLV                             A:29 X:FF Y:F6 P:65 SP:F9 CYC: 90 SL:192
FB2F  18        CLC                             A:29 X:FF Y:F6 P:25 SP:F9 CYC: 96 SL:192
FB30  A9 42     LDA #$42                        A:29 X:FF Y:F6 P:24 SP:F9 CYC:102 SL:192
FB32  60        RTS                             A:42 X:FF Y:F6 P:24 SP:F9 CYC:108 SL:192
F461  57 48    *SRE $48,X @ 47 = 29             A:42 X:FF Y:F6 P:24 SP:FB CYC:126 SL:192
F463  EA        NOP                             A:56 X:FF Y:F6 P:25 SP:FB CYC:144 SL:192
F464  EA        NOP                             A:56 X:FF Y:F6 P:25 SP:FB CYC:150 SL:192
F465  EA        NOP                             A:56 X:FF Y:F6 P:25 SP:FB CYC:156 SL:192
F466  EA        NOP                             A:56 X:FF Y:F6 P:25 SP:FB CYC:162 SL:192
F467  20 33 FB  JSR $FB33                       A:56 X:FF Y:F6 P:25 SP:FB CYC:168 SL:192
FB33  70 40     BVS $FB75                       A:56 X:FF Y:F6 P:25 SP:F9 CYC:186 SL:192
FB35  F0 3E     BEQ $FB75                       A:56 X:FF Y:F6 P:25 SP:F9 CYC:192 SL:192
FB37  30 3C     BMI $FB75                       A:56 X:FF Y:F6 P:25 SP:F9 CYC:198 SL:192
FB39  90 3A     BCC $FB75                       A:56 X:FF Y:F6 P:25 SP:F9 CYC:204 SL:192
FB3B  C9 56     CMP #$56                        A:56 X:FF Y:F6 P:25 SP:F9 CYC:210 SL:192
FB3D  D0 36     BNE $FB75                       A:56 X:FF Y:F6 P:27 SP:F9 CYC:216 SL:192
FB3F  60        RTS                             A:56 X:FF Y:F6 P:27 SP:F9 CYC:222 SL:192
F46A  A5 47     LDA $47 = 14                    A:56 X:FF Y:F6 P:27 SP:FB CYC:240 SL:192
F46C  C9 14     CMP #$14                        A:14 X:FF Y:F6 P:25 SP:FB CYC:249 SL:192
F46E  F0 02     BEQ $F472                       A:14 X:FF Y:F6 P:27 SP:FB CYC:255 SL:192
F472  C8        INY                             A:14 X:FF Y:F6 P:27 SP:FB CYC:264 SL:192
F473  A9 37     LDA #$37                        A:14 X:FF Y:F7 P:A5 SP:FB CYC:270 SL:192
F475  85 47     STA $47 = 14                    A:37 X:FF Y:F7 P:25 SP:FB CYC:276 SL:192
F477  20 40 FB  JSR $FB40                       A:37 X:FF Y:F7 P:25 SP:FB CYC:285 SL:192
FB40  24 01     BIT $01 = FF                    A:37 X:FF Y:F7 P:25 SP:F9 CYC:303 SL:192
FB42  38        SEC                             A:37 X:FF Y:F7 P:E5 SP:F9 CYC:312 SL:192
FB43  A9 75     LDA #$75                        A:37 X:FF Y:F7 P:E5 SP:F9 CYC:318 SL:192
FB45  60        RTS                             A:75 X:FF Y:F7 P:65 SP:F9 CYC:324 SL:192
F47A  57 48    *SRE $48,X @ 47 = 37             A:75 X:FF Y:F7 P:65 SP:FB CYC:  1 SL:193
F47C  EA        NOP                             A:6E X:FF Y:F7 P:65 SP:FB CYC: 19 SL:193
F47D  EA        NOP                             A:6E X:FF Y:F7 P:65 SP:FB CYC: 25 SL:193
F47E  EA        NOP                             A:6E X:FF Y:F7 P:65 SP:FB CYC: 31 SL:193
F47F  EA        NOP                             A:6E X:FF Y:F7 P:65 SP:FB CYC: 37 SL:193
F480  20 46 FB  JSR $FB46                       A:6E X:FF Y:F7 P:65 SP:FB CYC: 43 SL:193
FB46  50 2D     BVC $FB75                       A:6E X:FF Y:F7 P:65 SP:F9 CYC: 61 SL:193
FB48  F0 2B     BEQ $FB75                       A:6E X:FF Y:F7 P:65 SP:F9 CYC: 67 SL:193
FB4A  30 29     BMI $FB75                       A:6E X:FF Y:F7 P:65 SP:F9 CYC: 73 SL:193
FB4C  90 27     BCC $FB75                       A:6E X:FF Y:F7 P:65 SP:F9 CYC: 79 SL:193
FB4E  C9 6E     CMP #$6E                        A:6E X:FF Y:F7 P:65 SP:F9 CYC: 85 SL:193
FB50  D0 23     BNE $FB75                       A:6E X:FF Y:F7 P:67 SP:F9 CYC: 91 SL:193
FB52  60        RTS                             A:6E X:FF Y:F7 P:67 SP:F9 CYC: 97 SL:193
F483  A5 47     LDA $47 = 1B                    A:6E X:FF Y:F7 P:67 SP:FB CYC:115 SL:193
F485  C9 1B     CMP #$1B                        A:1B X:FF Y:F7 P:65 SP:FB CYC:124 SL:193
F487  F0 02     BEQ $F48B                       A:1B X:FF Y:F7 P:67 SP:FB CYC:130 SL:193
F48B  A9 A5     LDA #$A5                        A:1B X:FF Y:F7 P:67 SP:FB CYC:139 SL:193
F48D  8D 47 06  STA $0647 = 1B                  A:A5 X:FF Y:F7 P:E5 SP:FB CYC:145 SL:193
F490  A0 FF     LDY #$FF                        A:A5 X:FF Y:F7 P:E5 SP:FB CYC:157 SL:193
F492  20 1D FB  JSR $FB1D                       A:A5 X:FF Y:FF P:E5 SP:FB CYC:163 SL:193
FB1D  24 01     BIT $01 = FF                    A:A5 X:FF Y:FF P:E5 SP:F9 CYC:181 SL:193
FB1F  18        CLC                             A:A5 X:FF Y:FF P:E5 SP:F9 CYC:190 SL:193
FB20  A9 B3     LDA #$B3                        A:A5 X:FF Y:FF P:E4 SP:F9 CYC:196 SL:193
FB22  60        RTS                             A:B3 X:FF Y:FF P:E4 SP:F9 CYC:202 SL:193
F495  5B 48 05 *SRE $0548,Y @ 0647 = A5         A:B3 X:FF Y:FF P:E4 SP:FB CYC:220 SL:193
F498  EA        NOP                             A:E1 X:FF Y:FF P:E5 SP:FB CYC:241 SL:193
F499  EA        NOP                             A:E1 X:FF Y:FF P:E5 SP:FB CYC:247 SL:193
F49A  08        PHP                             A:E1 X:FF Y:FF P:E5 SP:FB CYC:253 SL:193
F49B  48        PHA                             A:E1 X:FF Y:FF P:E5 SP:FA CYC:262 SL:193
F49C  A0 F8     LDY #$F8                        A:E1 X:FF Y:FF P:E5 SP:F9 CYC:271 SL:193
F49E  68        PLA                             A:E1 X:FF Y:F8 P:E5 SP:F9 CYC:277 SL:193
F49F  28        PLP                             A:E1 X:FF Y:F8 P:E5 SP:FA CYC:289 SL:193
F4A0  20 23 FB  JSR $FB23                       A:E1 X:FF Y:F8 P:E5 SP:FB CYC:301 SL:193
FB23  50 50     BVC $FB75                       A:E1 X:FF Y:F8 P:E5 SP:F9 CYC:319 SL:193
FB25  90 4E     BCC $FB75                       A:E1 X:FF Y:F8 P:E5 SP:F9 CYC:325 SL:193
FB27  10 4C     BPL $FB75                       A:E1 X:FF Y:F8 P:E5 SP:F9 CYC:331 SL:193
FB29  C9 E1     CMP #$E1                        A:E1 X:FF Y:F8 P:E5 SP:F9 CYC:337 SL:193
FB2B  D0 48     BNE $FB75                       A:E1 X:FF Y:F8 P:67 SP:F9 CYC:  2 SL:194
FB2D  60        RTS                             A:E1 X:FF Y:F8 P:67 SP:F9 CYC:  8 SL:194
F4A3  AD 47 06  LDA $0647 = 52                  A:E1 X:FF Y:F8 P:67 SP:FB CYC: 26 SL:194
F4A6  C9 52     CMP #$52                        A:52 X:FF Y:F8 P:65 SP:FB CYC: 38 SL:194
F4A8  F0 02     BEQ $F4AC                       A:52 X:FF Y:F8 P:67 SP:FB CYC: 44 SL:194
F4AC  A0 FF     LDY #$FF                        A:52 X:FF Y:F8 P:67 SP:FB CYC: 53 SL:194
F4AE  A9 29     LDA #$29                        A:52 X:FF Y:FF P:E5 SP:FB CYC: 59 SL:194
F4B0  8D 47 06  STA $0647 = 52                  A:29 X:FF Y:FF P:65 SP:FB CYC: 65 SL:194
F4B3  20 2E FB  JSR $FB2E                       A:29 X:FF Y:FF P:65 SP:FB CYC: 77 SL:194
FB2E  B8        CLV                             A:29 X:FF Y:FF P:65 SP:F9 CYC: 95 SL:194
FB2F  18        CLC                             A:29 X:FF Y:FF P:25 SP:F9 CYC:101 SL:194
FB30  A9 42     LDA #$42                        A:29 X:FF Y:FF P:24 SP:F9 CYC:107 SL:194
FB32  60        RTS                             A:42 X:FF Y:FF P:24 SP:F9 CYC:113 SL:194
F4B6  5B 48 05 *SRE $0548,Y @ 0647 = 29         A:42 X:FF Y:FF P:24 SP:FB CYC:131 SL:194
F4B9  EA        NOP                             A:56 X:FF Y:FF P:25 SP:FB CYC:152 SL:194
F4BA  EA        NOP                             A:56 X:FF Y:FF P:25 SP:FB CYC:158 SL:194
F4BB  08        PHP                             A:56 X:FF Y:FF P:25 SP:FB CYC:164 SL:194
F4BC  48        PHA                             A:56 X:FF Y:FF P:25 SP:FA CYC:173 SL:194
F4BD  A0 F9     LDY #$F9                        A:56 X:FF Y:FF P:25 SP:F9 CYC:182 SL:194
F4BF  68        PLA                             A:56 X:FF Y:F9 P:A5 SP:F9 CYC:188 SL:194
F4C0  28        PLP                             A:56 X:FF Y:F9 P:25 SP:FA CYC:200 SL:194
F4C1  20 33 FB  JSR $FB33                       A:56 X:FF Y:F9 P:25 SP:FB CYC:212 SL:194
FB33  70 40     BVS $FB75                       A:56 X:FF Y:F9 P:25 SP:F9 CYC:230 SL:194
FB35  F0 3E     BEQ $FB75                       A:56 X:FF Y:F9 P:25 SP:F9 CYC:236 SL:194
FB37  30 3C     BMI $FB75                       A:56 X:FF Y:F9 P:25 SP:F9 CYC:242 SL:194
FB39  90 3A     BCC $FB75                       A:56 X:FF Y:F9 P:25 SP:F9 CYC:248 SL:194
FB3B  C9 56     CMP #$56                        A:56 X:FF Y:F9 P:25 SP:F9 CYC:254 SL:194
FB3D  D0 36     BNE $FB75                       A:56 X:FF Y:F9 P:27 SP:F9 CYC:260 SL:194
FB3F  60        RTS                             A:56 X:FF Y:F9 P:27 SP:F9 CYC:266 SL:194
F4C4  AD 47 06  LDA $0647 = 14                  A:56 X:FF Y:F9 P:27 SP:FB CYC:284 SL:194
F4C7  C9 14     CMP #$14                        A:14 X:FF Y:F9 P:25 SP:FB CYC:296 SL:194
F4C9  F0 02     BEQ $F4CD                       A:14 X:FF Y:F9 P:27 SP:FB CYC:302 SL:194
F4CD  A0 FF     LDY #$FF                        A:14 X:FF Y:F9 P:27 SP:FB CYC:311 SL:194
F4CF  A9 37     LDA #$37                        A:14 X:FF Y:FF P:A5 SP:FB CYC:317 SL:194
F4D1  8D 47 06  STA $0647 = 14                  A:37 X:FF Y:FF P:25 SP:FB CYC:323 SL:194
F4D4  20 40 FB  JSR $FB40                       A:37 X:FF Y:FF P:25 SP:FB CYC:335 SL:194
FB40  24 01     BIT $01 = FF                    A:37 X:FF Y:FF P:25 SP:F9 CYC: 12 SL:195
FB42  38        SEC                             A:37 X:FF Y:FF P:E5 SP:F9 CYC: 21 SL:195
FB43  A9 75     LDA #$75                        A:37 X:FF Y:FF P:E5 SP:F9 CYC: 27 SL:195
FB45  60        RTS                             A:75 X:FF Y:FF P:65 SP:F9 CYC: 33 SL:195
F4D7  5B 48 05 *SRE $0548,Y @ 0647 = 37         A:75 X:FF Y:FF P:65 SP:FB CYC: 51 SL:195
F4DA  EA        NOP                             A:6E X:FF Y:FF P:65 SP:FB CYC: 72 SL:195
F4DB  EA        NOP                             A:6E X:FF Y:FF P:65 SP:FB CYC: 78 SL:195
F4DC  08        PHP                             A:6E X:FF Y:FF P:65 SP:FB CYC: 84 SL:195
F4DD  48        PHA                             A:6E X:FF Y:FF P:65 SP:FA CYC: 93 SL:195
F4DE  A0 FA     LDY #$FA                        A:6E X:FF Y:FF P:65 SP:F9 CYC:102 SL:195
F4E0  68        PLA                             A:6E X:FF Y:FA P:E5 SP:F9 CYC:108 SL:195
F4E1  28        PLP                             A:6E X:FF Y:FA P:65 SP:FA CYC:120 SL:195
F4E2  20 46 FB  JSR $FB46                       A:6E X:FF Y:FA P:65 SP:FB CYC:132 SL:195
FB46  50 2D     BVC $FB75                       A:6E X:FF Y:FA P:65 SP:F9 CYC:150 SL:195
FB48  F0 2B     BEQ $FB75                       A:6E X:FF Y:FA P:65 SP:F9 CYC:156 SL:195
FB4A  30 29     BMI $FB75                       A:6E X:FF Y:FA P:65 SP:F9 CYC:162 SL:195
FB4C  90 27     BCC $FB75                       A:6E X:FF Y:FA P:65 SP:F9 CYC:168 SL:195
FB4E  C9 6E     CMP #$6E                        A:6E X:FF Y:FA P:65 SP:F9 CYC:174 SL:195
FB50  D0 23     BNE $FB75                       A:6E X:FF Y:FA P:67 SP:F9 CYC:180 SL:195
FB52  60        RTS                             A:6E X:FF Y:FA P:67 SP:F9 CYC:186 SL:195
F4E5  AD 47 06  LDA $0647 = 1B                  A:6E X:FF Y:FA P:67 SP:FB CYC:204 SL:195
F4E8  C9 1B     CMP #$1B                        A:1B X:FF Y:FA P:65 SP:FB CYC:216 SL:195
F4EA  F0 02     BEQ $F4EE                       A:1B X:FF Y:FA P:67 SP:FB CYC:222 SL:195
F4EE  A0 FB     LDY #$FB                        A:1B X:FF Y:FA P:67 SP:FB CYC:231 SL:195
F4F0  A2 FF     LDX #$FF                        A:1B X:FF Y:FB P:E5 SP:FB CYC:237 SL:195
F4F2  A9 A5     LDA #$A5                        A:1B X:FF Y:FB P:E5 SP:FB CYC:243 SL:195
F4F4  8D 47 06  STA $0647 = 1B                  A:A5 X:FF Y:FB P:E5 SP:FB CYC:249 SL:195
F4F7  20 1D FB  JSR $FB1D                       A:A5 X:FF Y:FB P:E5 SP:FB CYC:261 SL:195
FB1D  24 01     BIT $01 = FF                    A:A5 X:FF Y:FB P:E5 SP:F9 CYC:279 SL:195
FB1F  18        CLC                             A:A5 X:FF Y:FB P:E5 SP:F9 CYC:288 SL:195
FB20  A9 B3     LDA #$B3                        A:A5 X:FF Y:FB P:E4 SP:F9 CYC:294 SL:195
FB22  60        RTS                             A:B3 X:FF Y:FB P:E4 SP:F9 CYC:300 SL:195
F4FA  5F 48 05 *SRE $0548,X @ 0647 = A5         A:B3 X:FF Y:FB P:E4 SP:FB CYC:318 SL:195
F4FD  EA        NOP                             A:E1 X:FF Y:FB P:E5 SP:FB CYC:339 SL:195
F4FE  EA        NOP                             A:E1 X:FF Y:FB P:E5 SP:FB CYC:  4 SL:196
F4FF  EA        NOP                             A:E1 X:FF Y:FB P:E5 SP:FB CYC: 10 SL:196
F500  EA        NOP                             A:E1 X:FF Y:FB P:E5 SP:FB CYC: 16 SL:196
F501  20 23 FB  JSR $FB23                       A:E1 X:FF Y:FB P:E5 SP:FB CYC: 22 SL:196
FB23  50 50     BVC $FB75                       A:E1 X:FF Y:FB P:E5 SP:F9 CYC: 40 SL:196
FB25  90 4E     BCC $FB75                       A:E1 X:FF Y:FB P:E5 SP:F9 CYC: 46 SL:196
FB27  10 4C     BPL $FB75                       A:E1 X:FF Y:FB P:E5 SP:F9 CYC: 52 SL:196
FB29  C9 E1     CMP #$E1                        A:E1 X:FF Y:FB P:E5 SP:F9 CYC: 58 SL:196
FB2B  D0 48     BNE $FB75                       A:E1 X:FF Y:FB P:67 SP:F9 CYC: 64 SL:196
FB2D  60        RTS                             A:E1 X:FF Y:FB P:67 SP:F9 CYC: 70 SL:196
F504  AD 47 06  LDA $0647 = 52                  A:E1 X:FF Y:FB P:67 SP:FB CYC: 88 SL:196
F507  C9 52     CMP #$52                        A:52 X:FF Y:FB P:65 SP:FB CYC:100 SL:196
F509  F0 02     BEQ $F50D                       A:52 X:FF Y:FB P:67 SP:FB CYC:106 SL:196
F50D  C8        INY                             A:52 X:FF Y:FB P:67 SP:FB CYC:115 SL:196
F50E  A9 29     LDA #$29                        A:52 X:FF Y:FC P:E5 SP:FB CYC:121 SL:196
F510  8D 47 06  STA $0647 = 52                  A:29 X:FF Y:FC P:65 SP:FB CYC:127 SL:196
F513  20 2E FB  JSR $FB2E                       A:29 X:FF Y:FC P:65 SP:FB CYC:139 SL:196
FB2E  B8        CLV                             A:29 X:FF Y:FC P:65 SP:F9 CYC:157 SL:196
FB2F  18        CLC                             A:29 X:FF Y:FC P:25 SP:F9 CYC:163 SL:196
FB30  A9 42     LDA #$42                        A:29 X:FF Y:FC P:24 SP:F9 CYC:169 SL:196
FB32  60        RTS                             A:42 X:FF Y:FC P:24 SP:F9 CYC:175 SL:196
F516  5F 48 05 *SRE $0548,X @ 0647 = 29         A:42 X:FF Y:FC P:24 SP:FB CYC:193 SL:196
F519  EA        NOP                             A:56 X:FF Y:FC P:25 SP:FB CYC:214 SL:196
F51A  EA        NOP                             A:56 X:FF Y:FC P:25 SP:FB CYC:220 SL:196
F51B  EA        NOP                             A:56 X:FF Y:FC P:25 SP:FB CYC:226 SL:196
F51C  EA        NOP                             A:56 X:FF Y:FC P:25 SP:FB CYC:232 SL:196
F51D  20 33 FB  JSR $FB33                       A:56 X:FF Y:FC P:25 SP:FB CYC:238 SL:196
FB33  70 40     BVS $FB75                       A:56 X:FF Y:FC P:25 SP:F9 CYC:256 SL:196
FB35  F0 3E     BEQ $FB75                       A:56 X:FF Y:FC P:25 SP:F9 CYC:262 SL:196
FB37  30 3C     BMI $FB75                       A:56 X:FF Y:FC P:25 SP:F9 CYC:268 SL:196
FB39  90 3A     BCC $FB75                       A:56 X:FF Y:FC P:25 SP:F9 CYC:274 SL:196
FB3B  C9 56     CMP #$56                        A:56 X:FF Y:FC P:25 SP:F9 CYC:280 SL:196
FB3D  D0 36     BNE $FB75                       A:56 X:FF Y:FC P:27 SP:F9 CYC:286 SL:196
FB3F  60        RTS                             A:56 X:FF Y:FC P:27 SP:F9 CYC:292 SL:196
F520  AD 47 06  LDA $0647 = 14                  A:56 X:FF Y:FC P:27 SP:FB CYC:310 SL:196
F523  C9 14     CMP #$14                        A:14 X:FF Y:FC P:25 SP:FB CYC:322 SL:196
F525  F0 02     BEQ $F529                       A:14 X:FF Y:FC P:27 SP:FB CYC:328 SL:196
F529  C8        INY                             A:14 X:FF Y:FC P:27 SP:FB CYC:337 SL:196
F52A  A9 37     LDA #$37                        A:14 X:FF Y:FD P:A5 SP:FB CYC:  2 SL:197
F52C  8D 47 06  STA $0647 = 14                  A:37 X:FF Y:FD P:25 SP:FB CYC:  8 SL:197
F52F  20 40 FB  JSR $FB40                       A:37 X:FF Y:FD P:25 SP:FB CYC: 20 SL:197
FB40  24 01     BIT $01 = FF                    A:37 X:FF Y:FD P:25 SP:F9 CYC: 38 SL:197
FB42  38        SEC                             A:37 X:FF Y:FD P:E5 SP:F9 CYC: 47 SL:197
FB43  A9 75     LDA #$75                        A:37 X:FF Y:FD P:E5 SP:F9 CYC: 53 SL:197
FB45  60        RTS                             A:75 X:FF Y:FD P:65 SP:F9 CYC: 59 SL:197
F532  5F 48 05 *SRE $0548,X @ 0647 = 37         A:75 X:FF Y:FD P:65 SP:FB CYC: 77 SL:197
F535  EA        NOP                             A:6E X:FF Y:FD P:65 SP:FB CYC: 98 SL:197
F536  EA        NOP                             A:6E X:FF Y:FD P:65 SP:FB CYC:104 SL:197
F537  EA        NOP                             A:6E X:FF Y:FD P:65 SP:FB CYC:110 SL:197
F538  EA        NOP                             A:6E X:FF Y:FD P:65 SP:FB CYC:116 SL:197
F539  20 46 FB  JSR $FB46                       A:6E X:FF Y:FD P:65 SP:FB CYC:122 SL:197
FB46  50 2D     BVC $FB75                       A:6E X:FF Y:FD P:65 SP:F9 CYC:140 SL:197
FB48  F0 2B     BEQ $FB75                       A:6E X:FF Y:FD P:65 SP:F9 CYC:146 SL:197
FB4A  30 29     BMI $FB75                       A:6E X:FF Y:FD P:65 SP:F9 CYC:152 SL:197
FB4C  90 27     BCC $FB75                       A:6E X:FF Y:FD P:65 SP:F9 CYC:158 SL:197
FB4E  C9 6E     CMP #$6E                        A:6E X:FF Y:FD P:65 SP:F9 CYC:164 SL:197
FB50  D0 23     BNE $FB75                       A:6E X:FF Y:FD P:67 SP:F9 CYC:170 SL:197
FB52  60        RTS                             A:6E X:FF Y:FD P:67 SP:F9 CYC:176 SL:197
F53C  AD 47 06  LDA $0647 = 1B                  A:6E X:FF Y:FD P:67 SP:FB CYC:194 SL:197
F53F  C9 1B     CMP #$1B                        A:1B X:FF Y:FD P:65 SP:FB CYC:206 SL:197
F541  F0 02     BEQ $F545                       A:1B X:FF Y:FD P:67 SP:FB CYC:212 SL:197
F545  60        RTS                             A:1B X:FF Y:FD P:67 SP:FB CYC:221 SL:197
C64A  A5 00     LDA $00 = 00                    A:1B X:FF Y:FD P:67 SP:FD CYC:239 SL:197
C64C  85 11     STA $11 = 00                    A:00 X:FF Y:FD P:67 SP:FD CYC:248 SL:197
C64E  A9 00     LDA #$00                        A:00 X:FF Y:FD P:67 SP:FD CYC:257 SL:197
C650  85 00     STA $00 = 00                    A:00 X:FF Y:FD P:67 SP:FD CYC:263 SL:197
C652  20 46 F5  JSR $F546                       A:00 X:FF Y:FD P:67 SP:FD CYC:272 SL:197
F546  A9 FF     LDA #$FF                        A:00 X:FF Y:FD P:67 SP:FB CYC:290 SL:197
F548  85 01     STA $01 = FF                    A:FF X:FF Y:FD P:E5 SP:FB CYC:296 SL:197
F54A  A0 01     LDY #$01                        A:FF X:FF Y:FD P:E5 SP:FB CYC:305 SL:197
F54C  A2 02     LDX #$02                        A:FF X:FF Y:01 P:65 SP:FB CYC:311 SL:197
F54E  A9 47     LDA #$47                        A:FF X:02 Y:01 P:65 SP:FB CYC:317 SL:197
F550  85 47     STA $47 = 1B                    A:47 X:02 Y:01 P:65 SP:FB CYC:323 SL:197
F552  A9 06     LDA #$06                        A:47 X:02 Y:01 P:65 SP:FB CYC:332 SL:197
F554  85 48     STA $48 = 06                    A:06 X:02 Y:01 P:65 SP:FB CYC:338 SL:197
F556  A9 A5     LDA #$A5                        A:06 X:02 Y:01 P:65 SP:FB CYC:  6 SL:198
F558  8D 47 06  STA $0647 = 1B                  A:A5 X:02 Y:01 P:E5 SP:FB CYC: 12 SL:198
F55B  20 E9 FA  JSR $FAE9                       A:A5 X:02 Y:01 P:E5 SP:FB CYC: 24 SL:198
FAE9  24 01     BIT $01 = FF                    A:A5 X:02 Y:01 P:E5 SP:F9 CYC: 42 SL:198
FAEB  18        CLC                             A:A5 X:02 Y:01 P:E5 SP:F9 CYC: 51 SL:198
FAEC  A9 B2     LDA #$B2                        A:A5 X:02 Y:01 P:E4 SP:F9 CYC: 57 SL:198
FAEE  60        RTS                             A:B2 X:02 Y:01 P:E4 SP:F9 CYC: 63 SL:198
F55E  63 45    *RRA ($45,X) @ 47 = 0647 = A5    A:B2 X:02 Y:01 P:E4 SP:FB CYC: 81 SL:198
F560  EA        NOP                             A:05 X:02 Y:01 P:25 SP:FB CYC:105 SL:198
F561  EA        NOP                             A:05 X:02 Y:01 P:25 SP:FB CYC:111 SL:198
F562  EA        NOP                             A:05 X:02 Y:01 P:25 SP:FB CYC:117 SL:198
F563  EA        NOP                             A:05 X:02 Y:01 P:25 SP:FB CYC:123 SL:198
F564  20 EF FA  JSR $FAEF                       A:05 X:02 Y:01 P:25 SP:FB CYC:129 SL:198
FAEF  70 2A     BVS $FB1B                       A:05 X:02 Y:01 P:25 SP:F9 CYC:147 SL:198
FAF1  90 28     BCC $FB1B                       A:05 X:02 Y:01 P:25 SP:F9 CYC:153 SL:198
FAF3  30 26     BMI $FB1B                       A:05 X:02 Y:01 P:25 SP:F9 CYC:159 SL:198
FAF5  C9 05     CMP #$05                        A:05 X:02 Y:01 P:25 SP:F9 CYC:165 SL:198
FAF7  D0 22     BNE $FB1B                       A:05 X:02 Y:01 P:27 SP:F9 CYC:171 SL:198
FAF9  60        RTS                             A:05 X:02 Y:01 P:27 SP:F9 CYC:177 SL:198
F567  AD 47 06  LDA $0647 = 52                  A:05 X:02 Y:01 P:27 SP:FB CYC:195 SL:198
F56A  C9 52     CMP #$52                        A:52 X:02 Y:01 P:25 SP:FB CYC:207 SL:198
F56C  F0 02     BEQ $F570                       A:52 X:02 Y:01 P:27 SP:FB CYC:213 SL:198
F570  C8        INY                             A:52 X:02 Y:01 P:27 SP:FB CYC:222 SL:198
F571  A9 29     LDA #$29                        A:52 X:02 Y:02 P:25 SP:FB CYC:228 SL:198
F573  8D 47 06  STA $0647 = 52                  A:29 X:02 Y:02 P:25 SP:FB CYC:234 SL:198
F576  20 FA FA  JSR $FAFA                       A:29 X:02 Y:02 P:25 SP:FB CYC:246 SL:198
FAFA  B8        CLV                             A:29 X:02 Y:02 P:25 SP:F9 CYC:264 SL:198
FAFB  18        CLC                             A:29 X:02 Y:02 P:25 SP:F9 CYC:270 SL:198
FAFC  A9 42     LDA #$42                        A:29 X:02 Y:02 P:24 SP:F9 CYC:276 SL:198
FAFE  60        RTS                             A:42 X:02 Y:02 P:24 SP:F9 CYC:282 SL:198
F579  63 45    *RRA ($45,X) @ 47 = 0647 = 29    A:42 X:02 Y:02 P:24 SP:FB CYC:300 SL:198
F57B  EA        NOP                             A:57 X:02 Y:02 P:24 SP:FB CYC:324 SL:198
F57C  EA        NOP                             A:57 X:02 Y:02 P:24 SP:FB CYC:330 SL:198
F57D  EA        NOP                             A:57 X:02 Y:02 P:24 SP:FB CYC:336 SL:198
F57E  EA        NOP                             A:57 X:02 Y:02 P:24 SP:FB CYC:  1 SL:199
F57F  20 FF FA  JSR $FAFF                       A:57 X:02 Y:02 P:24 SP:FB CYC:  7 SL:199
FAFF  70 1A     BVS $FB1B                       A:57 X:02 Y:02 P:24 SP:F9 CYC: 25 SL:199
FB01  30 18     BMI $FB1B                       A:57 X:02 Y:02 P:24 SP:F9 CYC: 31 SL:199
FB03  B0 16     BCS $FB1B                       A:57 X:02 Y:02 P:24 SP:F9 CYC: 37 SL:199
FB05  C9 57     CMP #$57                        A:57 X:02 Y:02 P:24 SP:F9 CYC: 43 SL:199
FB07  D0 12     BNE $FB1B                       A:57 X:02 Y:02 P:27 SP:F9 CYC: 49 SL:199
FB09  60        RTS                             A:57 X:02 Y:02 P:27 SP:F9 CYC: 55 SL:199
F582  AD 47 06  LDA $0647 = 14                  A:57 X:02 Y:02 P:27 SP:FB CYC: 73 SL:199
F585  C9 14     CMP #$14                        A:14 X:02 Y:02 P:25 SP:FB CYC: 85 SL:199
F587  F0 02     BEQ $F58B                       A:14 X:02 Y:02 P:27 SP:FB CYC: 91 SL:199
F58B  C8        INY                             A:14 X:02 Y:02 P:27 SP:FB CYC:100 SL:199
F58C  A9 37     LDA #$37                        A:14 X:02 Y:03 P:25 SP:FB CYC:106 SL:199
F58E  8D 47 06  STA $0647 = 14                  A:37 X:02 Y:03 P:25 SP:FB CYC:112 SL:199
F591  20 0A FB  JSR $FB0A                       A:37 X:02 Y:03 P:25 SP:FB CYC:124 SL:199
FB0A  24 01     BIT $01 = FF                    A:37 X:02 Y:03 P:25 SP:F9 CYC:142 SL:199
FB0C  38        SEC                             A:37 X:02 Y:03 P:E5 SP:F9 CYC:151 SL:199
FB0D  A9 75     LDA #$75                        A:37 X:02 Y:03 P:E5 SP:F9 CYC:157 SL:199
FB0F  60        RTS                             A:75 X:02 Y:03 P:65 SP:F9 CYC:163 SL:199
F594  63 45    *RRA ($45,X) @ 47 = 0647 = 37    A:75 X:02 Y:03 P:65 SP:FB CYC:181 SL:199
F596  EA        NOP                             A:11 X:02 Y:03 P:25 SP:FB CYC:205 SL:199
F597  EA        NOP                             A:11 X:02 Y:03 P:25 SP:FB CYC:211 SL:199
F598  EA        NOP                             A:11 X:02 Y:03 P:25 SP:FB CYC:217 SL:199
F599  EA        NOP                             A:11 X:02 Y:03 P:25 SP:FB CYC:223 SL:199
F59A  20 10 FB  JSR $FB10                       A:11 X:02 Y:03 P:25 SP:FB CYC:229 SL:199
FB10  70 09     BVS $FB1B                       A:11 X:02 Y:03 P:25 SP:F9 CYC:247 SL:199
FB12  30 07     BMI $FB1B                       A:11 X:02 Y:03 P:25 SP:F9 CYC:253 SL:199
FB14  90 05     BCC $FB1B                       A:11 X:02 Y:03 P:25 SP:F9 CYC:259 SL:199
FB16  C9 11     CMP #$11                        A:11 X:02 Y:03 P:25 SP:F9 CYC:265 SL:199
FB18  D0 01     BNE $FB1B                       A:11 X:02 Y:03 P:27 SP:F9 CYC:271 SL:199
FB1A  60        RTS                             A:11 X:02 Y:03 P:27 SP:F9 CYC:277 SL:199
F59D  AD 47 06  LDA $0647 = 9B                  A:11 X:02 Y:03 P:27 SP:FB CYC:295 SL:199
F5A0  C9 9B     CMP #$9B                        A:9B X:02 Y:03 P:A5 SP:FB CYC:307 SL:199
F5A2  F0 02     BEQ $F5A6                       A:9B X:02 Y:03 P:27 SP:FB CYC:313 SL:199
F5A6  C8        INY                             A:9B X:02 Y:03 P:27 SP:FB CYC:322 SL:199
F5A7  A9 A5     LDA #$A5                        A:9B X:02 Y:04 P:25 SP:FB CYC:328 SL:199
F5A9  85 47     STA $47 = 47                    A:A5 X:02 Y:04 P:A5 SP:FB CYC:334 SL:199
F5AB  20 E9 FA  JSR $FAE9                       A:A5 X:02 Y:04 P:A5 SP:FB CYC:  2 SL:200
FAE9  24 01     BIT $01 = FF                    A:A5 X:02 Y:04 P:A5 SP:F9 CYC: 20 SL:200
FAEB  18        CLC                             A:A5 X:02 Y:04 P:E5 SP:F9 CYC: 29 SL:200
FAEC  A9 B2     LDA #$B2                        A:A5 X:02 Y:04 P:E4 SP:F9 CYC: 35 SL:200
FAEE  60        RTS                             A:B2 X:02 Y:04 P:E4 SP:F9 CYC: 41 SL:200
F5AE  67 47    *RRA $47 = A5                    A:B2 X:02 Y:04 P:E4 SP:FB CYC: 59 SL:200
F5B0  EA        NOP                             A:05 X:02 Y:04 P:25 SP:FB CYC: 74 SL:200
F5B1  EA        NOP                             A:05 X:02 Y:04 P:25 SP:FB CYC: 80 SL:200
F5B2  EA        NOP                             A:05 X:02 Y:04 P:25 SP:FB CYC: 86 SL:200
F5B3  EA        NOP                             A:05 X:02 Y:04 P:25 SP:FB CYC: 92 SL:200
F5B4  20 EF FA  JSR $FAEF                       A:05 X:02 Y:04 P:25 SP:FB CYC: 98 SL:200
FAEF  70 2A     BVS $FB1B                       A:05 X:02 Y:04 P:25 SP:F9 CYC:116 SL:200
FAF1  90 28     BCC $FB1B                       A:05 X:02 Y:04 P:25 SP:F9 CYC:122 SL:200
FAF3  30 26     BMI $FB1B                       A:05 X:02 Y:04 P:25 SP:F9 CYC:128 SL:200
FAF5  C9 05     CMP #$05                        A:05 X:02 Y:04 P:25 SP:F9 CYC:134 SL:200
FAF7  D0 22     BNE $FB1B                       A:05 X:02 Y:04 P:27 SP:F9 CYC:140 SL:200
FAF9  60        RTS                             A:05 X:02 Y:04 P:27 SP:F9 CYC:146 SL:200
F5B7  A5 47     LDA $47 = 52                    A:05 X:02 Y:04 P:27 SP:FB CYC:164 SL:200
F5B9  C9 52     CMP #$52                        A:52 X:02 Y:04 P:25 SP:FB CYC:173 SL:200
F5BB  F0 02     BEQ $F5BF                       A:52 X:02 Y:04 P:27 SP:FB CYC:179 SL:200
F5BF  C8        INY                             A:52 X:02 Y:04 P:27 SP:FB CYC:188 SL:200
F5C0  A9 29     LDA #$29                        A:52 X:02 Y:05 P:25 SP:FB CYC:194 SL:200
F5C2  85 47     STA $47 = 52                    A:29 X:02 Y:05 P:25 SP:FB CYC:200 SL:200
F5C4  20 FA FA  JSR $FAFA                       A:29 X:02 Y:05 P:25 SP:FB CYC:209 SL:200
FAFA  B8        CLV                             A:29 X:02 Y:05 P:25 SP:F9 CYC:227 SL:200
FAFB  18        CLC                             A:29 X:02 Y:05 P:25 SP:F9 CYC:233 SL:200
FAFC  A9 42     LDA #$42                        A:29 X:02 Y:05 P:24 SP:F9 CYC:239 SL:200
FAFE  60        RTS                             A:42 X:02 Y:05 P:24 SP:F9 CYC:245 SL:200
F5C7  67 47    *RRA $47 = 29                    A:42 X:02 Y:05 P:24 SP:FB CYC:263 SL:200
F5C9  EA        NOP                             A:57 X:02 Y:05 P:24 SP:FB CYC:278 SL:200
F5CA  EA        NOP                             A:57 X:02 Y:05 P:24 SP:FB CYC:284 SL:200
F5CB  EA        NOP                             A:57 X:02 Y:05 P:24 SP:FB CYC:290 SL:200
F5CC  EA        NOP                             A:57 X:02 Y:05 P:24 SP:FB CYC:296 SL:200
F5CD  20 FF FA  JSR $FAFF                       A:57 X:02 Y:05 P:24 SP:FB CYC:302 SL:200
FAFF  70 1A     BVS $FB1B                       A:57 X:02 Y:05 P:24 SP:F9 CYC:320 SL:200
FB01  30 18     BMI $FB1B                       A:57 X:02 Y:05 P:24 SP:F9 CYC:326 SL:200
FB03  B0 16     BCS $FB1B                       A:57 X:02 Y:05 P:24 SP:F9 CYC:332 SL:200
FB05  C9 57     CMP #$57                        A:57 X:02 Y:05 P:24 SP:F9 CYC:338 SL:200
FB07  D0 12     BNE $FB1B                       A:57 X:02 Y:05 P:27 SP:F9 CYC:  3 SL:201
FB09  60        RTS                             A:57 X:02 Y:05 P:27 SP:F9 CYC:  9 SL:201
F5D0  A5 47     LDA $47 = 14                    A:57 X:02 Y:05 P:27 SP:FB CYC: 27 SL:201
F5D2  C9 14     CMP #$14                        A:14 X:02 Y:05 P:25 SP:FB CYC: 36 SL:201
F5D4  F0 02     BEQ $F5D8                       A:14 X:02 Y:05 P:27 SP:FB CYC: 42 SL:201
F5D8  C8        INY                             A:14 X:02 Y:05 P:27 SP:FB CYC: 51 SL:201
F5D9  A9 37     LDA #$37                        A:14 X:02 Y:06 P:25 SP:FB CYC: 57 SL:201
F5DB  85 47     STA $47 = 14                    A:37 X:02 Y:06 P:25 SP:FB CYC: 63 SL:201
F5DD  20 0A FB  JSR $FB0A                       A:37 X:02 Y:06 P:25 SP:FB CYC: 72 SL:201
FB0A  24 01     BIT $01 = FF                    A:37 X:02 Y:06 P:25 SP:F9 CYC: 90 SL:201
FB0C  38        SEC                             A:37 X:02 Y:06 P:E5 SP:F9 CYC: 99 SL:201
FB0D  A9 75     LDA #$75                        A:37 X:02 Y:06 P:E5 SP:F9 CYC:105 SL:201
FB0F  60        RTS                             A:75 X:02 Y:06 P:65 SP:F9 CYC:111 SL:201
F5E0  67 47    *RRA $47 = 37                    A:75 X:02 Y:06 P:65 SP:FB CYC:129 SL:201
F5E2  EA        NOP                             A:11 X:02 Y:06 P:25 SP:FB CYC:144 SL:201
F5E3  EA        NOP                             A:11 X:02 Y:06 P:25 SP:FB CYC:150 SL:201
F5E4  EA        NOP                             A:11 X:02 Y:06 P:25 SP:FB CYC:156 SL:201
F5E5  EA        NOP                             A:11 X:02 Y:06 P:25 SP:FB CYC:162 SL:201
F5E6  20 10 FB  JSR $FB10                       A:11 X:02 Y:06 P:25 SP:FB CYC:168 SL:201
FB10  70 09     BVS $FB1B                       A:11 X:02 Y:06 P:25 SP:F9 CYC:186 SL:201
FB12  30 07     BMI $FB1B                       A:11 X:02 Y:06 P:25 SP:F9 CYC:192 SL:201
FB14  90 05     BCC $FB1B                       A:11 X:02 Y:06 P:25 SP:F9 CYC:198 SL:201
FB16  C9 11     CMP #$11                        A:11 X:02 Y:06 P:25 SP:F9 CYC:204 SL:201
FB18  D0 01     BNE $FB1B                       A:11 X:02 Y:06 P:27 SP:F9 CYC:210 SL:201
FB1A  60        RTS                             A:11 X:02 Y:06 P:27 SP:F9 CYC:216 SL:201
F5E9  A5 47     LDA $47 = 9B                    A:11 X:02 Y:06 P:27 SP:FB CYC:234 SL:201
F5EB  C9 9B     CMP #$9B                        A:9B X:02 Y:06 P:A5 SP:FB CYC:243 SL:201
F5ED  F0 02     BEQ $F5F1                       A:9B X:02 Y:06 P:27 SP:FB CYC:249 SL:201
F5F1  C8        INY                             A:9B X:02 Y:06 P:27 SP:FB CYC:258 SL:201
F5F2  A9 A5     LDA #$A5                        A:9B X:02 Y:07 P:25 SP:FB CYC:264 SL:201
F5F4  8D 47 06  STA $0647 = 9B                  A:A5 X:02 Y:07 P:A5 SP:FB CYC:270 SL:201
F5F7  20 E9 FA  JSR $FAE9                       A:A5 X:02 Y:07 P:A5 SP:FB CYC:282 SL:201
FAE9  24 01     BIT $01 = FF                    A:A5 X:02 Y:07 P:A5 SP:F9 CYC:300 SL:201
FAEB  18        CLC                             A:A5 X:02 Y:07 P:E5 SP:F9 CYC:309 SL:201
FAEC  A9 B2     LDA #$B2                        A:A5 X:02 Y:07 P:E4 SP:F9 CYC:315 SL:201
FAEE  60        RTS                             A:B2 X:02 Y:07 P:E4 SP:F9 CYC:321 SL:201
F5FA  6F 47 06 *RRA $0647 = A5                  A:B2 X:02 Y:07 P:E4 SP:FB CYC:339 SL:201
F5FD  EA        NOP                             A:05 X:02 Y:07 P:25 SP:FB CYC: 16 SL:202
F5FE  EA        NOP                             A:05 X:02 Y:07 P:25 SP:FB CYC: 22 SL:202
F5FF  EA        NOP                             A:05 X:02 Y:07 P:25 SP:FB CYC: 28 SL:202
F600  EA        NOP                             A:05 X:02 Y:07 P:25 SP:FB CYC: 34 SL:202
F601  20 EF FA  JSR $FAEF                       A:05 X:02 Y:07 P:25 SP:FB CYC: 40 SL:202
FAEF  70 2A     BVS $FB1B                       A:05 X:02 Y:07 P:25 SP:F9 CYC: 58 SL:202
FAF1  90 28     BCC $FB1B                       A:05 X:02 Y:07 P:25 SP:F9 CYC: 64 SL:202
FAF3  30 26     BMI $FB1B                       A:05 X:02 Y:07 P:25 SP:F9 CYC: 70 SL:202
FAF5  C9 05     CMP #$05                        A:05 X:02 Y:07 P:25 SP:F9 CYC: 76 SL:202
FAF7  D0 22     BNE $FB1B                       A:05 X:02 Y:07 P:27 SP:F9 CYC: 82 SL:202
FAF9  60        RTS                             A:05 X:02 Y:07 P:27 SP:F9 CYC: 88 SL:202
F604  AD 47 06  LDA $0647 = 52                  A:05 X:02 Y:07 P:27 SP:FB CYC:106 SL:202
F607  C9 52     CMP #$52                        A:52 X:02 Y:07 P:25 SP:FB CYC:118 SL:202
F609  F0 02     BEQ $F60D                       A:52 X:02 Y:07 P:27 SP:FB CYC:124 SL:202
F60D  C8        INY                             A:52 X:02 Y:07 P:27 SP:FB CYC:133 SL:202
F60E  A9 29     LDA #$29                        A:52 X:02 Y:08 P:25 SP:FB CYC:139 SL:202
F610  8D 47 06  STA $0647 = 52                  A:29 X:02 Y:08 P:25 SP:FB CYC:145 SL:202
F613  20 FA FA  JSR $FAFA                       A:29 X:02 Y:08 P:25 SP:FB CYC:157 SL:202
FAFA  B8        CLV                             A:29 X:02 Y:08 P:25 SP:F9 CYC:175 SL:202
FAFB  18        CLC                             A:29 X:02 Y:08 P:25 SP:F9 CYC:181 SL:202
FAFC  A9 42     LDA #$42                        A:29 X:02 Y:08 P:24 SP:F9 CYC:187 SL:202
FAFE  60        RTS                             A:42 X:02 Y:08 P:24 SP:F9 CYC:193 SL:202
F616  6F 47 06 *RRA $0647 = 29                  A:42 X:02 Y:08 P:24 SP:FB CYC:211 SL:202
F619  EA        NOP                             A:57 X:02 Y:08 P:24 SP:FB CYC:229 SL:202
F61A  EA        NOP                             A:57 X:02 Y:08 P:24 SP:FB CYC:235 SL:202
F61B  EA        NOP                             A:57 X:02 Y:08 P:24 SP:FB CYC:241 SL:202
F61C  EA        NOP                             A:57 X:02 Y:08 P:24 SP:FB CYC:247 SL:202
F61D  20 FF FA  JSR $FAFF                       A:57 X:02 Y:08 P:24 SP:FB CYC:253 SL:202
FAFF  70 1A     BVS $FB1B                       A:57 X:02 Y:08 P:24 SP:F9 CYC:271 SL:202
FB01  30 18     BMI $FB1B                       A:57 X:02 Y:08 P:24 SP:F9 CYC:277 SL:202
FB03  B0 16     BCS $FB1B                       A:57 X:02 Y:08 P:24 SP:F9 CYC:283 SL:202
FB05  C9 57     CMP #$57                        A:57 X:02 Y:08 P:24 SP:F9 CYC:289 SL:202
FB07  D0 12     BNE $FB1B                       A:57 X:02 Y:08 P:27 SP:F9 CYC:295 SL:202
FB09  60        RTS                             A:57 X:02 Y:08 P:27 SP:F9 CYC:301 SL:202
F620  AD 47 06  LDA $0647 = 14                  A:57 X:02 Y:08 P:27 SP:FB CYC:319 SL:202
F623  C9 14     CMP #$14                        A:14 X:02 Y:08 P:25 SP:FB CYC:331 SL:202
F625  F0 02     BEQ $F629                       A:14 X:02 Y:08 P:27 SP:FB CYC:337 SL:202
F629  C8        INY                             A:14 X:02 Y:08 P:27 SP:FB CYC:  5 SL:203
F62A  A9 37     LDA #$37                        A:14 X:02 Y:09 P:25 SP:FB CYC: 11 SL:203
F62C  8D 47 06  STA $0647 = 14                  A:37 X:02 Y:09 P:25 SP:FB CYC: 17 SL:203
F62F  20 0A FB  JSR $FB0A                       A:37 X:02 Y:09 P:25 SP:FB CYC: 29 SL:203
FB0A  24 01     BIT $01 = FF                    A:37 X:02 Y:09 P:25 SP:F9 CYC: 47 SL:203
FB0C  38        SEC                             A:37 X:02 Y:09 P:E5 SP:F9 CYC: 56 SL:203
FB0D  A9 75     LDA #$75                        A:37 X:02 Y:09 P:E5 SP:F9 CYC: 62 SL:203
FB0F  60        RTS                             A:75 X:02 Y:09 P:65 SP:F9 CYC: 68 SL:203
F632  6F 47 06 *RRA $0647 = 37                  A:75 X:02 Y:09 P:65 SP:FB CYC: 86 SL:203
F635  EA        NOP                             A:11 X:02 Y:09 P:25 SP:FB CYC:104 SL:203
F636  EA        NOP                             A:11 X:02 Y:09 P:25 SP:FB CYC:110 SL:203
F637  EA        NOP                             A:11 X:02 Y:09 P:25 SP:FB CYC:116 SL:203
F638  EA        NOP                             A:11 X:02 Y:09 P:25 SP:FB CYC:122 SL:203
F639  20 10 FB  JSR $FB10                       A:11 X:02 Y:09 P:25 SP:FB CYC:128 SL:203
FB10  70 09     BVS $FB1B                       A:11 X:02 Y:09 P:25 SP:F9 CYC:146 SL:203
FB12  30 07     BMI $FB1B                       A:11 X:02 Y:09 P:25 SP:F9 CYC:152 SL:203
FB14  90 05     BCC $FB1B                       A:11 X:02 Y:09 P:25 SP:F9 CYC:158 SL:203
FB16  C9 11     CMP #$11                        A:11 X:02 Y:09 P:25 SP:F9 CYC:164 SL:203
FB18  D0 01     BNE $FB1B                       A:11 X:02 Y:09 P:27 SP:F9 CYC:170 SL:203
FB1A  60        RTS                             A:11 X:02 Y:09 P:27 SP:F9 CYC:176 SL:203
F63C  AD 47 06  LDA $0647 = 9B                  A:11 X:02 Y:09 P:27 SP:FB CYC:194 SL:203
F63F  C9 9B     CMP #$9B                        A:9B X:02 Y:09 P:A5 SP:FB CYC:206 SL:203
F641  F0 02     BEQ $F645                       A:9B X:02 Y:09 P:27 SP:FB CYC:212 SL:203
F645  A9 A5     LDA #$A5                        A:9B X:02 Y:09 P:27 SP:FB CYC:221 SL:203
F647  8D 47 06  STA $0647 = 9B                  A:A5 X:02 Y:09 P:A5 SP:FB CYC:227 SL:203
F64A  A9 48     LDA #$48                        A:A5 X:02 Y:09 P:A5 SP:FB CYC:239 SL:203
F64C  85 45     STA $45 = 48                    A:48 X:02 Y:09 P:25 SP:FB CYC:245 SL:203
F64E  A9 05     LDA #$05                        A:48 X:02 Y:09 P:25 SP:FB CYC:254 SL:203
F650  85 46     STA $46 = 05                    A:05 X:02 Y:09 P:25 SP:FB CYC:260 SL:203
F652  A0 FF     LDY #$FF                        A:05 X:02 Y:09 P:25 SP:FB CYC:269 SL:203
F654  20 E9 FA  JSR $FAE9                       A:05 X:02 Y:FF P:A5 SP:FB CYC:275 SL:203
FAE9  24 01     BIT $01 = FF                    A:05 X:02 Y:FF P:A5 SP:F9 CYC:293 SL:203
FAEB  18        CLC                             A:05 X:02 Y:FF P:E5 SP:F9 CYC:302 SL:203
FAEC  A9 B2     LDA #$B2                        A:05 X:02 Y:FF P:E4 SP:F9 CYC:308 SL:203
FAEE  60        RTS                             A:B2 X:02 Y:FF P:E4 SP:F9 CYC:314 SL:203
F657  73 45    *RRA ($45),Y = 0548 @ 0647 = A5  A:B2 X:02 Y:FF P:E4 SP:FB CYC:332 SL:203
F659  EA        NOP                             A:05 X:02 Y:FF P:25 SP:FB CYC: 15 SL:204
F65A  EA        NOP                             A:05 X:02 Y:FF P:25 SP:FB CYC: 21 SL:204
F65B  08        PHP                             A:05 X:02 Y:FF P:25 SP:FB CYC: 27 SL:204
F65C  48        PHA                             A:05 X:02 Y:FF P:25 SP:FA CYC: 36 SL:204
F65D  A0 0A     LDY #$0A                        A:05 X:02 Y:FF P:25 SP:F9 CYC: 45 SL:204
F65F  68        PLA                             A:05 X:02 Y:0A P:25 SP:F9 CYC: 51 SL:204
F660  28        PLP                             A:05 X:02 Y:0A P:25 SP:FA CYC: 63 SL:204
F661  20 EF FA  JSR $FAEF                       A:05 X:02 Y:0A P:25 SP:FB CYC: 75 SL:204
FAEF  70 2A     BVS $FB1B                       A:05 X:02 Y:0A P:25 SP:F9 CYC: 93 SL:204
FAF1  90 28     BCC $FB1B                       A:05 X:02 Y:0A P:25 SP:F9 CYC: 99 SL:204
FAF3  30 26     BMI $FB1B                       A:05 X:02 Y:0A P:25 SP:F9 CYC:105 SL:204
FAF5  C9 05     CMP #$05                        A:05 X:02 Y:0A P:25 SP:F9 CYC:111 SL:204
FAF7  D0 22     BNE $FB1B                       A:05 X:02 Y:0A P:27 SP:F9 CYC:117 SL:204
FAF9  60        RTS                             A:05 X:02 Y:0A P:27 SP:F9 CYC:123 SL:204
F664  AD 47 06  LDA $0647 = 52                  A:05 X:02 Y:0A P:27 SP:FB CYC:141 SL:204
F667  C9 52     CMP #$52                        A:52 X:02 Y:0A P:25 SP:FB CYC:153 SL:204
F669  F0 02     BEQ $F66D                       A:52 X:02 Y:0A P:27 SP:FB CYC:159 SL:204
F66D  A0 FF     LDY #$FF                        A:52 X:02 Y:0A P:27 SP:FB CYC:168 SL:204
F66F  A9 29     LDA #$29                        A:52 X:02 Y:FF P:A5 SP:FB CYC:174 SL:204
F671  8D 47 06  STA $0647 = 52                  A:29 X:02 Y:FF P:25 SP:FB CYC:180 SL:204
F674  20 FA FA  JSR $FAFA                       A:29 X:02 Y:FF P:25 SP:FB CYC:192 SL:204
FAFA  B8        CLV                             A:29 X:02 Y:FF P:25 SP:F9 CYC:210 SL:204
FAFB  18        CLC                             A:29 X:02 Y:FF P:25 SP:F9 CYC:216 SL:204
FAFC  A9 42     LDA #$42                        A:29 X:02 Y:FF P:24 SP:F9 CYC:222 SL:204
FAFE  60        RTS                             A:42 X:02 Y:FF P:24 SP:F9 CYC:228 SL:204
F677  73 45    *RRA ($45),Y = 0548 @ 0647 = 29  A:42 X:02 Y:FF P:24 SP:FB CYC:246 SL:204
F679  EA        NOP                             A:57 X:02 Y:FF P:24 SP:FB CYC:270 SL:204
F67A  EA        NOP                             A:57 X:02 Y:FF P:24 SP:FB CYC:276 SL:204
F67B  08        PHP                             A:57 X:02 Y:FF P:24 SP:FB CYC:282 SL:204
F67C  48        PHA                             A:57 X:02 Y:FF P:24 SP:FA CYC:291 SL:204
F67D  A0 0B     LDY #$0B                        A:57 X:02 Y:FF P:24 SP:F9 CYC:300 SL:204
F67F  68        PLA                             A:57 X:02 Y:0B P:24 SP:F9 CYC:306 SL:204
F680  28        PLP                             A:57 X:02 Y:0B P:24 SP:FA CYC:318 SL:204
F681  20 FF FA  JSR $FAFF                       A:57 X:02 Y:0B P:24 SP:FB CYC:330 SL:204
FAFF  70 1A     BVS $FB1B                       A:57 X:02 Y:0B P:24 SP:F9 CYC:  7 SL:205
FB01  30 18     BMI $FB1B                       A:57 X:02 Y:0B P:24 SP:F9 CYC: 13 SL:205
FB03  B0 16     BCS $FB1B                       A:57 X:02 Y:0B P:24 SP:F9 CYC: 19 SL:205
FB05  C9 57     CMP #$57                        A:57 X:02 Y:0B P:24 SP:F9 CYC: 25 SL:205
FB07  D0 12     BNE $FB1B                       A:57 X:02 Y:0B P:27 SP:F9 CYC: 31 SL:205
FB09  60        RTS                             A:57 X:02 Y:0B P:27 SP:F9 CYC: 37 SL:205
F684  AD 47 06  LDA $0647 = 14                  A:57 X:02 Y:0B P:27 SP:FB CYC: 55 SL:205
F687  C9 14     CMP #$14                        A:14 X:02 Y:0B P:25 SP:FB CYC: 67 SL:205
F689  F0 02     BEQ $F68D                       A:14 X:02 Y:0B P:27 SP:FB CYC: 73 SL:205
F68D  A0 FF     LDY #$FF                        A:14 X:02 Y:0B P:27 SP:FB CYC: 82 SL:205
F68F  A9 37     LDA #$37                        A:14 X:02 Y:FF P:A5 SP:FB CYC: 88 SL:205
F691  8D 47 06  STA $0647 = 14                  A:37 X:02 Y:FF P:25 SP:FB CYC: 94 SL:205
F694  20 0A FB  JSR $FB0A                       A:37 X:02 Y:FF P:25 SP:FB CYC:106 SL:205
FB0A  24 01     BIT $01 = FF                    A:37 X:02 Y:FF P:25 SP:F9 CYC:124 SL:205
FB0C  38        SEC                             A:37 X:02 Y:FF P:E5 SP:F9 CYC:133 SL:205
FB0D  A9 75     LDA #$75                        A:37 X:02 Y:FF P:E5 SP:F9 CYC:139 SL:205
FB0F  60        RTS                             A:75 X:02 Y:FF P:65 SP:F9 CYC:145 SL:205
F697  73 45    *RRA ($45),Y = 0548 @ 0647 = 37  A:75 X:02 Y:FF P:65 SP:FB CYC:163 SL:205
F699  EA        NOP                             A:11 X:02 Y:FF P:25 SP:FB CYC:187 SL:205
F69A  EA        NOP                             A:11 X:02 Y:FF P:25 SP:FB CYC:193 SL:205
F69B  08        PHP                             A:11 X:02 Y:FF P:25 SP:FB CYC:199 SL:205
F69C  48        PHA                             A:11 X:02 Y:FF P:25 SP:FA CYC:208 SL:205
F69D  A0 0C     LDY #$0C                        A:11 X:02 Y:FF P:25 SP:F9 CYC:217 SL:205
F69F  68        PLA                             A:11 X:02 Y:0C P:25 SP:F9 CYC:223 SL:205
F6A0  28        PLP                             A:11 X:02 Y:0C P:25 SP:FA CYC:235 SL:205
F6A1  20 10 FB  JSR $FB10                       A:11 X:02 Y:0C P:25 SP:FB CYC:247 SL:205
FB10  70 09     BVS $FB1B                       A:11 X:02 Y:0C P:25 SP:F9 CYC:265 SL:205
FB12  30 07     BMI $FB1B                       A:11 X:02 Y:0C P:25 SP:F9 CYC:271 SL:205
FB14  90 05     BCC $FB1B                       A:11 X:02 Y:0C P:25 SP:F9 CYC:277 SL:205
FB16  C9 11     CMP #$11                        A:11 X:02 Y:0C P:25 SP:F9 CYC:283 SL:205
FB18  D0 01     BNE $FB1B                       A:11 X:02 Y:0C P:27 SP:F9 CYC:289 SL:205
FB1A  60        RTS                             A:11 X:02 Y:0C P:27 SP:F9 CYC:295 SL:205
F6A4  AD 47 06  LDA $0647 = 9B                  A:11 X:02 Y:0C P:27 SP:FB CYC:313 SL:205
F6A7  C9 9B     CMP #$9B                        A:9B X:02 Y:0C P:A5 SP:FB CYC:325 SL:205
F6A9  F0 02     BEQ $F6AD                       A:9B X:02 Y:0C P:27 SP:FB CYC:331 SL:205
F6AD  A0 0D     LDY #$0D                        A:9B X:02 Y:0C P:27 SP:FB CYC:340 SL:205
F6AF  A2 FF     LDX #$FF                        A:9B X:02 Y:0D P:25 SP:FB CYC:  5 SL:206
F6B1  A9 A5     LDA #$A5                        A:9B X:FF Y:0D P:A5 SP:FB CYC: 11 SL:206
F6B3  85 47     STA $47 = 9B                    A:A5 X:FF Y:0D P:A5 SP:FB CYC: 17 SL:206
F6B5  20 E9 FA  JSR $FAE9                       A:A5 X:FF Y:0D P:A5 SP:FB CYC: 26 SL:206
FAE9  24 01     BIT $01 = FF                    A:A5 X:FF Y:0D P:A5 SP:F9 CYC: 44 SL:206
FAEB  18        CLC                             A:A5 X:FF Y:0D P:E5 SP:F9 CYC: 53 SL:206
FAEC  A9 B2     LDA #$B2                        A:A5 X:FF Y:0D P:E4 SP:F9 CYC: 59 SL:206
FAEE  60        RTS                             A:B2 X:FF Y:0D P:E4 SP:F9 CYC: 65 SL:206
F6B8  77 48    *RRA $48,X @ 47 = A5             A:B2 X:FF Y:0D P:E4 SP:FB CYC: 83 SL:206
F6BA  EA        NOP                             A:05 X:FF Y:0D P:25 SP:FB CYC:101 SL:206
F6BB  EA        NOP                             A:05 X:FF Y:0D P:25 SP:FB CYC:107 SL:206
F6BC  EA        NOP                             A:05 X:FF Y:0D P:25 SP:FB CYC:113 SL:206
F6BD  EA        NOP                             A:05 X:FF Y:0D P:25 SP:FB CYC:119 SL:206
F6BE  20 EF FA  JSR $FAEF                       A:05 X:FF Y:0D P:25 SP:FB CYC:125 SL:206
FAEF  70 2A     BVS $FB1B                       A:05 X:FF Y:0D P:25 SP:F9 CYC:143 SL:206
FAF1  90 28     BCC $FB1B                       A:05 X:FF Y:0D P:25 SP:F9 CYC:149 SL:206
FAF3  30 26     BMI $FB1B                       A:05 X:FF Y:0D P:25 SP:F9 CYC:155 SL:206
FAF5  C9 05     CMP #$05                        A:05 X:FF Y:0D P:25 SP:F9 CYC:161 SL:206
FAF7  D0 22     BNE $FB1B                       A:05 X:FF Y:0D P:27 SP:F9 CYC:167 SL:206
FAF9  60        RTS                             A:05 X:FF Y:0D P:27 SP:F9 CYC:173 SL:206
F6C1  A5 47     LDA $47 = 52                    A:05 X:FF Y:0D P:27 SP:FB CYC:191 SL:206
F6C3  C9 52     CMP #$52                        A:52 X:FF Y:0D P:25 SP:FB CYC:200 SL:206
F6C5  F0 02     BEQ $F6C9                       A:52 X:FF Y:0D P:27 SP:FB CYC:206 SL:206
F6C9  C8        INY                             A:52 X:FF Y:0D P:27 SP:FB CYC:215 SL:206
F6CA  A9 29     LDA #$29                        A:52 X:FF Y:0E P:25 SP:FB CYC:221 SL:206
F6CC  85 47     STA $47 = 52                    A:29 X:FF Y:0E P:25 SP:FB CYC:227 SL:206
F6CE  20 FA FA  JSR $FAFA                       A:29 X:FF Y:0E P:25 SP:FB CYC:236 SL:206
FAFA  B8        CLV                             A:29 X:FF Y:0E P:25 SP:F9 CYC:254 SL:206
FAFB  18        CLC                             A:29 X:FF Y:0E P:25 SP:F9 CYC:260 SL:206
FAFC  A9 42     LDA #$42                        A:29 X:FF Y:0E P:24 SP:F9 CYC:266 SL:206
FAFE  60        RTS                             A:42 X:FF Y:0E P:24 SP:F9 CYC:272 SL:206
F6D1  77 48    *RRA $48,X @ 47 = 29             A:42 X:FF Y:0E P:24 SP:FB CYC:290 SL:206
F6D3  EA        NOP                             A:57 X:FF Y:0E P:24 SP:FB CYC:308 SL:206
F6D4  EA        NOP                             A:57 X:FF Y:0E P:24 SP:FB CYC:314 SL:206
F6D5  EA        NOP                             A:57 X:FF Y:0E P:24 SP:FB CYC:320 SL:206
F6D6  EA        NOP                             A:57 X:FF Y:0E P:24 SP:FB CYC:326 SL:206
F6D7  20 FF FA  JSR $FAFF                       A:57 X:FF Y:0E P:24 SP:FB CYC:332 SL:206
FAFF  70 1A     BVS $FB1B                       A:57 X:FF Y:0E P:24 SP:F9 CYC:  9 SL:207
FB01  30 18     BMI $FB1B                       A:57 X:FF Y:0E P:24 SP:F9 CYC: 15 SL:207
FB03  B0 16     BCS $FB1B                       A:57 X:FF Y:0E P:24 SP:F9 CYC: 21 SL:207
FB05  C9 57     CMP #$57                        A:57 X:FF Y:0E P:24 SP:F9 CYC: 27 SL:207
FB07  D0 12     BNE $FB1B                       A:57 X:FF Y:0E P:27 SP:F9 CYC: 33 SL:207
FB09  60        RTS                             A:57 X:FF Y:0E P:27 SP:F9 CYC: 39 SL:207
F6DA  A5 47     LDA $47 = 14                    A:57 X:FF Y:0E P:27 SP:FB CYC: 57 SL:207
F6DC  C9 14     CMP #$14                        A:14 X:FF Y:0E P:25 SP:FB CYC: 66 SL:207
F6DE  F0 02     BEQ $F6E2                       A:14 X:FF Y:0E P:27 SP:FB CYC: 72 SL:207
F6E2  C8        INY                             A:14 X:FF Y:0E P:27 SP:FB CYC: 81 SL:207
F6E3  A9 37     LDA #$37                        A:14 X:FF Y:0F P:25 SP:FB CYC: 87 SL:207
F6E5  85 47     STA $47 = 14                    A:37 X:FF Y:0F P:25 SP:FB CYC: 93 SL:207
F6E7  20 0A FB  JSR $FB0A                       A:37 X:FF Y:0F P:25 SP:FB CYC:102 SL:207
FB0A  24 01     BIT $01 = FF                    A:37 X:FF Y:0F P:25 SP:F9 CYC:120 SL:207
FB0C  38        SEC                             A:37 X:FF Y:0F P:E5 SP:F9 CYC:129 SL:207
FB0D  A9 75     LDA #$75                        A:37 X:FF Y:0F P:E5 SP:F9 CYC:135 SL:207
FB0F  60        RTS                             A:75 X:FF Y:0F P:65 SP:F9 CYC:141 SL:207
F6EA  77 48    *RRA $48,X @ 47 = 37             A:75 X:FF Y:0F P:65 SP:FB CYC:159 SL:207
F6EC  EA        NOP                             A:11 X:FF Y:0F P:25 SP:FB CYC:177 SL:207
F6ED  EA        NOP                             A:11 X:FF Y:0F P:25 SP:FB CYC:183 SL:207
F6EE  EA        NOP                             A:11 X:FF Y:0F P:25 SP:FB CYC:189 SL:207
F6EF  EA        NOP                             A:11 X:FF Y:0F P:25 SP:FB CYC:195 SL:207
F6F0  20 10 FB  JSR $FB10                       A:11 X:FF Y:0F P:25 SP:FB CYC:201 SL:207
FB10  70 09     BVS $FB1B                       A:11 X:FF Y:0F P:25 SP:F9 CYC:219 SL:207
FB12  30 07     BMI $FB1B                       A:11 X:FF Y:0F P:25 SP:F9 CYC:225 SL:207
FB14  90 05     BCC $FB1B                       A:11 X:FF Y:0F P:25 SP:F9 CYC:231 SL:207
FB16  C9 11     CMP #$11                        A:11 X:FF Y:0F P:25 SP:F9 CYC:237 SL:207
FB18  D0 01     BNE $FB1B                       A:11 X:FF Y:0F P:27 SP:F9 CYC:243 SL:207
FB1A  60        RTS                             A:11 X:FF Y:0F P:27 SP:F9 CYC:249 SL:207
F6F3  A5 47     LDA $47 = 9B                    A:11 X:FF Y:0F P:27 SP:FB CYC:267 SL:207
F6F5  C9 9B     CMP #$9B                        A:9B X:FF Y:0F P:A5 SP:FB CYC:276 SL:207
F6F7  F0 02     BEQ $F6FB                       A:9B X:FF Y:0F P:27 SP:FB CYC:282 SL:207
F6FB  A9 A5     LDA #$A5                        A:9B X:FF Y:0F P:27 SP:FB CYC:291 SL:207
F6FD  8D 47 06  STA $0647 = 9B                  A:A5 X:FF Y:0F P:A5 SP:FB CYC:297 SL:207
F700  A0 FF     LDY #$FF                        A:A5 X:FF Y:0F P:A5 SP:FB CYC:309 SL:207
F702  20 E9 FA  JSR $FAE9                       A:A5 X:FF Y:FF P:A5 SP:FB CYC:315 SL:207
FAE9  24 01     BIT $01 = FF                    A:A5 X:FF Y:FF P:A5 SP:F9 CYC:333 SL:207
FAEB  18        CLC                             A:A5 X:FF Y:FF P:E5 SP:F9 CYC:  1 SL:208
FAEC  A9 B2     LDA #$B2                        A:A5 X:FF Y:FF P:E4 SP:F9 CYC:  7 SL:208
FAEE  60        RTS                             A:B2 X:FF Y:FF P:E4 SP:F9 CYC: 13 SL:208
F705  7B 48 05 *RRA $0548,Y @ 0647 = A5         A:B2 X:FF Y:FF P:E4 SP:FB CYC: 31 SL:208
F708  EA        NOP                             A:05 X:FF Y:FF P:25 SP:FB CYC: 52 SL:208
F709  EA        NOP                             A:05 X:FF Y:FF P:25 SP:FB CYC: 58 SL:208
F70A  08        PHP                             A:05 X:FF Y:FF P:25 SP:FB CYC: 64 SL:208
F70B  48        PHA                             A:05 X:FF Y:FF P:25 SP:FA CYC: 73 SL:208
F70C  A0 10     LDY #$10                        A:05 X:FF Y:FF P:25 SP:F9 CYC: 82 SL:208
F70E  68        PLA                             A:05 X:FF Y:10 P:25 SP:F9 CYC: 88 SL:208
F70F  28        PLP                             A:05 X:FF Y:10 P:25 SP:FA CYC:100 SL:208
F710  20 EF FA  JSR $FAEF                       A:05 X:FF Y:10 P:25 SP:FB CYC:112 SL:208
FAEF  70 2A     BVS $FB1B                       A:05 X:FF Y:10 P:25 SP:F9 CYC:130 SL:208
FAF1  90 28     BCC $FB1B                       A:05 X:FF Y:10 P:25 SP:F9 CYC:136 SL:208
FAF3  30 26     BMI $FB1B                       A:05 X:FF Y:10 P:25 SP:F9 CYC:142 SL:208
FAF5  C9 05     CMP #$05                        A:05 X:FF Y:10 P:25 SP:F9 CYC:148 SL:208
FAF7  D0 22     BNE $FB1B                       A:05 X:FF Y:10 P:27 SP:F9 CYC:154 SL:208
FAF9  60        RTS                             A:05 X:FF Y:10 P:27 SP:F9 CYC:160 SL:208
F713  AD 47 06  LDA $0647 = 52                  A:05 X:FF Y:10 P:27 SP:FB CYC:178 SL:208
F716  C9 52     CMP #$52                        A:52 X:FF Y:10 P:25 SP:FB CYC:190 SL:208
F718  F0 02     BEQ $F71C                       A:52 X:FF Y:10 P:27 SP:FB CYC:196 SL:208
F71C  A0 FF     LDY #$FF                        A:52 X:FF Y:10 P:27 SP:FB CYC:205 SL:208
F71E  A9 29     LDA #$29                        A:52 X:FF Y:FF P:A5 SP:FB CYC:211 SL:208
F720  8D 47 06  STA $0647 = 52                  A:29 X:FF Y:FF P:25 SP:FB CYC:217 SL:208
F723  20 FA FA  JSR $FAFA                       A:29 X:FF Y:FF P:25 SP:FB CYC:229 SL:208
FAFA  B8        CLV                             A:29 X:FF Y:FF P:25 SP:F9 CYC:247 SL:208
FAFB  18        CLC                             A:29 X:FF Y:FF P:25 SP:F9 CYC:253 SL:208
FAFC  A9 42     LDA #$42                        A:29 X:FF Y:FF P:24 SP:F9 CYC:259 SL:208
FAFE  60        RTS                             A:42 X:FF Y:FF P:24 SP:F9 CYC:265 SL:208
F726  7B 48 05 *RRA $0548,Y @ 0647 = 29         A:42 X:FF Y:FF P:24 SP:FB CYC:283 SL:208
F729  EA        NOP                             A:57 X:FF Y:FF P:24 SP:FB CYC:304 SL:208
F72A  EA        NOP                             A:57 X:FF Y:FF P:24 SP:FB CYC:310 SL:208
F72B  08        PHP                             A:57 X:FF Y:FF P:24 SP:FB CYC:316 SL:208
F72C  48        PHA                             A:57 X:FF Y:FF P:24 SP:FA CYC:325 SL:208
F72D  A0 11     LDY #$11                        A:57 X:FF Y:FF P:24 SP:F9 CYC:334 SL:208
F72F  68        PLA                             A:57 X:FF Y:11 P:24 SP:F9 CYC:340 SL:208
F730  28        PLP                             A:57 X:FF Y:11 P:24 SP:FA CYC: 11 SL:209
F731  20 FF FA  JSR $FAFF                       A:57 X:FF Y:11 P:24 SP:FB CYC: 23 SL:209
FAFF  70 1A     BVS $FB1B                       A:57 X:FF Y:11 P:24 SP:F9 CYC: 41 SL:209
FB01  30 18     BMI $FB1B                       A:57 X:FF Y:11 P:24 SP:F9 CYC: 47 SL:209
FB03  B0 16     BCS $FB1B                       A:57 X:FF Y:11 P:24 SP:F9 CYC: 53 SL:209
FB05  C9 57     CMP #$57                        A:57 X:FF Y:11 P:24 SP:F9 CYC: 59 SL:209
FB07  D0 12     BNE $FB1B                       A:57 X:FF Y:11 P:27 SP:F9 CYC: 65 SL:209
FB09  60        RTS                             A:57 X:FF Y:11 P:27 SP:F9 CYC: 71 SL:209
F734  AD 47 06  LDA $0647 = 14                  A:57 X:FF Y:11 P:27 SP:FB CYC: 89 SL:209
F737  C9 14     CMP #$14                        A:14 X:FF Y:11 P:25 SP:FB CYC:101 SL:209
F739  F0 02     BEQ $F73D                       A:14 X:FF Y:11 P:27 SP:FB CYC:107 SL:209
F73D  A0 FF     LDY #$FF                        A:14 X:FF Y:11 P:27 SP:FB CYC:116 SL:209
F73F  A9 37     LDA #$37                        A:14 X:FF Y:FF P:A5 SP:FB CYC:122 SL:209
F741  8D 47 06  STA $0647 = 14                  A:37 X:FF Y:FF P:25 SP:FB CYC:128 SL:209
F744  20 0A FB  JSR $FB0A                       A:37 X:FF Y:FF P:25 SP:FB CYC:140 SL:209
FB0A  24 01     BIT $01 = FF                    A:37 X:FF Y:FF P:25 SP:F9 CYC:158 SL:209
FB0C  38        SEC                             A:37 X:FF Y:FF P:E5 SP:F9 CYC:167 SL:209
FB0D  A9 75     LDA #$75                        A:37 X:FF Y:FF P:E5 SP:F9 CYC:173 SL:209
FB0F  60        RTS                             A:75 X:FF Y:FF P:65 SP:F9 CYC:179 SL:209
F747  7B 48 05 *RRA $0548,Y @ 0647 = 37         A:75 X:FF Y:FF P:65 SP:FB CYC:197 SL:209
F74A  EA        NOP                             A:11 X:FF Y:FF P:25 SP:FB CYC:218 SL:209
F74B  EA        NOP                             A:11 X:FF Y:FF P:25 SP:FB CYC:224 SL:209
F74C  08        PHP                             A:11 X:FF Y:FF P:25 SP:FB CYC:230 SL:209
F74D  48        PHA                             A:11 X:FF Y:FF P:25 SP:FA CYC:239 SL:209
F74E  A0 12     LDY #$12                        A:11 X:FF Y:FF P:25 SP:F9 CYC:248 SL:209
F750  68        PLA                             A:11 X:FF Y:12 P:25 SP:F9 CYC:254 SL:209
F751  28        PLP                             A:11 X:FF Y:12 P:25 SP:FA CYC:266 SL:209
F752  20 10 FB  JSR $FB10                       A:11 X:FF Y:12 P:25 SP:FB CYC:278 SL:209
FB10  70 09     BVS $FB1B                       A:11 X:FF Y:12 P:25 SP:F9 CYC:296 SL:209
FB12  30 07     BMI $FB1B                       A:11 X:FF Y:12 P:25 SP:F9 CYC:302 SL:209
FB14  90 05     BCC $FB1B                       A:11 X:FF Y:12 P:25 SP:F9 CYC:308 SL:209
FB16  C9 11     CMP #$11                        A:11 X:FF Y:12 P:25 SP:F9 CYC:314 SL:209
FB18  D0 01     BNE $FB1B                       A:11 X:FF Y:12 P:27 SP:F9 CYC:320 SL:209
FB1A  60        RTS                             A:11 X:FF Y:12 P:27 SP:F9 CYC:326 SL:209
F755  AD 47 06  LDA $0647 = 9B                  A:11 X:FF Y:12 P:27 SP:FB CYC:  3 SL:210
F758  C9 9B     CMP #$9B                        A:9B X:FF Y:12 P:A5 SP:FB CYC: 15 SL:210
F75A  F0 02     BEQ $F75E                       A:9B X:FF Y:12 P:27 SP:FB CYC: 21 SL:210
F75E  A0 13     LDY #$13                        A:9B X:FF Y:12 P:27 SP:FB CYC: 30 SL:210
F760  A2 FF     LDX #$FF                        A:9B X:FF Y:13 P:25 SP:FB CYC: 36 SL:210
F762  A9 A5     LDA #$A5                        A:9B X:FF Y:13 P:A5 SP:FB CYC: 42 SL:210
F764  8D 47 06  STA $0647 = 9B                  A:A5 X:FF Y:13 P:A5 SP:FB CYC: 48 SL:210
F767  20 E9 FA  JSR $FAE9                       A:A5 X:FF Y:13 P:A5 SP:FB CYC: 60 SL:210
FAE9  24 01     BIT $01 = FF                    A:A5 X:FF Y:13 P:A5 SP:F9 CYC: 78 SL:210
FAEB  18        CLC                             A:A5 X:FF Y:13 P:E5 SP:F9 CYC: 87 SL:210
FAEC  A9 B2     LDA #$B2                        A:A5 X:FF Y:13 P:E4 SP:F9 CYC: 93 SL:210
FAEE  60        RTS                             A:B2 X:FF Y:13 P:E4 SP:F9 CYC: 99 SL:210
F76A  7F 48 05 *RRA $0548,X @ 0647 = A5         A:B2 X:FF Y:13 P:E4 SP:FB CYC:117 SL:210
F76D  EA        NOP                             A:05 X:FF Y:13 P:25 SP:FB CYC:138 SL:210
F76E  EA        NOP                             A:05 X:FF Y:13 P:25 SP:FB CYC:144 SL:210
F76F  EA        NOP                             A:05 X:FF Y:13 P:25 SP:FB CYC:150 SL:210
F770  EA        NOP                             A:05 X:FF Y:13 P:25 SP:FB CYC:156 SL:210
F771  20 EF FA  JSR $FAEF                       A:05 X:FF Y:13 P:25 SP:FB CYC:162 SL:210
FAEF  70 2A     BVS $FB1B                       A:05 X:FF Y:13 P:25 SP:F9 CYC:180 SL:210
FAF1  90 28     BCC $FB1B                       A:05 X:FF Y:13 P:25 SP:F9 CYC:186 SL:210
FAF3  30 26     BMI $FB1B                       A:05 X:FF Y:13 P:25 SP:F9 CYC:192 SL:210
FAF5  C9 05     CMP #$05                        A:05 X:FF Y:13 P:25 SP:F9 CYC:198 SL:210
FAF7  D0 22     BNE $FB1B                       A:05 X:FF Y:13 P:27 SP:F9 CYC:204 SL:210
FAF9  60        RTS                             A:05 X:FF Y:13 P:27 SP:F9 CYC:210 SL:210
F774  AD 47 06  LDA $0647 = 52                  A:05 X:FF Y:13 P:27 SP:FB CYC:228 SL:210
F777  C9 52     CMP #$52                        A:52 X:FF Y:13 P:25 SP:FB CYC:240 SL:210
F779  F0 02     BEQ $F77D                       A:52 X:FF Y:13 P:27 SP:FB CYC:246 SL:210
F77D  C8        INY                             A:52 X:FF Y:13 P:27 SP:FB CYC:255 SL:210
F77E  A9 29     LDA #$29                        A:52 X:FF Y:14 P:25 SP:FB CYC:261 SL:210
F780  8D 47 06  STA $0647 = 52                  A:29 X:FF Y:14 P:25 SP:FB CYC:267 SL:210
F783  20 FA FA  JSR $FAFA                       A:29 X:FF Y:14 P:25 SP:FB CYC:279 SL:210
FAFA  B8        CLV                             A:29 X:FF Y:14 P:25 SP:F9 CYC:297 SL:210
FAFB  18        CLC                             A:29 X:FF Y:14 P:25 SP:F9 CYC:303 SL:210
FAFC  A9 42     LDA #$42                        A:29 X:FF Y:14 P:24 SP:F9 CYC:309 SL:210
FAFE  60        RTS                             A:42 X:FF Y:14 P:24 SP:F9 CYC:315 SL:210
F786  7F 48 05 *RRA $0548,X @ 0647 = 29         A:42 X:FF Y:14 P:24 SP:FB CYC:333 SL:210
F789  EA        NOP                             A:57 X:FF Y:14 P:24 SP:FB CYC: 13 SL:211
F78A  EA        NOP                             A:57 X:FF Y:14 P:24 SP:FB CYC: 19 SL:211
F78B  EA        NOP                             A:57 X:FF Y:14 P:24 SP:FB CYC: 25 SL:211
F78C  EA        NOP                             A:57 X:FF Y:14 P:24 SP:FB CYC: 31 SL:211
F78D  20 FF FA  JSR $FAFF                       A:57 X:FF Y:14 P:24 SP:FB CYC: 37 SL:211
FAFF  70 1A     BVS $FB1B                       A:57 X:FF Y:14 P:24 SP:F9 CYC: 55 SL:211
FB01  30 18     BMI $FB1B                       A:57 X:FF Y:14 P:24 SP:F9 CYC: 61 SL:211
FB03  B0 16     BCS $FB1B                       A:57 X:FF Y:14 P:24 SP:F9 CYC: 67 SL:211
FB05  C9 57     CMP #$57                        A:57 X:FF Y:14 P:24 SP:F9 CYC: 73 SL:211
FB07  D0 12     BNE $FB1B                       A:57 X:FF Y:14 P:27 SP:F9 CYC: 79 SL:211
FB09  60        RTS                             A:57 X:FF Y:14 P:27 SP:F9 CYC: 85 SL:211
F790  AD 47 06  LDA $0647 = 14                  A:57 X:FF Y:14 P:27 SP:FB CYC:103 SL:211
F793  C9 14     CMP #$14                        A:14 X:FF Y:14 P:25 SP:FB CYC:115 SL:211
F795  F0 02     BEQ $F799                       A:14 X:FF Y:14 P:27 SP:FB CYC:121 SL:211
F799  C8        INY                             A:14 X:FF Y:14 P:27 SP:FB CYC:130 SL:211
F79A  A9 37     LDA #$37                        A:14 X:FF Y:15 P:25 SP:FB CYC:136 SL:211
F79C  8D 47 06  STA $0647 = 14                  A:37 X:FF Y:15 P:25 SP:FB CYC:142 SL:211
F79F  20 0A FB  JSR $FB0A                       A:37 X:FF Y:15 P:25 SP:FB CYC:154 SL:211
FB0A  24 01     BIT $01 = FF                    A:37 X:FF Y:15 P:25 SP:F9 CYC:172 SL:211
FB0C  38        SEC                             A:37 X:FF Y:15 P:E5 SP:F9 CYC:181 SL:211
FB0D  A9 75     LDA #$75                        A:37 X:FF Y:15 P:E5 SP:F9 CYC:187 SL:211
FB0F  60        RTS                             A:75 X:FF Y:15 P:65 SP:F9 CYC:193 SL:211
F7A2  7F 48 05 *RRA $0548,X @ 0647 = 37         A:75 X:FF Y:15 P:65 SP:FB CYC:211 SL:211
F7A5  EA        NOP                             A:11 X:FF Y:15 P:25 SP:FB CYC:232 SL:211
F7A6  EA        NOP                             A:11 X:FF Y:15 P:25 SP:FB CYC:238 SL:211
F7A7  EA        NOP                             A:11 X:FF Y:15 P:25 SP:FB CYC:244 SL:211
F7A8  EA        NOP                             A:11 X:FF Y:15 P:25 SP:FB CYC:250 SL:211
F7A9  20 10 FB  JSR $FB10                       A:11 X:FF Y:15 P:25 SP:FB CYC:256 SL:211
FB10  70 09     BVS $FB1B                       A:11 X:FF Y:15 P:25 SP:F9 CYC:274 SL:211
FB12  30 07     BMI $FB1B                       A:11 X:FF Y:15 P:25 SP:F9 CYC:280 SL:211
FB14  90 05     BCC $FB1B                       A:11 X:FF Y:15 P:25 SP:F9 CYC:286 SL:211
FB16  C9 11     CMP #$11                        A:11 X:FF Y:15 P:25 SP:F9 CYC:292 SL:211
FB18  D0 01     BNE $FB1B                       A:11 X:FF Y:15 P:27 SP:F9 CYC:298 SL:211
FB1A  60        RTS                             A:11 X:FF Y:15 P:27 SP:F9 CYC:304 SL:211
F7AC  AD 47 06  LDA $0647 = 9B                  A:11 X:FF Y:15 P:27 SP:FB CYC:322 SL:211
F7AF  C9 9B     CMP #$9B                        A:9B X:FF Y:15 P:A5 SP:FB CYC:334 SL:211
F7B1  F0 02     BEQ $F7B5                       A:9B X:FF Y:15 P:27 SP:FB CYC:340 SL:211
F7B5  60        RTS                             A:9B X:FF Y:15 P:27 SP:FB CYC:  8 SL:212
C655  A5 00     LDA $00 = 00                    A:9B X:FF Y:15 P:27 SP:FD CYC: 26 SL:212
C657  05 10     ORA $10 = 00                    A:00 X:FF Y:15 P:27 SP:FD CYC: 35 SL:212
C659  05 11     ORA $11 = 00                    A:00 X:FF Y:15 P:27 SP:FD CYC: 44 SL:212
C65B  F0 0E     BEQ $C66B                       A:00 X:FF Y:15 P:27 SP:FD CYC: 53 SL:212
C66B  20 89 C6  JSR $C689                       A:00 X:FF Y:15 P:27 SP:FD CYC: 62 SL:212
C689  A9 02     LDA #$02                        A:00 X:FF Y:15 P:27 SP:FB CYC: 80 SL:212
C68B  8D 15 40  STA $4015 = FF                  A:02 X:FF Y:15 P:25 SP:FB CYC: 86 SL:212
C68E  A9 3F     LDA #$3F                        A:02 X:FF Y:15 P:25 SP:FB CYC: 98 SL:212
C690  8D 04 40  STA $4004 = FF                  A:3F X:FF Y:15 P:25 SP:FB CYC:104 SL:212
C693  A9 9A     LDA #$9A                        A:3F X:FF Y:15 P:25 SP:FB CYC:116 SL:212
C695  8D 05 40  STA $4005 = FF                  A:9A X:FF Y:15 P:A5 SP:FB CYC:122 SL:212
C698  A9 FF     LDA #$FF                        A:9A X:FF Y:15 P:A5 SP:FB CYC:134 SL:212
C69A  8D 06 40  STA $4006 = FF                  A:FF X:FF Y:15 P:A5 SP:FB CYC:140 SL:212
C69D  A9 00     LDA #$00                        A:FF X:FF Y:15 P:A5 SP:FB CYC:152 SL:212
C69F  8D 07 40  STA $4007 = FF                  A:00 X:FF Y:15 P:27 SP:FB CYC:158 SL:212
C6A2  60        RTS                             A:00 X:FF Y:15 P:27 SP:FB CYC:170 SL:212
C66E  60        RTS                             A:00 X:FF Y:15 P:27 SP:FD CYC:188 SL:212
